
build/labb-4.elf:     file format elf32-littleriscv


Disassembly of section .text:

20000000 <_start>:
20000000:	2001c137          	lui	sp,0x2001c
20000004:	2fd030ef          	jal	20003b00 <_crt_init>
20000008:	00001297          	auipc	t0,0x1
2000000c:	b4c28293          	addi	t0,t0,-1204 # 20000b54 <main>
20000010:	00000097          	auipc	ra,0x0
20000014:	01c08093          	addi	ra,ra,28 # 2000002c <exit>
20000018:	34129073          	csrw	mepc,t0
2000001c:	00004337          	lui	t1,0x4
20000020:	88030313          	addi	t1,t1,-1920 # 3880 <_start-0x1fffc780>
20000024:	30031073          	csrw	mstatus,t1
20000028:	30200073          	mret

2000002c <exit>:
2000002c:	51d030ef          	jal	20003d48 <_crt_deinit>
20000030:	0000006f          	j	20000030 <exit+0x4>

20000034 <init_gpio>:
#include "gpio.h"

void init_gpio() {
20000034:	ff010113          	addi	sp,sp,-16 # 2001bff0 <__stack_top+0x120ec>
20000038:	00112623          	sw	ra,12(sp)
2000003c:	00812423          	sw	s0,8(sp)
20000040:	01010413          	addi	s0,sp,16
  // GPIOD [0:7] keypad
  // - cols [0:3] (input, pull-up)
  // - rows [4:7] (output, open drain, 2 MHz)
  GPIOD->CFGLR = 0x66668888;
20000044:	400117b7          	lui	a5,0x40011
20000048:	40078793          	addi	a5,a5,1024 # 40011400 <__stack_top+0x200074fc>
2000004c:	66669737          	lui	a4,0x66669
20000050:	88870713          	addi	a4,a4,-1912 # 66668888 <__stack_top+0x4665e984>
20000054:	00e7a023          	sw	a4,0(a5)
  GPIOD->BSR = 0xF << 0;
20000058:	400117b7          	lui	a5,0x40011
2000005c:	40078793          	addi	a5,a5,1024 # 40011400 <__stack_top+0x200074fc>
20000060:	00f00713          	li	a4,15
20000064:	00e79823          	sh	a4,16(a5)
  // Activate all rows
  GPIOD->BCR = 0xF << 4;
20000068:	400117b7          	lui	a5,0x40011
2000006c:	40078793          	addi	a5,a5,1024 # 40011400 <__stack_top+0x200074fc>
20000070:	0f000713          	li	a4,240
20000074:	00e79a23          	sh	a4,20(a5)
  // GPIOE [0] buzzer (output, push/pull, 2 MHz)
  GPIOE->CFGLR &= ~(0xF << 0);
20000078:	400127b7          	lui	a5,0x40012
2000007c:	80078793          	addi	a5,a5,-2048 # 40011800 <__stack_top+0x200078fc>
20000080:	0007a703          	lw	a4,0(a5)
20000084:	400127b7          	lui	a5,0x40012
20000088:	80078793          	addi	a5,a5,-2048 # 40011800 <__stack_top+0x200078fc>
2000008c:	ff077713          	andi	a4,a4,-16
20000090:	00e7a023          	sw	a4,0(a5)
  GPIOE->CFGLR |=  (0x2 << 0);
20000094:	400127b7          	lui	a5,0x40012
20000098:	80078793          	addi	a5,a5,-2048 # 40011800 <__stack_top+0x200078fc>
2000009c:	0007a703          	lw	a4,0(a5)
200000a0:	400127b7          	lui	a5,0x40012
200000a4:	80078793          	addi	a5,a5,-2048 # 40011800 <__stack_top+0x200078fc>
200000a8:	00276713          	ori	a4,a4,2
200000ac:	00e7a023          	sw	a4,0(a5)
  // GPIOD [8:15] bargraph (output, push/pull, 2 MHz)
  GPIOD->CFGHR = 0x22222222;
200000b0:	400117b7          	lui	a5,0x40011
200000b4:	40078793          	addi	a5,a5,1024 # 40011400 <__stack_top+0x200074fc>
200000b8:	22222737          	lui	a4,0x22222
200000bc:	22270713          	addi	a4,a4,546 # 22222222 <__stack_top+0x221831e>
200000c0:	00e7a223          	sw	a4,4(a5)
  // turn off all leds
  GPIOD->BCR = 0xFF << 8;
200000c4:	400117b7          	lui	a5,0x40011
200000c8:	40078793          	addi	a5,a5,1024 # 40011400 <__stack_top+0x200074fc>
200000cc:	f0000713          	li	a4,-256
200000d0:	00e79a23          	sh	a4,20(a5)
}
200000d4:	00000013          	nop
200000d8:	00c12083          	lw	ra,12(sp)
200000dc:	00812403          	lw	s0,8(sp)
200000e0:	01010113          	addi	sp,sp,16
200000e4:	00008067          	ret

200000e8 <init_interrupts>:
#include "afio.h"
#include "exti.h"
#include "pfic.h"

void init_interrupts() {
200000e8:	ff010113          	addi	sp,sp,-16
200000ec:	00112623          	sw	ra,12(sp)
200000f0:	00812423          	sw	s0,8(sp)
200000f4:	01010413          	addi	s0,sp,16
  // Enable systick interrupts
  IENR_SET(12);
200000f8:	e000e7b7          	lui	a5,0xe000e
200000fc:	10078793          	addi	a5,a5,256 # e000e100 <__stack_top+0xc00041fc>
20000100:	0007a683          	lw	a3,0(a5)
20000104:	e000e7b7          	lui	a5,0xe000e
20000108:	10078793          	addi	a5,a5,256 # e000e100 <__stack_top+0xc00041fc>
2000010c:	00001737          	lui	a4,0x1
20000110:	00e6e733          	or	a4,a3,a4
20000114:	00e7a023          	sw	a4,0(a5)
  // Enable EXTI{0,1,2,3}
  IENR_SET(22);
20000118:	e000e7b7          	lui	a5,0xe000e
2000011c:	10078793          	addi	a5,a5,256 # e000e100 <__stack_top+0xc00041fc>
20000120:	0007a683          	lw	a3,0(a5)
20000124:	e000e7b7          	lui	a5,0xe000e
20000128:	10078793          	addi	a5,a5,256 # e000e100 <__stack_top+0xc00041fc>
2000012c:	00400737          	lui	a4,0x400
20000130:	00e6e733          	or	a4,a3,a4
20000134:	00e7a023          	sw	a4,0(a5)
  IENR_SET(23);
20000138:	e000e7b7          	lui	a5,0xe000e
2000013c:	10078793          	addi	a5,a5,256 # e000e100 <__stack_top+0xc00041fc>
20000140:	0007a683          	lw	a3,0(a5)
20000144:	e000e7b7          	lui	a5,0xe000e
20000148:	10078793          	addi	a5,a5,256 # e000e100 <__stack_top+0xc00041fc>
2000014c:	00800737          	lui	a4,0x800
20000150:	00e6e733          	or	a4,a3,a4
20000154:	00e7a023          	sw	a4,0(a5)
  IENR_SET(24);
20000158:	e000e7b7          	lui	a5,0xe000e
2000015c:	10078793          	addi	a5,a5,256 # e000e100 <__stack_top+0xc00041fc>
20000160:	0007a683          	lw	a3,0(a5)
20000164:	e000e7b7          	lui	a5,0xe000e
20000168:	10078793          	addi	a5,a5,256 # e000e100 <__stack_top+0xc00041fc>
2000016c:	01000737          	lui	a4,0x1000
20000170:	00e6e733          	or	a4,a3,a4
20000174:	00e7a023          	sw	a4,0(a5)
  IENR_SET(25);
20000178:	e000e7b7          	lui	a5,0xe000e
2000017c:	10078793          	addi	a5,a5,256 # e000e100 <__stack_top+0xc00041fc>
20000180:	0007a683          	lw	a3,0(a5)
20000184:	e000e7b7          	lui	a5,0xe000e
20000188:	10078793          	addi	a5,a5,256 # e000e100 <__stack_top+0xc00041fc>
2000018c:	02000737          	lui	a4,0x2000
20000190:	00e6e733          	or	a4,a3,a4
20000194:	00e7a023          	sw	a4,0(a5)
  // Connect EXTI{0,1,2,3} to port D
  AFIO->EXTICR1 = 0x3333;
20000198:	400107b7          	lui	a5,0x40010
2000019c:	00003737          	lui	a4,0x3
200001a0:	33370713          	addi	a4,a4,819 # 3333 <_start-0x1fffcccd>
200001a4:	00e79423          	sh	a4,8(a5) # 40010008 <__stack_top+0x20006104>
  // Use rising and falling triggers on lines {0,1,2,3}
  EXTI->RTENR |= 0xF << 0;
200001a8:	400107b7          	lui	a5,0x40010
200001ac:	40078793          	addi	a5,a5,1024 # 40010400 <__stack_top+0x200064fc>
200001b0:	0087a703          	lw	a4,8(a5)
200001b4:	400107b7          	lui	a5,0x40010
200001b8:	40078793          	addi	a5,a5,1024 # 40010400 <__stack_top+0x200064fc>
200001bc:	00f76713          	ori	a4,a4,15
200001c0:	00e7a423          	sw	a4,8(a5)
  EXTI->FTENR |= 0xF << 0;
200001c4:	400107b7          	lui	a5,0x40010
200001c8:	40078793          	addi	a5,a5,1024 # 40010400 <__stack_top+0x200064fc>
200001cc:	00c7a703          	lw	a4,12(a5)
200001d0:	400107b7          	lui	a5,0x40010
200001d4:	40078793          	addi	a5,a5,1024 # 40010400 <__stack_top+0x200064fc>
200001d8:	00f76713          	ori	a4,a4,15
200001dc:	00e7a623          	sw	a4,12(a5)
  // Enable interrupts on lines {0,1,2,3}
  EXTI->INTENR |= 0xF << 0;
200001e0:	400107b7          	lui	a5,0x40010
200001e4:	40078793          	addi	a5,a5,1024 # 40010400 <__stack_top+0x200064fc>
200001e8:	0007a703          	lw	a4,0(a5)
200001ec:	400107b7          	lui	a5,0x40010
200001f0:	40078793          	addi	a5,a5,1024 # 40010400 <__stack_top+0x200064fc>
200001f4:	00f76713          	ori	a4,a4,15
200001f8:	00e7a023          	sw	a4,0(a5)
}
200001fc:	00000013          	nop
20000200:	00c12083          	lw	ra,12(sp)
20000204:	00812403          	lw	s0,8(sp)
20000208:	01010113          	addi	sp,sp,16
2000020c:	00008067          	ret

20000210 <keypad>:
#include "gpio.h"
#include "keypad.h"

uint8_t keypad() {
20000210:	fe010113          	addi	sp,sp,-32
20000214:	00112e23          	sw	ra,28(sp)
20000218:	00812c23          	sw	s0,24(sp)
2000021c:	02010413          	addi	s0,sp,32
  int row;
  int col;
  uint16_t idr;
  // Deactivate all rows
  GPIOD->BSR = 0xF << 4;
20000220:	400117b7          	lui	a5,0x40011
20000224:	40078793          	addi	a5,a5,1024 # 40011400 <__stack_top+0x200074fc>
20000228:	0f000713          	li	a4,240
2000022c:	00e79823          	sh	a4,16(a5)
  // For each row:
  for (row = 0; row < 4; row++) {
20000230:	fe042623          	sw	zero,-20(s0)
20000234:	0cc0006f          	j	20000300 <keypad+0xf0>
    // Activate row
    GPIOD->BCR = 1 << (row + 4);
20000238:	fec42783          	lw	a5,-20(s0)
2000023c:	00478793          	addi	a5,a5,4
20000240:	00100713          	li	a4,1
20000244:	00f71733          	sll	a4,a4,a5
20000248:	400117b7          	lui	a5,0x40011
2000024c:	40078793          	addi	a5,a5,1024 # 40011400 <__stack_top+0x200074fc>
20000250:	01071713          	slli	a4,a4,0x10
20000254:	01075713          	srli	a4,a4,0x10
20000258:	00e79a23          	sh	a4,20(a5)
    // pin update speed set to 2 MHz
    // => need to wait for 500 ns before reading columns
    // but can't overwrite systick, so we'll waste time with an empty loop
    for (int i = 0; i < 100; i++) {
2000025c:	fe042223          	sw	zero,-28(s0)
20000260:	0100006f          	j	20000270 <keypad+0x60>
20000264:	fe442783          	lw	a5,-28(s0)
20000268:	00178793          	addi	a5,a5,1
2000026c:	fef42223          	sw	a5,-28(s0)
20000270:	fe442703          	lw	a4,-28(s0)
20000274:	06300793          	li	a5,99
20000278:	fee7d6e3          	bge	a5,a4,20000264 <keypad+0x54>
    }
    // For each column:
    // if column is active, activate all rows and return key index
    idr = GPIOD->IDR;
2000027c:	400117b7          	lui	a5,0x40011
20000280:	40078793          	addi	a5,a5,1024 # 40011400 <__stack_top+0x200074fc>
20000284:	0087d783          	lhu	a5,8(a5)
20000288:	fef41123          	sh	a5,-30(s0)
    for (col = 0; col < 4; col++) {
2000028c:	fe042423          	sw	zero,-24(s0)
20000290:	0580006f          	j	200002e8 <keypad+0xd8>
      if ((idr & (1 << col)) == 0) {
20000294:	fe245703          	lhu	a4,-30(s0)
20000298:	fe842783          	lw	a5,-24(s0)
2000029c:	40f757b3          	sra	a5,a4,a5
200002a0:	0017f793          	andi	a5,a5,1
200002a4:	02079c63          	bnez	a5,200002dc <keypad+0xcc>
        GPIOD->BCR = 0xF << 4;
200002a8:	400117b7          	lui	a5,0x40011
200002ac:	40078793          	addi	a5,a5,1024 # 40011400 <__stack_top+0x200074fc>
200002b0:	0f000713          	li	a4,240
200002b4:	00e79a23          	sh	a4,20(a5)
        return 4 * row + col;
200002b8:	fec42783          	lw	a5,-20(s0)
200002bc:	0ff7f793          	zext.b	a5,a5
200002c0:	00279793          	slli	a5,a5,0x2
200002c4:	0ff7f713          	zext.b	a4,a5
200002c8:	fe842783          	lw	a5,-24(s0)
200002cc:	0ff7f793          	zext.b	a5,a5
200002d0:	00f707b3          	add	a5,a4,a5
200002d4:	0ff7f793          	zext.b	a5,a5
200002d8:	0480006f          	j	20000320 <keypad+0x110>
    for (col = 0; col < 4; col++) {
200002dc:	fe842783          	lw	a5,-24(s0)
200002e0:	00178793          	addi	a5,a5,1
200002e4:	fef42423          	sw	a5,-24(s0)
200002e8:	fe842703          	lw	a4,-24(s0)
200002ec:	00300793          	li	a5,3
200002f0:	fae7d2e3          	bge	a5,a4,20000294 <keypad+0x84>
  for (row = 0; row < 4; row++) {
200002f4:	fec42783          	lw	a5,-20(s0)
200002f8:	00178793          	addi	a5,a5,1
200002fc:	fef42623          	sw	a5,-20(s0)
20000300:	fec42703          	lw	a4,-20(s0)
20000304:	00300793          	li	a5,3
20000308:	f2e7d8e3          	bge	a5,a4,20000238 <keypad+0x28>
      }
    }
  }
  // No key pressed. Activate all rows and return error code
  GPIOD->BCR = 0xF << 4;
2000030c:	400117b7          	lui	a5,0x40011
20000310:	40078793          	addi	a5,a5,1024 # 40011400 <__stack_top+0x200074fc>
20000314:	0f000713          	li	a4,240
20000318:	00e79a23          	sh	a4,20(a5)
  return 0xFF;
2000031c:	0ff00793          	li	a5,255
}
20000320:	00078513          	mv	a0,a5
20000324:	01c12083          	lw	ra,28(sp)
20000328:	01812403          	lw	s0,24(sp)
2000032c:	02010113          	addi	sp,sp,32
20000330:	00008067          	ret

20000334 <resetball>:
    0, 0, 0, 0,
    P2DOWN, 0, 0, P1DOWN
};


void resetball(){
20000334:	ff010113          	addi	sp,sp,-16
20000338:	00112623          	sw	ra,12(sp)
2000033c:	00812423          	sw	s0,8(sp)
20000340:	01010413          	addi	s0,sp,16
    ball.x = 240;
20000344:	200097b7          	lui	a5,0x20009
20000348:	0d078793          	addi	a5,a5,208 # 200090d0 <ball>
2000034c:	0f000713          	li	a4,240
20000350:	00e7a023          	sw	a4,0(a5)
    ball.y = 160;
20000354:	200097b7          	lui	a5,0x20009
20000358:	0d078793          	addi	a5,a5,208 # 200090d0 <ball>
2000035c:	0a000713          	li	a4,160
20000360:	00e7a223          	sw	a4,4(a5)
    ball.speed_x = 3;
20000364:	200097b7          	lui	a5,0x20009
20000368:	0d078793          	addi	a5,a5,208 # 200090d0 <ball>
2000036c:	00300713          	li	a4,3
20000370:	00e7a423          	sw	a4,8(a5)
    ball.speed_y = 1;
20000374:	200097b7          	lui	a5,0x20009
20000378:	0d078793          	addi	a5,a5,208 # 200090d0 <ball>
2000037c:	00100713          	li	a4,1
20000380:	00e7a623          	sw	a4,12(a5)
    ball.size = 10;  // x, y, speed_x, speed_y, size
20000384:	200097b7          	lui	a5,0x20009
20000388:	0d078793          	addi	a5,a5,208 # 200090d0 <ball>
2000038c:	00a00713          	li	a4,10
20000390:	00e7a823          	sw	a4,16(a5)
}
20000394:	00000013          	nop
20000398:	00c12083          	lw	ra,12(sp)
2000039c:	00812403          	lw	s0,8(sp)
200003a0:	01010113          	addi	sp,sp,16
200003a4:	00008067          	ret

200003a8 <systick_handler>:
// volatile int counter = 0;

__attribute__((interrupt("machine")))
void systick_handler() {
200003a8:	f5010113          	addi	sp,sp,-176
200003ac:	0a112623          	sw	ra,172(sp)
200003b0:	0a512423          	sw	t0,168(sp)
200003b4:	003022f3          	frcsr	t0
200003b8:	0a512223          	sw	t0,164(sp)
200003bc:	0a612023          	sw	t1,160(sp)
200003c0:	08712e23          	sw	t2,156(sp)
200003c4:	08812c23          	sw	s0,152(sp)
200003c8:	08a12a23          	sw	a0,148(sp)
200003cc:	08b12823          	sw	a1,144(sp)
200003d0:	08c12623          	sw	a2,140(sp)
200003d4:	08d12423          	sw	a3,136(sp)
200003d8:	08e12223          	sw	a4,132(sp)
200003dc:	08f12023          	sw	a5,128(sp)
200003e0:	07012e23          	sw	a6,124(sp)
200003e4:	07112c23          	sw	a7,120(sp)
200003e8:	07c12a23          	sw	t3,116(sp)
200003ec:	07d12823          	sw	t4,112(sp)
200003f0:	07e12623          	sw	t5,108(sp)
200003f4:	07f12423          	sw	t6,104(sp)
200003f8:	04012627          	fsw	ft0,76(sp)
200003fc:	04112427          	fsw	ft1,72(sp)
20000400:	04212227          	fsw	ft2,68(sp)
20000404:	04312027          	fsw	ft3,64(sp)
20000408:	02412e27          	fsw	ft4,60(sp)
2000040c:	02512c27          	fsw	ft5,56(sp)
20000410:	02612a27          	fsw	ft6,52(sp)
20000414:	02712827          	fsw	ft7,48(sp)
20000418:	02a12627          	fsw	fa0,44(sp)
2000041c:	02b12427          	fsw	fa1,40(sp)
20000420:	02c12227          	fsw	fa2,36(sp)
20000424:	02d12027          	fsw	fa3,32(sp)
20000428:	00e12e27          	fsw	fa4,28(sp)
2000042c:	00f12c27          	fsw	fa5,24(sp)
20000430:	01012a27          	fsw	fa6,20(sp)
20000434:	01112827          	fsw	fa7,16(sp)
20000438:	01c12627          	fsw	ft8,12(sp)
2000043c:	01d12427          	fsw	ft9,8(sp)
20000440:	01e12227          	fsw	ft10,4(sp)
20000444:	01f12027          	fsw	ft11,0(sp)
20000448:	0b010413          	addi	s0,sp,176
    // STK->SR = 0;  // write 0 to clear CNTIF

    //counter++;

    // Erase old ball
    tft_ellipse(ball.x, ball.y, ball.size, ball.size, COLOR_BLUE, 1);
2000044c:	200097b7          	lui	a5,0x20009
20000450:	2e07a803          	lw	a6,736(a5) # 200092e0 <tft_ellipse>
20000454:	200097b7          	lui	a5,0x20009
20000458:	0d078793          	addi	a5,a5,208 # 200090d0 <ball>
2000045c:	0007a503          	lw	a0,0(a5)
20000460:	200097b7          	lui	a5,0x20009
20000464:	0d078793          	addi	a5,a5,208 # 200090d0 <ball>
20000468:	0047a583          	lw	a1,4(a5)
2000046c:	200097b7          	lui	a5,0x20009
20000470:	0d078793          	addi	a5,a5,208 # 200090d0 <ball>
20000474:	0107a603          	lw	a2,16(a5)
20000478:	200097b7          	lui	a5,0x20009
2000047c:	0d078793          	addi	a5,a5,208 # 200090d0 <ball>
20000480:	0107a683          	lw	a3,16(a5)
20000484:	00100793          	li	a5,1
20000488:	01f00713          	li	a4,31
2000048c:	000800e7          	jalr	a6

    //Paddle for player 1
    tft_rect(P1.x, P1.y, PWidth, P1.size, COLOR_BLUE, 1 );
20000490:	200097b7          	lui	a5,0x20009
20000494:	2e47a803          	lw	a6,740(a5) # 200092e4 <tft_rect>
20000498:	200097b7          	lui	a5,0x20009
2000049c:	0a878793          	addi	a5,a5,168 # 200090a8 <P1>
200004a0:	0007a503          	lw	a0,0(a5)
200004a4:	200097b7          	lui	a5,0x20009
200004a8:	0a878793          	addi	a5,a5,168 # 200090a8 <P1>
200004ac:	0047a583          	lw	a1,4(a5)
200004b0:	200097b7          	lui	a5,0x20009
200004b4:	0a878793          	addi	a5,a5,168 # 200090a8 <P1>
200004b8:	00c7a683          	lw	a3,12(a5)
200004bc:	00100793          	li	a5,1
200004c0:	01f00713          	li	a4,31
200004c4:	00a00613          	li	a2,10
200004c8:	000800e7          	jalr	a6

    //Paddle for player 2
    tft_rect(P2.x, P2.y, PWidth, P2.size, COLOR_BLUE, 1 );
200004cc:	200097b7          	lui	a5,0x20009
200004d0:	2e47a803          	lw	a6,740(a5) # 200092e4 <tft_rect>
200004d4:	200097b7          	lui	a5,0x20009
200004d8:	0bc78793          	addi	a5,a5,188 # 200090bc <P2>
200004dc:	0007a503          	lw	a0,0(a5)
200004e0:	200097b7          	lui	a5,0x20009
200004e4:	0bc78793          	addi	a5,a5,188 # 200090bc <P2>
200004e8:	0047a583          	lw	a1,4(a5)
200004ec:	200097b7          	lui	a5,0x20009
200004f0:	0bc78793          	addi	a5,a5,188 # 200090bc <P2>
200004f4:	00c7a683          	lw	a3,12(a5)
200004f8:	00100793          	li	a5,1
200004fc:	01f00713          	li	a4,31
20000500:	00a00613          	li	a2,10
20000504:	000800e7          	jalr	a6

    

    //Vänster collision
    if (ball.x <= ball.size ) {
20000508:	200097b7          	lui	a5,0x20009
2000050c:	0d078793          	addi	a5,a5,208 # 200090d0 <ball>
20000510:	0007a703          	lw	a4,0(a5)
20000514:	200097b7          	lui	a5,0x20009
20000518:	0d078793          	addi	a5,a5,208 # 200090d0 <ball>
2000051c:	0107a783          	lw	a5,16(a5)
20000520:	0ae7cc63          	blt	a5,a4,200005d8 <systick_handler+0x230>
        if(ball.y >= P2.y-(P2.size/2) && ball.y <= P2.y+(P2.size/2)){
20000524:	200097b7          	lui	a5,0x20009
20000528:	0d078793          	addi	a5,a5,208 # 200090d0 <ball>
2000052c:	0047a703          	lw	a4,4(a5)
20000530:	200097b7          	lui	a5,0x20009
20000534:	0bc78793          	addi	a5,a5,188 # 200090bc <P2>
20000538:	0047a683          	lw	a3,4(a5)
2000053c:	200097b7          	lui	a5,0x20009
20000540:	0bc78793          	addi	a5,a5,188 # 200090bc <P2>
20000544:	00c7a783          	lw	a5,12(a5)
20000548:	01f7d613          	srli	a2,a5,0x1f
2000054c:	00f607b3          	add	a5,a2,a5
20000550:	4017d793          	srai	a5,a5,0x1
20000554:	40f007b3          	neg	a5,a5
20000558:	00f687b3          	add	a5,a3,a5
2000055c:	04f74e63          	blt	a4,a5,200005b8 <systick_handler+0x210>
20000560:	200097b7          	lui	a5,0x20009
20000564:	0d078793          	addi	a5,a5,208 # 200090d0 <ball>
20000568:	0047a703          	lw	a4,4(a5)
2000056c:	200097b7          	lui	a5,0x20009
20000570:	0bc78793          	addi	a5,a5,188 # 200090bc <P2>
20000574:	0047a683          	lw	a3,4(a5)
20000578:	200097b7          	lui	a5,0x20009
2000057c:	0bc78793          	addi	a5,a5,188 # 200090bc <P2>
20000580:	00c7a783          	lw	a5,12(a5)
20000584:	01f7d613          	srli	a2,a5,0x1f
20000588:	00f607b3          	add	a5,a2,a5
2000058c:	4017d793          	srai	a5,a5,0x1
20000590:	00f687b3          	add	a5,a3,a5
20000594:	02e7c263          	blt	a5,a4,200005b8 <systick_handler+0x210>
            ball.speed_x = -ball.speed_x;
20000598:	200097b7          	lui	a5,0x20009
2000059c:	0d078793          	addi	a5,a5,208 # 200090d0 <ball>
200005a0:	0087a783          	lw	a5,8(a5)
200005a4:	40f00733          	neg	a4,a5
200005a8:	200097b7          	lui	a5,0x20009
200005ac:	0d078793          	addi	a5,a5,208 # 200090d0 <ball>
200005b0:	00e7a423          	sw	a4,8(a5)
200005b4:	0240006f          	j	200005d8 <systick_handler+0x230>
        }else{//lose
            P2.score++;
200005b8:	200097b7          	lui	a5,0x20009
200005bc:	0bc78793          	addi	a5,a5,188 # 200090bc <P2>
200005c0:	0107a783          	lw	a5,16(a5)
200005c4:	00178713          	addi	a4,a5,1
200005c8:	200097b7          	lui	a5,0x20009
200005cc:	0bc78793          	addi	a5,a5,188 # 200090bc <P2>
200005d0:	00e7a823          	sw	a4,16(a5)
            resetball();
200005d4:	d61ff0ef          	jal	20000334 <resetball>
        }
        
    }
    if(ball.x >= width - ball.size){
200005d8:	200097b7          	lui	a5,0x20009
200005dc:	0d078793          	addi	a5,a5,208 # 200090d0 <ball>
200005e0:	0007a703          	lw	a4,0(a5)
200005e4:	200097b7          	lui	a5,0x20009
200005e8:	0d078793          	addi	a5,a5,208 # 200090d0 <ball>
200005ec:	0107a783          	lw	a5,16(a5)
200005f0:	1df00693          	li	a3,479
200005f4:	40f687b3          	sub	a5,a3,a5
200005f8:	0af74c63          	blt	a4,a5,200006b0 <systick_handler+0x308>
        if(ball.y >= P1.y-(P1.size/2) && ball.y <= P1.y+(P1.size/2)){
200005fc:	200097b7          	lui	a5,0x20009
20000600:	0d078793          	addi	a5,a5,208 # 200090d0 <ball>
20000604:	0047a703          	lw	a4,4(a5)
20000608:	200097b7          	lui	a5,0x20009
2000060c:	0a878793          	addi	a5,a5,168 # 200090a8 <P1>
20000610:	0047a683          	lw	a3,4(a5)
20000614:	200097b7          	lui	a5,0x20009
20000618:	0a878793          	addi	a5,a5,168 # 200090a8 <P1>
2000061c:	00c7a783          	lw	a5,12(a5)
20000620:	01f7d613          	srli	a2,a5,0x1f
20000624:	00f607b3          	add	a5,a2,a5
20000628:	4017d793          	srai	a5,a5,0x1
2000062c:	40f007b3          	neg	a5,a5
20000630:	00f687b3          	add	a5,a3,a5
20000634:	04f74e63          	blt	a4,a5,20000690 <systick_handler+0x2e8>
20000638:	200097b7          	lui	a5,0x20009
2000063c:	0d078793          	addi	a5,a5,208 # 200090d0 <ball>
20000640:	0047a703          	lw	a4,4(a5)
20000644:	200097b7          	lui	a5,0x20009
20000648:	0a878793          	addi	a5,a5,168 # 200090a8 <P1>
2000064c:	0047a683          	lw	a3,4(a5)
20000650:	200097b7          	lui	a5,0x20009
20000654:	0a878793          	addi	a5,a5,168 # 200090a8 <P1>
20000658:	00c7a783          	lw	a5,12(a5)
2000065c:	01f7d613          	srli	a2,a5,0x1f
20000660:	00f607b3          	add	a5,a2,a5
20000664:	4017d793          	srai	a5,a5,0x1
20000668:	00f687b3          	add	a5,a3,a5
2000066c:	02e7c263          	blt	a5,a4,20000690 <systick_handler+0x2e8>
            ball.speed_x = -ball.speed_x;
20000670:	200097b7          	lui	a5,0x20009
20000674:	0d078793          	addi	a5,a5,208 # 200090d0 <ball>
20000678:	0087a783          	lw	a5,8(a5)
2000067c:	40f00733          	neg	a4,a5
20000680:	200097b7          	lui	a5,0x20009
20000684:	0d078793          	addi	a5,a5,208 # 200090d0 <ball>
20000688:	00e7a423          	sw	a4,8(a5)
2000068c:	0240006f          	j	200006b0 <systick_handler+0x308>
        }else{//lose
            P1.score++;
20000690:	200097b7          	lui	a5,0x20009
20000694:	0a878793          	addi	a5,a5,168 # 200090a8 <P1>
20000698:	0107a783          	lw	a5,16(a5)
2000069c:	00178713          	addi	a4,a5,1
200006a0:	200097b7          	lui	a5,0x20009
200006a4:	0a878793          	addi	a5,a5,168 # 200090a8 <P1>
200006a8:	00e7a823          	sw	a4,16(a5)
            resetball();
200006ac:	c89ff0ef          	jal	20000334 <resetball>
        }
    }
    if (ball.y <= ball.size || ball.y >= height - ball.size) {
200006b0:	200097b7          	lui	a5,0x20009
200006b4:	0d078793          	addi	a5,a5,208 # 200090d0 <ball>
200006b8:	0047a703          	lw	a4,4(a5)
200006bc:	200097b7          	lui	a5,0x20009
200006c0:	0d078793          	addi	a5,a5,208 # 200090d0 <ball>
200006c4:	0107a783          	lw	a5,16(a5)
200006c8:	02e7d463          	bge	a5,a4,200006f0 <systick_handler+0x348>
200006cc:	200097b7          	lui	a5,0x20009
200006d0:	0d078793          	addi	a5,a5,208 # 200090d0 <ball>
200006d4:	0047a703          	lw	a4,4(a5)
200006d8:	200097b7          	lui	a5,0x20009
200006dc:	0d078793          	addi	a5,a5,208 # 200090d0 <ball>
200006e0:	0107a783          	lw	a5,16(a5)
200006e4:	13f00693          	li	a3,319
200006e8:	40f687b3          	sub	a5,a3,a5
200006ec:	02f74063          	blt	a4,a5,2000070c <systick_handler+0x364>
        ball.speed_y = -ball.speed_y;
200006f0:	200097b7          	lui	a5,0x20009
200006f4:	0d078793          	addi	a5,a5,208 # 200090d0 <ball>
200006f8:	00c7a783          	lw	a5,12(a5)
200006fc:	40f00733          	neg	a4,a5
20000700:	200097b7          	lui	a5,0x20009
20000704:	0d078793          	addi	a5,a5,208 # 200090d0 <ball>
20000708:	00e7a623          	sw	a4,12(a5)
    }

    // Move
    ball.x += ball.speed_x;
2000070c:	200097b7          	lui	a5,0x20009
20000710:	0d078793          	addi	a5,a5,208 # 200090d0 <ball>
20000714:	0007a703          	lw	a4,0(a5)
20000718:	200097b7          	lui	a5,0x20009
2000071c:	0d078793          	addi	a5,a5,208 # 200090d0 <ball>
20000720:	0087a783          	lw	a5,8(a5)
20000724:	00f70733          	add	a4,a4,a5
20000728:	200097b7          	lui	a5,0x20009
2000072c:	0d078793          	addi	a5,a5,208 # 200090d0 <ball>
20000730:	00e7a023          	sw	a4,0(a5)
    ball.y += ball.speed_y;
20000734:	200097b7          	lui	a5,0x20009
20000738:	0d078793          	addi	a5,a5,208 # 200090d0 <ball>
2000073c:	0047a703          	lw	a4,4(a5)
20000740:	200097b7          	lui	a5,0x20009
20000744:	0d078793          	addi	a5,a5,208 # 200090d0 <ball>
20000748:	00c7a783          	lw	a5,12(a5)
2000074c:	00f70733          	add	a4,a4,a5
20000750:	200097b7          	lui	a5,0x20009
20000754:	0d078793          	addi	a5,a5,208 # 200090d0 <ball>
20000758:	00e7a223          	sw	a4,4(a5)
    P1.y += P1.speed_y;
2000075c:	200097b7          	lui	a5,0x20009
20000760:	0a878793          	addi	a5,a5,168 # 200090a8 <P1>
20000764:	0047a703          	lw	a4,4(a5)
20000768:	200097b7          	lui	a5,0x20009
2000076c:	0a878793          	addi	a5,a5,168 # 200090a8 <P1>
20000770:	0087a783          	lw	a5,8(a5)
20000774:	00f70733          	add	a4,a4,a5
20000778:	200097b7          	lui	a5,0x20009
2000077c:	0a878793          	addi	a5,a5,168 # 200090a8 <P1>
20000780:	00e7a223          	sw	a4,4(a5)
    P2.y += P2.speed_y;
20000784:	200097b7          	lui	a5,0x20009
20000788:	0bc78793          	addi	a5,a5,188 # 200090bc <P2>
2000078c:	0047a703          	lw	a4,4(a5)
20000790:	200097b7          	lui	a5,0x20009
20000794:	0bc78793          	addi	a5,a5,188 # 200090bc <P2>
20000798:	0087a783          	lw	a5,8(a5)
2000079c:	00f70733          	add	a4,a4,a5
200007a0:	200097b7          	lui	a5,0x20009
200007a4:	0bc78793          	addi	a5,a5,188 # 200090bc <P2>
200007a8:	00e7a223          	sw	a4,4(a5)

    //DRAW

    //Paddle for player 1
    tft_rect(P1.x, P1.y, PWidth, P1.size, COLOR_WHITE, 1 );
200007ac:	200097b7          	lui	a5,0x20009
200007b0:	2e47a803          	lw	a6,740(a5) # 200092e4 <tft_rect>
200007b4:	200097b7          	lui	a5,0x20009
200007b8:	0a878793          	addi	a5,a5,168 # 200090a8 <P1>
200007bc:	0007a503          	lw	a0,0(a5)
200007c0:	200097b7          	lui	a5,0x20009
200007c4:	0a878793          	addi	a5,a5,168 # 200090a8 <P1>
200007c8:	0047a583          	lw	a1,4(a5)
200007cc:	200097b7          	lui	a5,0x20009
200007d0:	0a878793          	addi	a5,a5,168 # 200090a8 <P1>
200007d4:	00c7a683          	lw	a3,12(a5)
200007d8:	00100793          	li	a5,1
200007dc:	00010737          	lui	a4,0x10
200007e0:	fff70713          	addi	a4,a4,-1 # ffff <_start-0x1fff0001>
200007e4:	00a00613          	li	a2,10
200007e8:	000800e7          	jalr	a6

    //Paddle for player 2
    tft_rect(P2.x, P2.y, PWidth, P2.size, COLOR_WHITE, 1 );
200007ec:	200097b7          	lui	a5,0x20009
200007f0:	2e47a803          	lw	a6,740(a5) # 200092e4 <tft_rect>
200007f4:	200097b7          	lui	a5,0x20009
200007f8:	0bc78793          	addi	a5,a5,188 # 200090bc <P2>
200007fc:	0007a503          	lw	a0,0(a5)
20000800:	200097b7          	lui	a5,0x20009
20000804:	0bc78793          	addi	a5,a5,188 # 200090bc <P2>
20000808:	0047a583          	lw	a1,4(a5)
2000080c:	200097b7          	lui	a5,0x20009
20000810:	0bc78793          	addi	a5,a5,188 # 200090bc <P2>
20000814:	00c7a683          	lw	a3,12(a5)
20000818:	00100793          	li	a5,1
2000081c:	00010737          	lui	a4,0x10
20000820:	fff70713          	addi	a4,a4,-1 # ffff <_start-0x1fff0001>
20000824:	00a00613          	li	a2,10
20000828:	000800e7          	jalr	a6

    //ball
    tft_ellipse(ball.x, ball.y, ball.size, ball.size, COLOR_WHITE, 1);
2000082c:	200097b7          	lui	a5,0x20009
20000830:	2e07a803          	lw	a6,736(a5) # 200092e0 <tft_ellipse>
20000834:	200097b7          	lui	a5,0x20009
20000838:	0d078793          	addi	a5,a5,208 # 200090d0 <ball>
2000083c:	0007a503          	lw	a0,0(a5)
20000840:	200097b7          	lui	a5,0x20009
20000844:	0d078793          	addi	a5,a5,208 # 200090d0 <ball>
20000848:	0047a583          	lw	a1,4(a5)
2000084c:	200097b7          	lui	a5,0x20009
20000850:	0d078793          	addi	a5,a5,208 # 200090d0 <ball>
20000854:	0107a603          	lw	a2,16(a5)
20000858:	200097b7          	lui	a5,0x20009
2000085c:	0d078793          	addi	a5,a5,208 # 200090d0 <ball>
20000860:	0107a683          	lw	a3,16(a5)
20000864:	00100793          	li	a5,1
20000868:	00010737          	lui	a4,0x10
2000086c:	fff70713          	addi	a4,a4,-1 # ffff <_start-0x1fff0001>
20000870:	000800e7          	jalr	a6
    STK->SR &= ~(1 << 0);
20000874:	e000f7b7          	lui	a5,0xe000f
20000878:	0047a703          	lw	a4,4(a5) # e000f004 <__stack_top+0xc0005100>
2000087c:	e000f7b7          	lui	a5,0xe000f
20000880:	ffe77713          	andi	a4,a4,-2
20000884:	00e7a223          	sw	a4,4(a5) # e000f004 <__stack_top+0xc0005100>

}
20000888:	00000013          	nop
2000088c:	0ac12083          	lw	ra,172(sp)
20000890:	0a412283          	lw	t0,164(sp)
20000894:	00329073          	fscsr	t0
20000898:	0a812283          	lw	t0,168(sp)
2000089c:	0a012303          	lw	t1,160(sp)
200008a0:	09c12383          	lw	t2,156(sp)
200008a4:	09812403          	lw	s0,152(sp)
200008a8:	09412503          	lw	a0,148(sp)
200008ac:	09012583          	lw	a1,144(sp)
200008b0:	08c12603          	lw	a2,140(sp)
200008b4:	08812683          	lw	a3,136(sp)
200008b8:	08412703          	lw	a4,132(sp)
200008bc:	08012783          	lw	a5,128(sp)
200008c0:	07c12803          	lw	a6,124(sp)
200008c4:	07812883          	lw	a7,120(sp)
200008c8:	07412e03          	lw	t3,116(sp)
200008cc:	07012e83          	lw	t4,112(sp)
200008d0:	06c12f03          	lw	t5,108(sp)
200008d4:	06812f83          	lw	t6,104(sp)
200008d8:	04c12007          	flw	ft0,76(sp)
200008dc:	04812087          	flw	ft1,72(sp)
200008e0:	04412107          	flw	ft2,68(sp)
200008e4:	04012187          	flw	ft3,64(sp)
200008e8:	03c12207          	flw	ft4,60(sp)
200008ec:	03812287          	flw	ft5,56(sp)
200008f0:	03412307          	flw	ft6,52(sp)
200008f4:	03012387          	flw	ft7,48(sp)
200008f8:	02c12507          	flw	fa0,44(sp)
200008fc:	02812587          	flw	fa1,40(sp)
20000900:	02412607          	flw	fa2,36(sp)
20000904:	02012687          	flw	fa3,32(sp)
20000908:	01c12707          	flw	fa4,28(sp)
2000090c:	01812787          	flw	fa5,24(sp)
20000910:	01412807          	flw	fa6,20(sp)
20000914:	01012887          	flw	fa7,16(sp)
20000918:	00c12e07          	flw	ft8,12(sp)
2000091c:	00812e87          	flw	ft9,8(sp)
20000920:	00412f07          	flw	ft10,4(sp)
20000924:	00012f87          	flw	ft11,0(sp)
20000928:	0b010113          	addi	sp,sp,176
2000092c:	30200073          	mret

20000930 <exti_handler>:
__attribute__((interrupt("machine")))
void exti_handler() {
20000930:	f4010113          	addi	sp,sp,-192
20000934:	0a112e23          	sw	ra,188(sp)
20000938:	0a512c23          	sw	t0,184(sp)
2000093c:	003022f3          	frcsr	t0
20000940:	0a512a23          	sw	t0,180(sp)
20000944:	0a612823          	sw	t1,176(sp)
20000948:	0a712623          	sw	t2,172(sp)
2000094c:	0a812423          	sw	s0,168(sp)
20000950:	0aa12223          	sw	a0,164(sp)
20000954:	0ab12023          	sw	a1,160(sp)
20000958:	08c12e23          	sw	a2,156(sp)
2000095c:	08d12c23          	sw	a3,152(sp)
20000960:	08e12a23          	sw	a4,148(sp)
20000964:	08f12823          	sw	a5,144(sp)
20000968:	09012623          	sw	a6,140(sp)
2000096c:	09112423          	sw	a7,136(sp)
20000970:	09c12223          	sw	t3,132(sp)
20000974:	09d12023          	sw	t4,128(sp)
20000978:	07e12e23          	sw	t5,124(sp)
2000097c:	07f12c23          	sw	t6,120(sp)
20000980:	04012e27          	fsw	ft0,92(sp)
20000984:	04112c27          	fsw	ft1,88(sp)
20000988:	04212a27          	fsw	ft2,84(sp)
2000098c:	04312827          	fsw	ft3,80(sp)
20000990:	04412627          	fsw	ft4,76(sp)
20000994:	04512427          	fsw	ft5,72(sp)
20000998:	04612227          	fsw	ft6,68(sp)
2000099c:	04712027          	fsw	ft7,64(sp)
200009a0:	02a12e27          	fsw	fa0,60(sp)
200009a4:	02b12c27          	fsw	fa1,56(sp)
200009a8:	02c12a27          	fsw	fa2,52(sp)
200009ac:	02d12827          	fsw	fa3,48(sp)
200009b0:	02e12627          	fsw	fa4,44(sp)
200009b4:	02f12427          	fsw	fa5,40(sp)
200009b8:	03012227          	fsw	fa6,36(sp)
200009bc:	03112027          	fsw	fa7,32(sp)
200009c0:	01c12e27          	fsw	ft8,28(sp)
200009c4:	01d12c27          	fsw	ft9,24(sp)
200009c8:	01e12a27          	fsw	ft10,20(sp)
200009cc:	01f12827          	fsw	ft11,16(sp)
200009d0:	0c010413          	addi	s0,sp,192
    uint8_t key = keypad();
200009d4:	83dff0ef          	jal	20000210 <keypad>
200009d8:	00050793          	mv	a5,a0
200009dc:	f4f407a3          	sb	a5,-177(s0)

    if (key != 0xFF) {
200009e0:	f4f44703          	lbu	a4,-177(s0)
200009e4:	0ff00793          	li	a5,255
200009e8:	08f70c63          	beq	a4,a5,20000a80 <exti_handler+0x150>
        // Key pressed - start tone and show key number (1-16) on bargraph
        if(keybinds[key]=P1DOWN){
200009ec:	f4f44783          	lbu	a5,-177(s0)
200009f0:	20009737          	lui	a4,0x20009
200009f4:	0e470713          	addi	a4,a4,228 # 200090e4 <keybinds>
200009f8:	00279793          	slli	a5,a5,0x2
200009fc:	00f707b3          	add	a5,a4,a5
20000a00:	00200713          	li	a4,2
20000a04:	00e7a023          	sw	a4,0(a5)
            P1.speed_y = PSpeed;
20000a08:	200097b7          	lui	a5,0x20009
20000a0c:	0a878793          	addi	a5,a5,168 # 200090a8 <P1>
20000a10:	00300713          	li	a4,3
20000a14:	00e7a423          	sw	a4,8(a5)
        }else if(keybinds[key]=P2DOWN){
            P2.speed_y = PSpeed;
        }else if(keybinds[key]=P2UP){
            P2.speed_y = -PSpeed;
        }
        GPIOD->ODR = (GPIOD->ODR & 0x00FF) | ((key + 1) << 8); // & 0x00FF preserves pins D0–D7 (keypad pins), then (key + 1) << 8 writes the key number in binary to pins D8–D15 (bargraph)
20000a18:	400117b7          	lui	a5,0x40011
20000a1c:	40078793          	addi	a5,a5,1024 # 40011400 <__stack_top+0x200074fc>
20000a20:	00c7d783          	lhu	a5,12(a5)
20000a24:	01079793          	slli	a5,a5,0x10
20000a28:	0107d793          	srli	a5,a5,0x10
20000a2c:	01079793          	slli	a5,a5,0x10
20000a30:	4107d793          	srai	a5,a5,0x10
20000a34:	0ff7f793          	zext.b	a5,a5
20000a38:	01079713          	slli	a4,a5,0x10
20000a3c:	41075713          	srai	a4,a4,0x10
20000a40:	f4f44783          	lbu	a5,-177(s0)
20000a44:	00178793          	addi	a5,a5,1
20000a48:	01079793          	slli	a5,a5,0x10
20000a4c:	4107d793          	srai	a5,a5,0x10
20000a50:	00879793          	slli	a5,a5,0x8
20000a54:	01079793          	slli	a5,a5,0x10
20000a58:	4107d793          	srai	a5,a5,0x10
20000a5c:	00f767b3          	or	a5,a4,a5
20000a60:	01079713          	slli	a4,a5,0x10
20000a64:	41075713          	srai	a4,a4,0x10
20000a68:	400117b7          	lui	a5,0x40011
20000a6c:	40078793          	addi	a5,a5,1024 # 40011400 <__stack_top+0x200074fc>
20000a70:	01071713          	slli	a4,a4,0x10
20000a74:	01075713          	srli	a4,a4,0x10
20000a78:	00e79623          	sh	a4,12(a5)
    } else {
    // Key released - stop tone and turn off bargraph
  
    GPIOD->ODR = (GPIOD->ODR & 0x00FF);                      
    }
}
20000a7c:	0300006f          	j	20000aac <exti_handler+0x17c>
    GPIOD->ODR = (GPIOD->ODR & 0x00FF);                      
20000a80:	400117b7          	lui	a5,0x40011
20000a84:	40078793          	addi	a5,a5,1024 # 40011400 <__stack_top+0x200074fc>
20000a88:	00c7d783          	lhu	a5,12(a5)
20000a8c:	01079713          	slli	a4,a5,0x10
20000a90:	01075713          	srli	a4,a4,0x10
20000a94:	400117b7          	lui	a5,0x40011
20000a98:	40078793          	addi	a5,a5,1024 # 40011400 <__stack_top+0x200074fc>
20000a9c:	0ff77713          	zext.b	a4,a4
20000aa0:	01071713          	slli	a4,a4,0x10
20000aa4:	01075713          	srli	a4,a4,0x10
20000aa8:	00e79623          	sh	a4,12(a5)
}
20000aac:	00000013          	nop
20000ab0:	0bc12083          	lw	ra,188(sp)
20000ab4:	0b412283          	lw	t0,180(sp)
20000ab8:	00329073          	fscsr	t0
20000abc:	0b812283          	lw	t0,184(sp)
20000ac0:	0b012303          	lw	t1,176(sp)
20000ac4:	0ac12383          	lw	t2,172(sp)
20000ac8:	0a812403          	lw	s0,168(sp)
20000acc:	0a412503          	lw	a0,164(sp)
20000ad0:	0a012583          	lw	a1,160(sp)
20000ad4:	09c12603          	lw	a2,156(sp)
20000ad8:	09812683          	lw	a3,152(sp)
20000adc:	09412703          	lw	a4,148(sp)
20000ae0:	09012783          	lw	a5,144(sp)
20000ae4:	08c12803          	lw	a6,140(sp)
20000ae8:	08812883          	lw	a7,136(sp)
20000aec:	08412e03          	lw	t3,132(sp)
20000af0:	08012e83          	lw	t4,128(sp)
20000af4:	07c12f03          	lw	t5,124(sp)
20000af8:	07812f83          	lw	t6,120(sp)
20000afc:	05c12007          	flw	ft0,92(sp)
20000b00:	05812087          	flw	ft1,88(sp)
20000b04:	05412107          	flw	ft2,84(sp)
20000b08:	05012187          	flw	ft3,80(sp)
20000b0c:	04c12207          	flw	ft4,76(sp)
20000b10:	04812287          	flw	ft5,72(sp)
20000b14:	04412307          	flw	ft6,68(sp)
20000b18:	04012387          	flw	ft7,64(sp)
20000b1c:	03c12507          	flw	fa0,60(sp)
20000b20:	03812587          	flw	fa1,56(sp)
20000b24:	03412607          	flw	fa2,52(sp)
20000b28:	03012687          	flw	fa3,48(sp)
20000b2c:	02c12707          	flw	fa4,44(sp)
20000b30:	02812787          	flw	fa5,40(sp)
20000b34:	02412807          	flw	fa6,36(sp)
20000b38:	02012887          	flw	fa7,32(sp)
20000b3c:	01c12e07          	flw	ft8,28(sp)
20000b40:	01812e87          	flw	ft9,24(sp)
20000b44:	01412f07          	flw	ft10,20(sp)
20000b48:	01012f87          	flw	ft11,16(sp)
20000b4c:	0c010113          	addi	sp,sp,192
20000b50:	30200073          	mret

20000b54 <main>:

int main(void){
20000b54:	ff010113          	addi	sp,sp,-16
20000b58:	00112623          	sw	ra,12(sp)
20000b5c:	00812423          	sw	s0,8(sp)
20000b60:	01010413          	addi	s0,sp,16
    init_gpio();
20000b64:	cd0ff0ef          	jal	20000034 <init_gpio>
    init_vector_table();
20000b68:	148000ef          	jal	20000cb0 <init_vector_table>
    init_interrupts();
20000b6c:	d7cff0ef          	jal	200000e8 <init_interrupts>
    tft_init();
20000b70:	15c000ef          	jal	20000ccc <tft_init>


    tft_rect(0,0,479,319,COLOR_BLUE, 1);
20000b74:	200097b7          	lui	a5,0x20009
20000b78:	2e47a803          	lw	a6,740(a5) # 200092e4 <tft_rect>
20000b7c:	00100793          	li	a5,1
20000b80:	01f00713          	li	a4,31
20000b84:	13f00693          	li	a3,319
20000b88:	1df00613          	li	a2,479
20000b8c:	00000593          	li	a1,0
20000b90:	00000513          	li	a0,0
20000b94:	000800e7          	jalr	a6


    systick_periodic_micro(32000);  // 16000 ~60fps
20000b98:	000087b7          	lui	a5,0x8
20000b9c:	d0078513          	addi	a0,a5,-768 # 7d00 <_start-0x1fff8300>
20000ba0:	00c000ef          	jal	20000bac <systick_periodic_micro>

    

    while(1) {
20000ba4:	00000013          	nop
20000ba8:	ffdff06f          	j	20000ba4 <main+0x50>

20000bac <systick_periodic_micro>:
#include "systick.h"
#include <stdint.h>

void systick_periodic_micro(uint32_t us) {
20000bac:	fe010113          	addi	sp,sp,-32
20000bb0:	00112e23          	sw	ra,28(sp)
20000bb4:	00812c23          	sw	s0,24(sp)
20000bb8:	02010413          	addi	s0,sp,32
20000bbc:	fea42623          	sw	a0,-20(s0)
  STK->CTLR = 0;
20000bc0:	e000f7b7          	lui	a5,0xe000f
20000bc4:	0007a023          	sw	zero,0(a5) # e000f000 <__stack_top+0xc00050fc>
  STK->CMPLR = 144 * us - 1;
20000bc8:	fec42703          	lw	a4,-20(s0)
20000bcc:	00070793          	mv	a5,a4
20000bd0:	00379793          	slli	a5,a5,0x3
20000bd4:	00e787b3          	add	a5,a5,a4
20000bd8:	00479793          	slli	a5,a5,0x4
20000bdc:	00078713          	mv	a4,a5
20000be0:	e000f7b7          	lui	a5,0xe000f
20000be4:	fff70713          	addi	a4,a4,-1
20000be8:	00e7a823          	sw	a4,16(a5) # e000f010 <__stack_top+0xc000510c>
  // - INIT  (bit 5)
  // - STRE  (bit 3)
  // - STCLK (bit 2)
  // - STIE  (bit 1)
  // - STE   (bit 0)
  STK->CTLR = (1 << 5) | (1 << 3) | (1 << 2) | (1 << 1) | (1 << 0);
20000bec:	e000f7b7          	lui	a5,0xe000f
20000bf0:	02f00713          	li	a4,47
20000bf4:	00e7a023          	sw	a4,0(a5) # e000f000 <__stack_top+0xc00050fc>
}
20000bf8:	00000013          	nop
20000bfc:	01c12083          	lw	ra,28(sp)
20000c00:	01812403          	lw	s0,24(sp)
20000c04:	02010113          	addi	sp,sp,32
20000c08:	00008067          	ret

20000c0c <systick_stop>:

void systick_stop() { STK->CTLR = 0; }
20000c0c:	ff010113          	addi	sp,sp,-16
20000c10:	00112623          	sw	ra,12(sp)
20000c14:	00812423          	sw	s0,8(sp)
20000c18:	01010413          	addi	s0,sp,16
20000c1c:	e000f7b7          	lui	a5,0xe000f
20000c20:	0007a023          	sw	zero,0(a5) # e000f000 <__stack_top+0xc00050fc>
20000c24:	00000013          	nop
20000c28:	00c12083          	lw	ra,12(sp)
20000c2c:	00812403          	lw	s0,8(sp)
20000c30:	01010113          	addi	sp,sp,16
20000c34:	00008067          	ret
	...

20000c40 <vector_table>:
	...
# - EXTI2   (IRQ no. 24)
# - EXTI3   (IRQ no. 25)
.align 2
vector_table:
  .org vector_table + 12 * 4
  j systick_handler
20000c70:	f38ff06f          	j	200003a8 <systick_handler>
	...
  .org vector_table + 22 * 4
  j exti_handler
20000c98:	c99ff06f          	j	20000930 <exti_handler>
  .org vector_table + 23 * 4
  j exti_handler
20000c9c:	c95ff06f          	j	20000930 <exti_handler>
  .org vector_table + 24 * 4
  j exti_handler
20000ca0:	c91ff06f          	j	20000930 <exti_handler>
  .org vector_table + 25 * 4
  j exti_handler
20000ca4:	c8dff06f          	j	20000930 <exti_handler>
20000ca8:	00000013          	nop
20000cac:	00000013          	nop

20000cb0 <init_vector_table>:

.align 4
init_vector_table:
  la t0, vector_table
20000cb0:	00000297          	auipc	t0,0x0
20000cb4:	f9028293          	addi	t0,t0,-112 # 20000c40 <vector_table>
  # Use vectored mode (two least significant bits set to 01)
  ori t0, t0, 1
20000cb8:	0012e293          	ori	t0,t0,1
  csrw mtvec, t0
20000cbc:	30529073          	csrw	mtvec,t0
  ret
20000cc0:	00008067          	ret
20000cc4:	00000013          	nop
20000cc8:	00000013          	nop

20000ccc <tft_init>:
void (*tft_line)(int  x1, int y1, int x2, int y2, uint16_t colour);
void (*tft_pixel)(int, int, uint16_t colour);
void (*tft_sprite)(int x, int y, uint16_t *data, int w, int h);

void tft_init()
{
20000ccc:	ff010113          	addi	sp,sp,-16
20000cd0:	00112623          	sw	ra,12(sp)
20000cd4:	00812423          	sw	s0,8(sp)
20000cd8:	01010413          	addi	s0,sp,16
	tft_ellipse = hw_tft_ellipse;
20000cdc:	200097b7          	lui	a5,0x20009
20000ce0:	20002737          	lui	a4,0x20002
20000ce4:	69870713          	addi	a4,a4,1688 # 20002698 <hw_tft_ellipse>
20000ce8:	2ee7a023          	sw	a4,736(a5) # 200092e0 <tft_ellipse>
	tft_rect = hw_tft_rect;
20000cec:	200097b7          	lui	a5,0x20009
20000cf0:	20002737          	lui	a4,0x20002
20000cf4:	53070713          	addi	a4,a4,1328 # 20002530 <hw_tft_rect>
20000cf8:	2ee7a223          	sw	a4,740(a5) # 200092e4 <tft_rect>
	tft_line = hw_tft_line;
20000cfc:	200097b7          	lui	a5,0x20009
20000d00:	20002737          	lui	a4,0x20002
20000d04:	37870713          	addi	a4,a4,888 # 20002378 <hw_tft_line>
20000d08:	2ee7a423          	sw	a4,744(a5) # 200092e8 <tft_line>
	tft_pixel = hw_tft_pixel;
20000d0c:	200097b7          	lui	a5,0x20009
20000d10:	20002737          	lui	a4,0x20002
20000d14:	ec870713          	addi	a4,a4,-312 # 20001ec8 <hw_tft_pixel>
20000d18:	2ee7a623          	sw	a4,748(a5) # 200092ec <tft_pixel>
	tft_sprite = hw_tft_sprite;
20000d1c:	200097b7          	lui	a5,0x20009
20000d20:	20002737          	lui	a4,0x20002
20000d24:	0e070713          	addi	a4,a4,224 # 200020e0 <hw_tft_sprite>
20000d28:	2ee7a823          	sw	a4,752(a5) # 200092f0 <tft_sprite>
	hw_tft_init(1);
20000d2c:	00100513          	li	a0,1
20000d30:	645010ef          	jal	20002b74 <hw_tft_init>
}
20000d34:	00000013          	nop
20000d38:	00c12083          	lw	ra,12(sp)
20000d3c:	00812403          	lw	s0,8(sp)
20000d40:	01010113          	addi	sp,sp,16
20000d44:	00008067          	ret

20000d48 <timer7_delay1ms>:
static void _tft_lcd_direction(int direction);
static void _tft_lcd_fill(uint16_t sx,uint16_t sy,uint16_t ex,uint16_t ey,uint16_t color);

/* Delay functions using TIMER7 */
void timer7_delay1ms(void )
{
20000d48:	ff010113          	addi	sp,sp,-16
20000d4c:	00112623          	sw	ra,12(sp)
20000d50:	00812423          	sw	s0,8(sp)
20000d54:	01010413          	addi	s0,sp,16
	/* System core clock: 144MHz */
	 /* freq: PSC is # of microsecs-1 */
	*TIM7_CTLR1 = 0;
20000d58:	400017b7          	lui	a5,0x40001
20000d5c:	40078793          	addi	a5,a5,1024 # 40001400 <__stack_top+0x1fff74fc>
20000d60:	00079023          	sh	zero,0(a5)
	*TIM7_CTLR2 = 0;
20000d64:	400017b7          	lui	a5,0x40001
20000d68:	40478793          	addi	a5,a5,1028 # 40001404 <__stack_top+0x1fff7500>
20000d6c:	00079023          	sh	zero,0(a5)
	*TIM7_DMAINTENR = 0;
20000d70:	400017b7          	lui	a5,0x40001
20000d74:	40c78793          	addi	a5,a5,1036 # 4000140c <__stack_top+0x1fff7508>
20000d78:	00079023          	sh	zero,0(a5)
	*TIM7_INTFR = 0;
20000d7c:	400017b7          	lui	a5,0x40001
20000d80:	41078793          	addi	a5,a5,1040 # 40001410 <__stack_top+0x1fff750c>
20000d84:	00079023          	sh	zero,0(a5)
	*TIM7_PSC= 143; /* 1 us */
20000d88:	400017b7          	lui	a5,0x40001
20000d8c:	42878793          	addi	a5,a5,1064 # 40001428 <__stack_top+0x1fff7524>
20000d90:	08f00713          	li	a4,143
20000d94:	00e79023          	sh	a4,0(a5)
	*TIM7_ATRLR = 999; /* times 1000  -> 1 ms */
20000d98:	400017b7          	lui	a5,0x40001
20000d9c:	42c78793          	addi	a5,a5,1068 # 4000142c <__stack_top+0x1fff7528>
20000da0:	3e700713          	li	a4,999
20000da4:	00e79023          	sh	a4,0(a5)
	*TIM7_CTLR1 = TIM_CEN;
20000da8:	400017b7          	lui	a5,0x40001
20000dac:	40078793          	addi	a5,a5,1024 # 40001400 <__stack_top+0x1fff74fc>
20000db0:	00100713          	li	a4,1
20000db4:	00e79023          	sh	a4,0(a5)
	while( (*TIM7_INTFR & 1 )==0) {}
20000db8:	00000013          	nop
20000dbc:	400017b7          	lui	a5,0x40001
20000dc0:	41078793          	addi	a5,a5,1040 # 40001410 <__stack_top+0x1fff750c>
20000dc4:	0007d783          	lhu	a5,0(a5)
20000dc8:	01079793          	slli	a5,a5,0x10
20000dcc:	0107d793          	srli	a5,a5,0x10
20000dd0:	0017f793          	andi	a5,a5,1
20000dd4:	fe0784e3          	beqz	a5,20000dbc <timer7_delay1ms+0x74>
	*TIM7_CTLR1 = 0;
20000dd8:	400017b7          	lui	a5,0x40001
20000ddc:	40078793          	addi	a5,a5,1024 # 40001400 <__stack_top+0x1fff74fc>
20000de0:	00079023          	sh	zero,0(a5)
}
20000de4:	00000013          	nop
20000de8:	00c12083          	lw	ra,12(sp)
20000dec:	00812403          	lw	s0,8(sp)
20000df0:	01010113          	addi	sp,sp,16
20000df4:	00008067          	ret

20000df8 <_delay_ms>:
void _delay_ms( unsigned int ms )
{
20000df8:	fe010113          	addi	sp,sp,-32
20000dfc:	00112e23          	sw	ra,28(sp)
20000e00:	00812c23          	sw	s0,24(sp)
20000e04:	02010413          	addi	s0,sp,32
20000e08:	fea42623          	sw	a0,-20(s0)
	while( ms-- )
20000e0c:	0080006f          	j	20000e14 <_delay_ms+0x1c>
		timer7_delay1ms();
20000e10:	f39ff0ef          	jal	20000d48 <timer7_delay1ms>
	while( ms-- )
20000e14:	fec42783          	lw	a5,-20(s0)
20000e18:	fff78713          	addi	a4,a5,-1
20000e1c:	fee42623          	sw	a4,-20(s0)
20000e20:	fe0798e3          	bnez	a5,20000e10 <_delay_ms+0x18>
}
20000e24:	00000013          	nop
20000e28:	00000013          	nop
20000e2c:	01c12083          	lw	ra,28(sp)
20000e30:	01812403          	lw	s0,24(sp)
20000e34:	02010113          	addi	sp,sp,32
20000e38:	00008067          	ret

20000e3c <timer7_delay1us>:

static void timer7_delay1us(void )
{
20000e3c:	ff010113          	addi	sp,sp,-16
20000e40:	00112623          	sw	ra,12(sp)
20000e44:	00812423          	sw	s0,8(sp)
20000e48:	01010413          	addi	s0,sp,16
	/* System core clock: 144MHz */
	 /* freq: PSC is # of microsecs-1 */
	*TIM7_CTLR1 = 0;
20000e4c:	400017b7          	lui	a5,0x40001
20000e50:	40078793          	addi	a5,a5,1024 # 40001400 <__stack_top+0x1fff74fc>
20000e54:	00079023          	sh	zero,0(a5)
	*TIM7_INTFR = 0;
20000e58:	400017b7          	lui	a5,0x40001
20000e5c:	41078793          	addi	a5,a5,1040 # 40001410 <__stack_top+0x1fff750c>
20000e60:	00079023          	sh	zero,0(a5)
	*TIM7_PSC= 0; /* 1 us */
20000e64:	400017b7          	lui	a5,0x40001
20000e68:	42878793          	addi	a5,a5,1064 # 40001428 <__stack_top+0x1fff7524>
20000e6c:	00079023          	sh	zero,0(a5)
	*TIM7_ATRLR = 143; /* 1 us */
20000e70:	400017b7          	lui	a5,0x40001
20000e74:	42c78793          	addi	a5,a5,1068 # 4000142c <__stack_top+0x1fff7528>
20000e78:	08f00713          	li	a4,143
20000e7c:	00e79023          	sh	a4,0(a5)
	*TIM7_CTLR1 = TIM_CEN ;
20000e80:	400017b7          	lui	a5,0x40001
20000e84:	40078793          	addi	a5,a5,1024 # 40001400 <__stack_top+0x1fff74fc>
20000e88:	00100713          	li	a4,1
20000e8c:	00e79023          	sh	a4,0(a5)
	while( (*TIM7_INTFR & 1 )==0) {}
20000e90:	00000013          	nop
20000e94:	400017b7          	lui	a5,0x40001
20000e98:	41078793          	addi	a5,a5,1040 # 40001410 <__stack_top+0x1fff750c>
20000e9c:	0007d783          	lhu	a5,0(a5)
20000ea0:	01079793          	slli	a5,a5,0x10
20000ea4:	0107d793          	srli	a5,a5,0x10
20000ea8:	0017f793          	andi	a5,a5,1
20000eac:	fe0784e3          	beqz	a5,20000e94 <timer7_delay1us+0x58>
	*TIM7_CTLR1 = 0;
20000eb0:	400017b7          	lui	a5,0x40001
20000eb4:	40078793          	addi	a5,a5,1024 # 40001400 <__stack_top+0x1fff74fc>
20000eb8:	00079023          	sh	zero,0(a5)
}
20000ebc:	00000013          	nop
20000ec0:	00c12083          	lw	ra,12(sp)
20000ec4:	00812403          	lw	s0,8(sp)
20000ec8:	01010113          	addi	sp,sp,16
20000ecc:	00008067          	ret

20000ed0 <delay_us>:
void delay_us( unsigned int us )
/* Internal use and global when compile/link 
 * not included as library calls */
{
20000ed0:	fe010113          	addi	sp,sp,-32
20000ed4:	00112e23          	sw	ra,28(sp)
20000ed8:	00812c23          	sw	s0,24(sp)
20000edc:	02010413          	addi	s0,sp,32
20000ee0:	fea42623          	sw	a0,-20(s0)
	while( us-- )
20000ee4:	0080006f          	j	20000eec <delay_us+0x1c>
		timer7_delay1us();
20000ee8:	f55ff0ef          	jal	20000e3c <timer7_delay1us>
	while( us-- )
20000eec:	fec42783          	lw	a5,-20(s0)
20000ef0:	fff78713          	addi	a4,a5,-1
20000ef4:	fee42623          	sw	a4,-20(s0)
20000ef8:	fe0798e3          	bnez	a5,20000ee8 <delay_us+0x18>
}
20000efc:	00000013          	nop
20000f00:	00000013          	nop
20000f04:	01c12083          	lw	ra,28(sp)
20000f08:	01812403          	lw	s0,24(sp)
20000f0c:	02010113          	addi	sp,sp,32
20000f10:	00008067          	ret

20000f14 <timer7_delay250ns>:

static void timer7_delay250ns(void )
{
20000f14:	ff010113          	addi	sp,sp,-16
20000f18:	00112623          	sw	ra,12(sp)
20000f1c:	00812423          	sw	s0,8(sp)
20000f20:	01010413          	addi	s0,sp,16
	/* System core clock: 144MHz */
	 /* freq: PSC is # of microsecs-1 */
	*TIM7_CTLR1 = 0;
20000f24:	400017b7          	lui	a5,0x40001
20000f28:	40078793          	addi	a5,a5,1024 # 40001400 <__stack_top+0x1fff74fc>
20000f2c:	00079023          	sh	zero,0(a5)
	*TIM7_INTFR = 0;
20000f30:	400017b7          	lui	a5,0x40001
20000f34:	41078793          	addi	a5,a5,1040 # 40001410 <__stack_top+0x1fff750c>
20000f38:	00079023          	sh	zero,0(a5)
	*TIM7_PSC= 0; /* 1 us */
20000f3c:	400017b7          	lui	a5,0x40001
20000f40:	42878793          	addi	a5,a5,1064 # 40001428 <__stack_top+0x1fff7524>
20000f44:	00079023          	sh	zero,0(a5)
	*TIM7_ATRLR = 30; /* approx 200 ns */
20000f48:	400017b7          	lui	a5,0x40001
20000f4c:	42c78793          	addi	a5,a5,1068 # 4000142c <__stack_top+0x1fff7528>
20000f50:	01e00713          	li	a4,30
20000f54:	00e79023          	sh	a4,0(a5)
	*TIM7_CTLR1 = TIM_CEN ;
20000f58:	400017b7          	lui	a5,0x40001
20000f5c:	40078793          	addi	a5,a5,1024 # 40001400 <__stack_top+0x1fff74fc>
20000f60:	00100713          	li	a4,1
20000f64:	00e79023          	sh	a4,0(a5)
	while( (*TIM7_INTFR & 1 )==0) {}
20000f68:	00000013          	nop
20000f6c:	400017b7          	lui	a5,0x40001
20000f70:	41078793          	addi	a5,a5,1040 # 40001410 <__stack_top+0x1fff750c>
20000f74:	0007d783          	lhu	a5,0(a5)
20000f78:	01079793          	slli	a5,a5,0x10
20000f7c:	0107d793          	srli	a5,a5,0x10
20000f80:	0017f793          	andi	a5,a5,1
20000f84:	fe0784e3          	beqz	a5,20000f6c <timer7_delay250ns+0x58>
	*TIM7_CTLR1 = 0;
20000f88:	400017b7          	lui	a5,0x40001
20000f8c:	40078793          	addi	a5,a5,1024 # 40001400 <__stack_top+0x1fff74fc>
20000f90:	00079023          	sh	zero,0(a5)
}
20000f94:	00000013          	nop
20000f98:	00c12083          	lw	ra,12(sp)
20000f9c:	00812403          	lw	s0,8(sp)
20000fa0:	01010113          	addi	sp,sp,16
20000fa4:	00008067          	ret

20000fa8 <delay_250ns>:
void delay_250ns( void )
/* Internal use and global when compile/link 
 * not included as library calls */
{
20000fa8:	ff010113          	addi	sp,sp,-16
20000fac:	00112623          	sw	ra,12(sp)
20000fb0:	00812423          	sw	s0,8(sp)
20000fb4:	01010413          	addi	s0,sp,16
	timer7_delay250ns();
20000fb8:	f5dff0ef          	jal	20000f14 <timer7_delay250ns>
}
20000fbc:	00000013          	nop
20000fc0:	00c12083          	lw	ra,12(sp)
20000fc4:	00812403          	lw	s0,8(sp)
20000fc8:	01010113          	addi	sp,sp,16
20000fcc:	00008067          	ret

20000fd0 <tft_display_init>:

/* Initialize the tft display interface */ 
static void tft_display_init(void)	
{	
20000fd0:	ff010113          	addi	sp,sp,-16
20000fd4:	00112623          	sw	ra,12(sp)
20000fd8:	00812423          	sw	s0,8(sp)
20000fdc:	01010413          	addi	s0,sp,16
	/* Setup GPIO pins for the wiring interface (LCD and SPI) */
 	/* Enable clocks */
	*RCC_APB2PCENR |= ((SPI1EN)|(IOPBEN)|(IOPAEN)|(AFIOEN));	
20000fe0:	400217b7          	lui	a5,0x40021
20000fe4:	01878793          	addi	a5,a5,24 # 40021018 <__stack_top+0x20017114>
20000fe8:	0007a683          	lw	a3,0(a5)
20000fec:	400217b7          	lui	a5,0x40021
20000ff0:	01878793          	addi	a5,a5,24 # 40021018 <__stack_top+0x20017114>
20000ff4:	00001737          	lui	a4,0x1
20000ff8:	00d70713          	addi	a4,a4,13 # 100d <_start-0x1fffeff3>
20000ffc:	00e6e733          	or	a4,a3,a4
20001000:	00e7a023          	sw	a4,0(a5)
	*RCC_APB2PRSTR |= ((SPI1EN)|(IOPBEN)|(IOPAEN)|(AFIOEN));	/* Assert RESET */
20001004:	400217b7          	lui	a5,0x40021
20001008:	00c78793          	addi	a5,a5,12 # 4002100c <__stack_top+0x20017108>
2000100c:	0007a683          	lw	a3,0(a5)
20001010:	400217b7          	lui	a5,0x40021
20001014:	00c78793          	addi	a5,a5,12 # 4002100c <__stack_top+0x20017108>
20001018:	00001737          	lui	a4,0x1
2000101c:	00d70713          	addi	a4,a4,13 # 100d <_start-0x1fffeff3>
20001020:	00e6e733          	or	a4,a3,a4
20001024:	00e7a023          	sw	a4,0(a5)
	*RCC_APB2PRSTR &= ~((SPI1EN)|(IOPBEN)|(IOPAEN)|(AFIOEN));	/* Release RESET */
20001028:	400217b7          	lui	a5,0x40021
2000102c:	00c78793          	addi	a5,a5,12 # 4002100c <__stack_top+0x20017108>
20001030:	0007a683          	lw	a3,0(a5)
20001034:	400217b7          	lui	a5,0x40021
20001038:	00c78793          	addi	a5,a5,12 # 4002100c <__stack_top+0x20017108>
2000103c:	fffff737          	lui	a4,0xfffff
20001040:	ff270713          	addi	a4,a4,-14 # ffffeff2 <__stack_top+0xdfff50ee>
20001044:	00e6f733          	and	a4,a3,a4
20001048:	00e7a023          	sw	a4,0(a5)

	/* Set up GPIO pins in port B for LED control signals */	
	*GPIO_CFGHR(GPIO_B) &= 0x0000FFFF;	/* Setup PB12-15  as output, push/pull */
2000104c:	400117b7          	lui	a5,0x40011
20001050:	c0478793          	addi	a5,a5,-1020 # 40010c04 <__stack_top+0x20006d00>
20001054:	0007a703          	lw	a4,0(a5)
20001058:	400117b7          	lui	a5,0x40011
2000105c:	c0478793          	addi	a5,a5,-1020 # 40010c04 <__stack_top+0x20006d00>
20001060:	01071713          	slli	a4,a4,0x10
20001064:	01075713          	srli	a4,a4,0x10
20001068:	00e7a023          	sw	a4,0(a5)
	*GPIO_CFGHR(GPIO_B) |= 0x33330000;	
2000106c:	400117b7          	lui	a5,0x40011
20001070:	c0478793          	addi	a5,a5,-1020 # 40010c04 <__stack_top+0x20006d00>
20001074:	0007a683          	lw	a3,0(a5)
20001078:	400117b7          	lui	a5,0x40011
2000107c:	c0478793          	addi	a5,a5,-1020 # 40010c04 <__stack_top+0x20006d00>
20001080:	33330737          	lui	a4,0x33330
20001084:	00e6e733          	or	a4,a3,a4
20001088:	00e7a023          	sw	a4,0(a5)
 /* Set up GPIO pins in port A for SPI
		PA5 = SCK
		PA6 = MISO
		PA7 = MOSI 
 */
	*GPIO_CFGLR(GPIO_A) &= 0x000FFFFF;	
2000108c:	400117b7          	lui	a5,0x40011
20001090:	80078793          	addi	a5,a5,-2048 # 40010800 <__stack_top+0x200068fc>
20001094:	0007a683          	lw	a3,0(a5)
20001098:	400117b7          	lui	a5,0x40011
2000109c:	80078793          	addi	a5,a5,-2048 # 40010800 <__stack_top+0x200068fc>
200010a0:	00100737          	lui	a4,0x100
200010a4:	fff70713          	addi	a4,a4,-1 # fffff <_start-0x1ff00001>
200010a8:	00e6f733          	and	a4,a3,a4
200010ac:	00e7a023          	sw	a4,0(a5)
	*GPIO_CFGLR(GPIO_A) |= 0xB4B00000;	/* PA5,7 is AF PUSH PULL */
200010b0:	400117b7          	lui	a5,0x40011
200010b4:	80078793          	addi	a5,a5,-2048 # 40010800 <__stack_top+0x200068fc>
200010b8:	0007a683          	lw	a3,0(a5)
200010bc:	400117b7          	lui	a5,0x40011
200010c0:	80078793          	addi	a5,a5,-2048 # 40010800 <__stack_top+0x200068fc>
200010c4:	b4b00737          	lui	a4,0xb4b00
200010c8:	00e6e733          	or	a4,a3,a4
200010cc:	00e7a023          	sw	a4,0(a5)
	*GPIO_OUTDR(GPIO_A) |= (1<<6);			/* PA6 is Pullup */
200010d0:	400117b7          	lui	a5,0x40011
200010d4:	80c78793          	addi	a5,a5,-2036 # 4001080c <__stack_top+0x20006908>
200010d8:	0007d783          	lhu	a5,0(a5)
200010dc:	01079713          	slli	a4,a5,0x10
200010e0:	01075713          	srli	a4,a4,0x10
200010e4:	400117b7          	lui	a5,0x40011
200010e8:	80c78793          	addi	a5,a5,-2036 # 4001080c <__stack_top+0x20006908>
200010ec:	04076713          	ori	a4,a4,64
200010f0:	01071713          	slli	a4,a4,0x10
200010f4:	01075713          	srli	a4,a4,0x10
200010f8:	00e79023          	sh	a4,0(a5)

/* Calm hardware */
	LCD_CS_SET;
200010fc:	400117b7          	lui	a5,0x40011
20001100:	c0c78793          	addi	a5,a5,-1012 # 40010c0c <__stack_top+0x20006d08>
20001104:	0007d783          	lhu	a5,0(a5)
20001108:	01079693          	slli	a3,a5,0x10
2000110c:	0106d693          	srli	a3,a3,0x10
20001110:	400117b7          	lui	a5,0x40011
20001114:	c0c78793          	addi	a5,a5,-1012 # 40010c0c <__stack_top+0x20006d08>
20001118:	ffff8737          	lui	a4,0xffff8
2000111c:	00e6e733          	or	a4,a3,a4
20001120:	01071713          	slli	a4,a4,0x10
20001124:	01075713          	srli	a4,a4,0x10
20001128:	00e79023          	sh	a4,0(a5)
	LCD_RST_SET;
2000112c:	400117b7          	lui	a5,0x40011
20001130:	c0c78793          	addi	a5,a5,-1012 # 40010c0c <__stack_top+0x20006d08>
20001134:	0007d783          	lhu	a5,0(a5)
20001138:	01079693          	slli	a3,a5,0x10
2000113c:	0106d693          	srli	a3,a3,0x10
20001140:	400117b7          	lui	a5,0x40011
20001144:	c0c78793          	addi	a5,a5,-1012 # 40010c0c <__stack_top+0x20006d08>
20001148:	00001737          	lui	a4,0x1
2000114c:	00e6e733          	or	a4,a3,a4
20001150:	01071713          	slli	a4,a4,0x10
20001154:	01075713          	srli	a4,a4,0x10
20001158:	00e79023          	sh	a4,0(a5)
#define FPCLK_DIV_32	(4<<3)
#define FPCLK_DIV_64	(5<<3)
#define FPCLK_DIV_128	(6<<3)
#define FPCLK_DIV_256	(7<<3)

	SPI1->cr1 = 0;
2000115c:	400137b7          	lui	a5,0x40013
20001160:	00079023          	sh	zero,0(a5) # 40013000 <__stack_top+0x200090fc>
	SPI1->cr2 = 0;
20001164:	400137b7          	lui	a5,0x40013
20001168:	00079223          	sh	zero,4(a5) # 40013004 <__stack_top+0x20009100>

	SPI1->cr1 =  MSTR|SSI|SSM|FPCLK_DIV_4;
2000116c:	400137b7          	lui	a5,0x40013
20001170:	30c00713          	li	a4,780
20001174:	00e79023          	sh	a4,0(a5) # 40013000 <__stack_top+0x200090fc>

	SPI1->i2scfgr = 0; 
20001178:	400137b7          	lui	a5,0x40013
2000117c:	00079e23          	sh	zero,28(a5) # 4001301c <__stack_top+0x20009118>
	SPI1->crcpr = 7;
20001180:	400137b7          	lui	a5,0x40013
20001184:	00700713          	li	a4,7
20001188:	00e79823          	sh	a4,16(a5) # 40013010 <__stack_top+0x2000910c>
	
	SPI1->cr1 |=  SPIENABLE;
2000118c:	400137b7          	lui	a5,0x40013
20001190:	0007d783          	lhu	a5,0(a5) # 40013000 <__stack_top+0x200090fc>
20001194:	01079713          	slli	a4,a5,0x10
20001198:	01075713          	srli	a4,a4,0x10
2000119c:	400137b7          	lui	a5,0x40013
200011a0:	04076713          	ori	a4,a4,64
200011a4:	01071713          	slli	a4,a4,0x10
200011a8:	01075713          	srli	a4,a4,0x10
200011ac:	00e79023          	sh	a4,0(a5) # 40013000 <__stack_top+0x200090fc>
		
	lcddev.width = 0;			
200011b0:	200097b7          	lui	a5,0x20009
200011b4:	18078793          	addi	a5,a5,384 # 20009180 <lcddev>
200011b8:	00079023          	sh	zero,0(a5)
	lcddev.height= 0;				
200011bc:	200097b7          	lui	a5,0x20009
200011c0:	18078793          	addi	a5,a5,384 # 20009180 <lcddev>
200011c4:	00079123          	sh	zero,2(a5)
	lcddev.id= 0;					
200011c8:	200097b7          	lui	a5,0x20009
200011cc:	18078793          	addi	a5,a5,384 # 20009180 <lcddev>
200011d0:	00079223          	sh	zero,4(a5)
	lcddev.dir= 0;					
200011d4:	200097b7          	lui	a5,0x20009
200011d8:	18078793          	addi	a5,a5,384 # 20009180 <lcddev>
200011dc:	00078323          	sb	zero,6(a5)
	lcddev.wramcmd= 0;		
200011e0:	200097b7          	lui	a5,0x20009
200011e4:	18078793          	addi	a5,a5,384 # 20009180 <lcddev>
200011e8:	00079423          	sh	zero,8(a5)
	lcddev.setxcmd= 0;			
200011ec:	200097b7          	lui	a5,0x20009
200011f0:	18078793          	addi	a5,a5,384 # 20009180 <lcddev>
200011f4:	00079523          	sh	zero,10(a5)
	lcddev.setycmd= 0;			
200011f8:	200097b7          	lui	a5,0x20009
200011fc:	18078793          	addi	a5,a5,384 # 20009180 <lcddev>
20001200:	00079623          	sh	zero,12(a5)
}
20001204:	00000013          	nop
20001208:	00c12083          	lw	ra,12(sp)
2000120c:	00812403          	lw	s0,8(sp)
20001210:	01010113          	addi	sp,sp,16
20001214:	00008067          	ret

20001218 <SPI_WriteByte>:


static uint8_t SPI_WriteByte(PSPI_WCH_DEVICE SPIx, uint8_t byte)
{
20001218:	fd010113          	addi	sp,sp,-48
2000121c:	02112623          	sw	ra,44(sp)
20001220:	02812423          	sw	s0,40(sp)
20001224:	03010413          	addi	s0,sp,48
20001228:	fca42e23          	sw	a0,-36(s0)
2000122c:	00058793          	mv	a5,a1
20001230:	fcf40da3          	sb	a5,-37(s0)
	uint16_t s=0;;
20001234:	fe041723          	sh	zero,-18(s0)
	while(1)
	{
		s = SPIx->sr;  	/* Wait for TXE */
20001238:	fdc42783          	lw	a5,-36(s0)
2000123c:	0087d783          	lhu	a5,8(a5)
20001240:	fef41723          	sh	a5,-18(s0)
		if( s & 2 )break;
20001244:	fee45783          	lhu	a5,-18(s0)
20001248:	0027f793          	andi	a5,a5,2
2000124c:	00079463          	bnez	a5,20001254 <SPI_WriteByte+0x3c>
		s = SPIx->sr;  	/* Wait for TXE */
20001250:	fe9ff06f          	j	20001238 <SPI_WriteByte+0x20>
		if( s & 2 )break;
20001254:	00000013          	nop
	}
	SPIx->dr= (uint8_t) byte;	 	/* Send byte */
20001258:	fdb44783          	lbu	a5,-37(s0)
2000125c:	01079713          	slli	a4,a5,0x10
20001260:	01075713          	srli	a4,a4,0x10
20001264:	fdc42783          	lw	a5,-36(s0)
20001268:	00e79623          	sh	a4,12(a5)
	while(1)
	{
		s = SPIx->sr;  	/* Wait for RXE */
2000126c:	fdc42783          	lw	a5,-36(s0)
20001270:	0087d783          	lhu	a5,8(a5)
20001274:	fef41723          	sh	a5,-18(s0)
		if( s & 1)break;
20001278:	fee45783          	lhu	a5,-18(s0)
2000127c:	0017f793          	andi	a5,a5,1
20001280:	00079463          	bnez	a5,20001288 <SPI_WriteByte+0x70>
		s = SPIx->sr;  	/* Wait for RXE */
20001284:	fe9ff06f          	j	2000126c <SPI_WriteByte+0x54>
		if( s & 1)break;
20001288:	00000013          	nop
	}
	return (uint8_t) SPIx->dr;
2000128c:	fdc42783          	lw	a5,-36(s0)
20001290:	00c7d783          	lhu	a5,12(a5)
20001294:	01079793          	slli	a5,a5,0x10
20001298:	0107d793          	srli	a5,a5,0x10
2000129c:	0ff7f793          	zext.b	a5,a5
} 
200012a0:	00078513          	mv	a0,a5
200012a4:	02c12083          	lw	ra,44(sp)
200012a8:	02812403          	lw	s0,40(sp)
200012ac:	03010113          	addi	sp,sp,48
200012b0:	00008067          	ret

200012b4 <SPI_WriteByteOnly>:

/* Write-only variant: waits for TXE then loads next byte immediately.
 * Drains RXNE non-blocking to prevent overflow flag.
 * Call SPI_WaitDone() after the last byte before raising CS. */
static void SPI_WriteByteOnly(PSPI_WCH_DEVICE SPIx, uint8_t byte)
{
200012b4:	fe010113          	addi	sp,sp,-32
200012b8:	00112e23          	sw	ra,28(sp)
200012bc:	00812c23          	sw	s0,24(sp)
200012c0:	02010413          	addi	s0,sp,32
200012c4:	fea42623          	sw	a0,-20(s0)
200012c8:	00058793          	mv	a5,a1
200012cc:	fef405a3          	sb	a5,-21(s0)
	while(!(SPIx->sr & 2));         /* Wait for TXE */
200012d0:	00000013          	nop
200012d4:	fec42783          	lw	a5,-20(s0)
200012d8:	0087d783          	lhu	a5,8(a5)
200012dc:	01079793          	slli	a5,a5,0x10
200012e0:	0107d793          	srli	a5,a5,0x10
200012e4:	0027f793          	andi	a5,a5,2
200012e8:	fe0786e3          	beqz	a5,200012d4 <SPI_WriteByteOnly+0x20>
	SPIx->dr = byte;
200012ec:	feb44783          	lbu	a5,-21(s0)
200012f0:	01079713          	slli	a4,a5,0x10
200012f4:	01075713          	srli	a4,a4,0x10
200012f8:	fec42783          	lw	a5,-20(s0)
200012fc:	00e79623          	sh	a4,12(a5)
	if(SPIx->sr & 1) (void)SPIx->dr; /* Drain RX if ready (non-blocking) */
20001300:	fec42783          	lw	a5,-20(s0)
20001304:	0087d783          	lhu	a5,8(a5)
20001308:	01079793          	slli	a5,a5,0x10
2000130c:	0107d793          	srli	a5,a5,0x10
20001310:	0017f793          	andi	a5,a5,1
20001314:	00078663          	beqz	a5,20001320 <SPI_WriteByteOnly+0x6c>
20001318:	fec42783          	lw	a5,-20(s0)
2000131c:	00c7d783          	lhu	a5,12(a5)
}
20001320:	00000013          	nop
20001324:	01c12083          	lw	ra,28(sp)
20001328:	01812403          	lw	s0,24(sp)
2000132c:	02010113          	addi	sp,sp,32
20001330:	00008067          	ret

20001334 <SPI_WaitDone>:

/* Wait for the shift register to finish and drain the final RX byte.
 * Must be called after the last SPI_WriteByteOnly before raising CS. */
static void SPI_WaitDone(PSPI_WCH_DEVICE SPIx)
{
20001334:	fe010113          	addi	sp,sp,-32
20001338:	00112e23          	sw	ra,28(sp)
2000133c:	00812c23          	sw	s0,24(sp)
20001340:	02010413          	addi	s0,sp,32
20001344:	fea42623          	sw	a0,-20(s0)
	while(SPIx->sr & (1<<7));       /* Wait for BSY = 0 */
20001348:	00000013          	nop
2000134c:	fec42783          	lw	a5,-20(s0)
20001350:	0087d783          	lhu	a5,8(a5)
20001354:	01079793          	slli	a5,a5,0x10
20001358:	0107d793          	srli	a5,a5,0x10
2000135c:	0807f793          	andi	a5,a5,128
20001360:	fe0796e3          	bnez	a5,2000134c <SPI_WaitDone+0x18>
	if(SPIx->sr & 1) (void)SPIx->dr; /* Drain final RX byte */
20001364:	fec42783          	lw	a5,-20(s0)
20001368:	0087d783          	lhu	a5,8(a5)
2000136c:	01079793          	slli	a5,a5,0x10
20001370:	0107d793          	srli	a5,a5,0x10
20001374:	0017f793          	andi	a5,a5,1
20001378:	00078663          	beqz	a5,20001384 <SPI_WaitDone+0x50>
2000137c:	fec42783          	lw	a5,-20(s0)
20001380:	00c7d783          	lhu	a5,12(a5)
}
20001384:	00000013          	nop
20001388:	01c12083          	lw	ra,28(sp)
2000138c:	01812403          	lw	s0,24(sp)
20001390:	02010113          	addi	sp,sp,32
20001394:	00008067          	ret

20001398 <lcd_write_register>:



/* Write an 8-bit command to the LCD screen */
static void lcd_write_register(uint8_t data)
{ 
20001398:	fe010113          	addi	sp,sp,-32
2000139c:	00112e23          	sw	ra,28(sp)
200013a0:	00812c23          	sw	s0,24(sp)
200013a4:	02010413          	addi	s0,sp,32
200013a8:	00050793          	mv	a5,a0
200013ac:	fef407a3          	sb	a5,-17(s0)
	LCD_CS_CLR;     
200013b0:	400117b7          	lui	a5,0x40011
200013b4:	c0c78793          	addi	a5,a5,-1012 # 40010c0c <__stack_top+0x20006d08>
200013b8:	0007d783          	lhu	a5,0(a5)
200013bc:	01079693          	slli	a3,a5,0x10
200013c0:	0106d693          	srli	a3,a3,0x10
200013c4:	400117b7          	lui	a5,0x40011
200013c8:	c0c78793          	addi	a5,a5,-1012 # 40010c0c <__stack_top+0x20006d08>
200013cc:	00008737          	lui	a4,0x8
200013d0:	fff70713          	addi	a4,a4,-1 # 7fff <_start-0x1fff8001>
200013d4:	00e6f733          	and	a4,a3,a4
200013d8:	01071713          	slli	a4,a4,0x10
200013dc:	01075713          	srli	a4,a4,0x10
200013e0:	00e79023          	sh	a4,0(a5)
	LCD_RS_CLR;	  
200013e4:	400117b7          	lui	a5,0x40011
200013e8:	c0c78793          	addi	a5,a5,-1012 # 40010c0c <__stack_top+0x20006d08>
200013ec:	0007d783          	lhu	a5,0(a5)
200013f0:	01079693          	slli	a3,a5,0x10
200013f4:	0106d693          	srli	a3,a3,0x10
200013f8:	400117b7          	lui	a5,0x40011
200013fc:	c0c78793          	addi	a5,a5,-1012 # 40010c0c <__stack_top+0x20006d08>
20001400:	ffffc737          	lui	a4,0xffffc
20001404:	fff70713          	addi	a4,a4,-1 # ffffbfff <__stack_top+0xdfff20fb>
20001408:	00e6f733          	and	a4,a3,a4
2000140c:	01071713          	slli	a4,a4,0x10
20001410:	01075713          	srli	a4,a4,0x10
20001414:	00e79023          	sh	a4,0(a5)
	SPI_WriteByte(SPI1,data);
20001418:	fef44783          	lbu	a5,-17(s0)
2000141c:	00078593          	mv	a1,a5
20001420:	40013537          	lui	a0,0x40013
20001424:	df5ff0ef          	jal	20001218 <SPI_WriteByte>
	LCD_CS_SET;	
20001428:	400117b7          	lui	a5,0x40011
2000142c:	c0c78793          	addi	a5,a5,-1012 # 40010c0c <__stack_top+0x20006d08>
20001430:	0007d783          	lhu	a5,0(a5)
20001434:	01079693          	slli	a3,a5,0x10
20001438:	0106d693          	srli	a3,a3,0x10
2000143c:	400117b7          	lui	a5,0x40011
20001440:	c0c78793          	addi	a5,a5,-1012 # 40010c0c <__stack_top+0x20006d08>
20001444:	ffff8737          	lui	a4,0xffff8
20001448:	00e6e733          	or	a4,a3,a4
2000144c:	01071713          	slli	a4,a4,0x10
20001450:	01075713          	srli	a4,a4,0x10
20001454:	00e79023          	sh	a4,0(a5)
}
20001458:	00000013          	nop
2000145c:	01c12083          	lw	ra,28(sp)
20001460:	01812403          	lw	s0,24(sp)
20001464:	02010113          	addi	sp,sp,32
20001468:	00008067          	ret

2000146c <lcd_write_data>:

/* Write an 8-bit data to the LCD screen */
static void lcd_write_data(uint8_t data)
{
2000146c:	fe010113          	addi	sp,sp,-32
20001470:	00112e23          	sw	ra,28(sp)
20001474:	00812c23          	sw	s0,24(sp)
20001478:	02010413          	addi	s0,sp,32
2000147c:	00050793          	mv	a5,a0
20001480:	fef407a3          	sb	a5,-17(s0)
	LCD_CS_CLR;
20001484:	400117b7          	lui	a5,0x40011
20001488:	c0c78793          	addi	a5,a5,-1012 # 40010c0c <__stack_top+0x20006d08>
2000148c:	0007d783          	lhu	a5,0(a5)
20001490:	01079693          	slli	a3,a5,0x10
20001494:	0106d693          	srli	a3,a3,0x10
20001498:	400117b7          	lui	a5,0x40011
2000149c:	c0c78793          	addi	a5,a5,-1012 # 40010c0c <__stack_top+0x20006d08>
200014a0:	00008737          	lui	a4,0x8
200014a4:	fff70713          	addi	a4,a4,-1 # 7fff <_start-0x1fff8001>
200014a8:	00e6f733          	and	a4,a3,a4
200014ac:	01071713          	slli	a4,a4,0x10
200014b0:	01075713          	srli	a4,a4,0x10
200014b4:	00e79023          	sh	a4,0(a5)
	LCD_RS_SET;
200014b8:	400117b7          	lui	a5,0x40011
200014bc:	c0c78793          	addi	a5,a5,-1012 # 40010c0c <__stack_top+0x20006d08>
200014c0:	0007d783          	lhu	a5,0(a5)
200014c4:	01079693          	slli	a3,a5,0x10
200014c8:	0106d693          	srli	a3,a3,0x10
200014cc:	400117b7          	lui	a5,0x40011
200014d0:	c0c78793          	addi	a5,a5,-1012 # 40010c0c <__stack_top+0x20006d08>
200014d4:	00004737          	lui	a4,0x4
200014d8:	00e6e733          	or	a4,a3,a4
200014dc:	01071713          	slli	a4,a4,0x10
200014e0:	01075713          	srli	a4,a4,0x10
200014e4:	00e79023          	sh	a4,0(a5)
	SPI_WriteByte(SPI1,data);
200014e8:	fef44783          	lbu	a5,-17(s0)
200014ec:	00078593          	mv	a1,a5
200014f0:	40013537          	lui	a0,0x40013
200014f4:	d25ff0ef          	jal	20001218 <SPI_WriteByte>
	LCD_CS_SET;
200014f8:	400117b7          	lui	a5,0x40011
200014fc:	c0c78793          	addi	a5,a5,-1012 # 40010c0c <__stack_top+0x20006d08>
20001500:	0007d783          	lhu	a5,0(a5)
20001504:	01079693          	slli	a3,a5,0x10
20001508:	0106d693          	srli	a3,a3,0x10
2000150c:	400117b7          	lui	a5,0x40011
20001510:	c0c78793          	addi	a5,a5,-1012 # 40010c0c <__stack_top+0x20006d08>
20001514:	ffff8737          	lui	a4,0xffff8
20001518:	00e6e733          	or	a4,a3,a4
2000151c:	01071713          	slli	a4,a4,0x10
20001520:	01075713          	srli	a4,a4,0x10
20001524:	00e79023          	sh	a4,0(a5)
}
20001528:	00000013          	nop
2000152c:	01c12083          	lw	ra,28(sp)
20001530:	01812403          	lw	s0,24(sp)
20001534:	02010113          	addi	sp,sp,32
20001538:	00008067          	ret

2000153c <_lcd_write_16bit_data>:

/* Write 16-bit data to the LCD screen */	 
static void _lcd_write_16bit_data(uint16_t Data)
{	
2000153c:	fe010113          	addi	sp,sp,-32
20001540:	00112e23          	sw	ra,28(sp)
20001544:	00812c23          	sw	s0,24(sp)
20001548:	02010413          	addi	s0,sp,32
2000154c:	00050793          	mv	a5,a0
20001550:	fef41723          	sh	a5,-18(s0)
	LCD_CS_CLR;
20001554:	400117b7          	lui	a5,0x40011
20001558:	c0c78793          	addi	a5,a5,-1012 # 40010c0c <__stack_top+0x20006d08>
2000155c:	0007d783          	lhu	a5,0(a5)
20001560:	01079693          	slli	a3,a5,0x10
20001564:	0106d693          	srli	a3,a3,0x10
20001568:	400117b7          	lui	a5,0x40011
2000156c:	c0c78793          	addi	a5,a5,-1012 # 40010c0c <__stack_top+0x20006d08>
20001570:	00008737          	lui	a4,0x8
20001574:	fff70713          	addi	a4,a4,-1 # 7fff <_start-0x1fff8001>
20001578:	00e6f733          	and	a4,a3,a4
2000157c:	01071713          	slli	a4,a4,0x10
20001580:	01075713          	srli	a4,a4,0x10
20001584:	00e79023          	sh	a4,0(a5)
	LCD_RS_SET;
20001588:	400117b7          	lui	a5,0x40011
2000158c:	c0c78793          	addi	a5,a5,-1012 # 40010c0c <__stack_top+0x20006d08>
20001590:	0007d783          	lhu	a5,0(a5)
20001594:	01079693          	slli	a3,a5,0x10
20001598:	0106d693          	srli	a3,a3,0x10
2000159c:	400117b7          	lui	a5,0x40011
200015a0:	c0c78793          	addi	a5,a5,-1012 # 40010c0c <__stack_top+0x20006d08>
200015a4:	00004737          	lui	a4,0x4
200015a8:	00e6e733          	or	a4,a3,a4
200015ac:	01071713          	slli	a4,a4,0x10
200015b0:	01075713          	srli	a4,a4,0x10
200015b4:	00e79023          	sh	a4,0(a5)
	if( _option & TFT_INIT_ST7796S)
200015b8:	200097b7          	lui	a5,0x20009
200015bc:	1907a783          	lw	a5,400(a5) # 20009190 <_option>
200015c0:	0027f793          	andi	a5,a5,2
200015c4:	02078e63          	beqz	a5,20001600 <_lcd_write_16bit_data+0xc4>
	{
		SPI_WriteByte(SPI1,Data>>8);
200015c8:	fee45783          	lhu	a5,-18(s0)
200015cc:	0087d793          	srli	a5,a5,0x8
200015d0:	01079793          	slli	a5,a5,0x10
200015d4:	0107d793          	srli	a5,a5,0x10
200015d8:	0ff7f793          	zext.b	a5,a5
200015dc:	00078593          	mv	a1,a5
200015e0:	40013537          	lui	a0,0x40013
200015e4:	c35ff0ef          	jal	20001218 <SPI_WriteByte>
		SPI_WriteByte(SPI1,Data);
200015e8:	fee45783          	lhu	a5,-18(s0)
200015ec:	0ff7f793          	zext.b	a5,a5
200015f0:	00078593          	mv	a1,a5
200015f4:	40013537          	lui	a0,0x40013
200015f8:	c21ff0ef          	jal	20001218 <SPI_WriteByte>
200015fc:	0800006f          	j	2000167c <_lcd_write_16bit_data+0x140>
	}
	else if( _option & TFT_INIT_ILI9488)
20001600:	200097b7          	lui	a5,0x20009
20001604:	1907a783          	lw	a5,400(a5) # 20009190 <_option>
20001608:	0017f793          	andi	a5,a5,1
2000160c:	06078863          	beqz	a5,2000167c <_lcd_write_16bit_data+0x140>
	{
		SPI_WriteByte(SPI1,(Data>>8)&0xF8);
20001610:	fee45783          	lhu	a5,-18(s0)
20001614:	0087d793          	srli	a5,a5,0x8
20001618:	01079793          	slli	a5,a5,0x10
2000161c:	0107d793          	srli	a5,a5,0x10
20001620:	0ff7f793          	zext.b	a5,a5
20001624:	ff87f793          	andi	a5,a5,-8
20001628:	0ff7f793          	zext.b	a5,a5
2000162c:	00078593          	mv	a1,a5
20001630:	40013537          	lui	a0,0x40013
20001634:	be5ff0ef          	jal	20001218 <SPI_WriteByte>
		SPI_WriteByte(SPI1,(Data>>3)&0xFC);
20001638:	fee45783          	lhu	a5,-18(s0)
2000163c:	0037d793          	srli	a5,a5,0x3
20001640:	01079793          	slli	a5,a5,0x10
20001644:	0107d793          	srli	a5,a5,0x10
20001648:	0ff7f793          	zext.b	a5,a5
2000164c:	ffc7f793          	andi	a5,a5,-4
20001650:	0ff7f793          	zext.b	a5,a5
20001654:	00078593          	mv	a1,a5
20001658:	40013537          	lui	a0,0x40013
2000165c:	bbdff0ef          	jal	20001218 <SPI_WriteByte>
		SPI_WriteByte(SPI1,Data<<3);
20001660:	fee45783          	lhu	a5,-18(s0)
20001664:	0ff7f793          	zext.b	a5,a5
20001668:	00379793          	slli	a5,a5,0x3
2000166c:	0ff7f793          	zext.b	a5,a5
20001670:	00078593          	mv	a1,a5
20001674:	40013537          	lui	a0,0x40013
20001678:	ba1ff0ef          	jal	20001218 <SPI_WriteByte>
	}
 	LCD_CS_SET;
2000167c:	400117b7          	lui	a5,0x40011
20001680:	c0c78793          	addi	a5,a5,-1012 # 40010c0c <__stack_top+0x20006d08>
20001684:	0007d783          	lhu	a5,0(a5)
20001688:	01079693          	slli	a3,a5,0x10
2000168c:	0106d693          	srli	a3,a3,0x10
20001690:	400117b7          	lui	a5,0x40011
20001694:	c0c78793          	addi	a5,a5,-1012 # 40010c0c <__stack_top+0x20006d08>
20001698:	ffff8737          	lui	a4,0xffff8
2000169c:	00e6e733          	or	a4,a3,a4
200016a0:	01071713          	slli	a4,a4,0x10
200016a4:	01075713          	srli	a4,a4,0x10
200016a8:	00e79023          	sh	a4,0(a5)
}
200016ac:	00000013          	nop
200016b0:	01c12083          	lw	ra,28(sp)
200016b4:	01812403          	lw	s0,24(sp)
200016b8:	02010113          	addi	sp,sp,32
200016bc:	00008067          	ret

200016c0 <_tft_lcd_setwindow>:
	yStar:the beginning y coordinate of the LCD display window
	xEnd:the endning x coordinate of the LCD display window
	yEnd:the endning y coordinate of the LCD display window
 */ 
static void _tft_lcd_setwindow(uint16_t xStar, uint16_t yStar,uint16_t xEnd,uint16_t yEnd)
{	
200016c0:	fe010113          	addi	sp,sp,-32
200016c4:	00112e23          	sw	ra,28(sp)
200016c8:	00812c23          	sw	s0,24(sp)
200016cc:	02010413          	addi	s0,sp,32
200016d0:	00050793          	mv	a5,a0
200016d4:	00068713          	mv	a4,a3
200016d8:	fef41723          	sh	a5,-18(s0)
200016dc:	00058793          	mv	a5,a1
200016e0:	fef41623          	sh	a5,-20(s0)
200016e4:	00060793          	mv	a5,a2
200016e8:	fef41523          	sh	a5,-22(s0)
200016ec:	00070793          	mv	a5,a4
200016f0:	fef41423          	sh	a5,-24(s0)
	lcd_write_register(lcddev.setxcmd);	
200016f4:	200097b7          	lui	a5,0x20009
200016f8:	18078793          	addi	a5,a5,384 # 20009180 <lcddev>
200016fc:	00a7d783          	lhu	a5,10(a5)
20001700:	0ff7f793          	zext.b	a5,a5
20001704:	00078513          	mv	a0,a5
20001708:	c91ff0ef          	jal	20001398 <lcd_write_register>
	lcd_write_data(xStar>>8);
2000170c:	fee45783          	lhu	a5,-18(s0)
20001710:	0087d793          	srli	a5,a5,0x8
20001714:	01079793          	slli	a5,a5,0x10
20001718:	0107d793          	srli	a5,a5,0x10
2000171c:	0ff7f793          	zext.b	a5,a5
20001720:	00078513          	mv	a0,a5
20001724:	d49ff0ef          	jal	2000146c <lcd_write_data>
	lcd_write_data(0x00FF&xStar);		
20001728:	fee45783          	lhu	a5,-18(s0)
2000172c:	0ff7f793          	zext.b	a5,a5
20001730:	00078513          	mv	a0,a5
20001734:	d39ff0ef          	jal	2000146c <lcd_write_data>
	lcd_write_data(xEnd>>8);
20001738:	fea45783          	lhu	a5,-22(s0)
2000173c:	0087d793          	srli	a5,a5,0x8
20001740:	01079793          	slli	a5,a5,0x10
20001744:	0107d793          	srli	a5,a5,0x10
20001748:	0ff7f793          	zext.b	a5,a5
2000174c:	00078513          	mv	a0,a5
20001750:	d1dff0ef          	jal	2000146c <lcd_write_data>
	lcd_write_data(0x00FF&xEnd);
20001754:	fea45783          	lhu	a5,-22(s0)
20001758:	0ff7f793          	zext.b	a5,a5
2000175c:	00078513          	mv	a0,a5
20001760:	d0dff0ef          	jal	2000146c <lcd_write_data>
	lcd_write_register(0);	
20001764:	00000513          	li	a0,0
20001768:	c31ff0ef          	jal	20001398 <lcd_write_register>

	lcd_write_register(lcddev.setycmd);	
2000176c:	200097b7          	lui	a5,0x20009
20001770:	18078793          	addi	a5,a5,384 # 20009180 <lcddev>
20001774:	00c7d783          	lhu	a5,12(a5)
20001778:	0ff7f793          	zext.b	a5,a5
2000177c:	00078513          	mv	a0,a5
20001780:	c19ff0ef          	jal	20001398 <lcd_write_register>

	lcd_write_data(yStar>>8);
20001784:	fec45783          	lhu	a5,-20(s0)
20001788:	0087d793          	srli	a5,a5,0x8
2000178c:	01079793          	slli	a5,a5,0x10
20001790:	0107d793          	srli	a5,a5,0x10
20001794:	0ff7f793          	zext.b	a5,a5
20001798:	00078513          	mv	a0,a5
2000179c:	cd1ff0ef          	jal	2000146c <lcd_write_data>
	lcd_write_data(0x00FF&yStar);		
200017a0:	fec45783          	lhu	a5,-20(s0)
200017a4:	0ff7f793          	zext.b	a5,a5
200017a8:	00078513          	mv	a0,a5
200017ac:	cc1ff0ef          	jal	2000146c <lcd_write_data>
	lcd_write_data(yEnd>>8);
200017b0:	fe845783          	lhu	a5,-24(s0)
200017b4:	0087d793          	srli	a5,a5,0x8
200017b8:	01079793          	slli	a5,a5,0x10
200017bc:	0107d793          	srli	a5,a5,0x10
200017c0:	0ff7f793          	zext.b	a5,a5
200017c4:	00078513          	mv	a0,a5
200017c8:	ca5ff0ef          	jal	2000146c <lcd_write_data>
	lcd_write_data(0x00FF&yEnd);
200017cc:	fe845783          	lhu	a5,-24(s0)
200017d0:	0ff7f793          	zext.b	a5,a5
200017d4:	00078513          	mv	a0,a5
200017d8:	c95ff0ef          	jal	2000146c <lcd_write_data>
	lcd_write_register(0);	
200017dc:	00000513          	li	a0,0
200017e0:	bb9ff0ef          	jal	20001398 <lcd_write_register>

	lcd_write_register(lcddev.wramcmd);
200017e4:	200097b7          	lui	a5,0x20009
200017e8:	18078793          	addi	a5,a5,384 # 20009180 <lcddev>
200017ec:	0087d783          	lhu	a5,8(a5)
200017f0:	0ff7f793          	zext.b	a5,a5
200017f4:	00078513          	mv	a0,a5
200017f8:	ba1ff0ef          	jal	20001398 <lcd_write_register>
}   
200017fc:	00000013          	nop
20001800:	01c12083          	lw	ra,28(sp)
20001804:	01812403          	lw	s0,24(sp)
20001808:	02010113          	addi	sp,sp,32
2000180c:	00008067          	ret

20001810 <tft_fill_colour>:



static void tft_fill_colour(uint16_t colour)
{
20001810:	fd010113          	addi	sp,sp,-48
20001814:	02112623          	sw	ra,44(sp)
20001818:	02812423          	sw	s0,40(sp)
2000181c:	03010413          	addi	s0,sp,48
20001820:	00050793          	mv	a5,a0
20001824:	fcf41f23          	sh	a5,-34(s0)
	unsigned int i,j;  
	_tft_lcd_setwindow(0,0,lcddev.width-1,lcddev.height-1);   
20001828:	200097b7          	lui	a5,0x20009
2000182c:	18078793          	addi	a5,a5,384 # 20009180 <lcddev>
20001830:	0007d783          	lhu	a5,0(a5)
20001834:	fff78793          	addi	a5,a5,-1
20001838:	01079713          	slli	a4,a5,0x10
2000183c:	01075713          	srli	a4,a4,0x10
20001840:	200097b7          	lui	a5,0x20009
20001844:	18078793          	addi	a5,a5,384 # 20009180 <lcddev>
20001848:	0027d783          	lhu	a5,2(a5)
2000184c:	fff78793          	addi	a5,a5,-1
20001850:	01079793          	slli	a5,a5,0x10
20001854:	0107d793          	srli	a5,a5,0x10
20001858:	00078693          	mv	a3,a5
2000185c:	00070613          	mv	a2,a4
20001860:	00000593          	li	a1,0
20001864:	00000513          	li	a0,0
20001868:	e59ff0ef          	jal	200016c0 <_tft_lcd_setwindow>
	LCD_CS_CLR;
2000186c:	400117b7          	lui	a5,0x40011
20001870:	c0c78793          	addi	a5,a5,-1012 # 40010c0c <__stack_top+0x20006d08>
20001874:	0007d783          	lhu	a5,0(a5)
20001878:	01079693          	slli	a3,a5,0x10
2000187c:	0106d693          	srli	a3,a3,0x10
20001880:	400117b7          	lui	a5,0x40011
20001884:	c0c78793          	addi	a5,a5,-1012 # 40010c0c <__stack_top+0x20006d08>
20001888:	00008737          	lui	a4,0x8
2000188c:	fff70713          	addi	a4,a4,-1 # 7fff <_start-0x1fff8001>
20001890:	00e6f733          	and	a4,a3,a4
20001894:	01071713          	slli	a4,a4,0x10
20001898:	01075713          	srli	a4,a4,0x10
2000189c:	00e79023          	sh	a4,0(a5)
	LCD_RS_SET;
200018a0:	400117b7          	lui	a5,0x40011
200018a4:	c0c78793          	addi	a5,a5,-1012 # 40010c0c <__stack_top+0x20006d08>
200018a8:	0007d783          	lhu	a5,0(a5)
200018ac:	01079693          	slli	a3,a5,0x10
200018b0:	0106d693          	srli	a3,a3,0x10
200018b4:	400117b7          	lui	a5,0x40011
200018b8:	c0c78793          	addi	a5,a5,-1012 # 40010c0c <__stack_top+0x20006d08>
200018bc:	00004737          	lui	a4,0x4
200018c0:	00e6e733          	or	a4,a3,a4
200018c4:	01071713          	slli	a4,a4,0x10
200018c8:	01075713          	srli	a4,a4,0x10
200018cc:	00e79023          	sh	a4,0(a5)
	if( _option & TFT_INIT_ST7796S)
200018d0:	200097b7          	lui	a5,0x20009
200018d4:	1907a783          	lw	a5,400(a5) # 20009190 <_option>
200018d8:	0027f793          	andi	a5,a5,2
200018dc:	08078e63          	beqz	a5,20001978 <tft_fill_colour+0x168>
	{
		uint8_t hi = colour >> 8, lo = colour;
200018e0:	fde45783          	lhu	a5,-34(s0)
200018e4:	0087d793          	srli	a5,a5,0x8
200018e8:	01079793          	slli	a5,a5,0x10
200018ec:	0107d793          	srli	a5,a5,0x10
200018f0:	fef40223          	sb	a5,-28(s0)
200018f4:	fde45783          	lhu	a5,-34(s0)
200018f8:	fef401a3          	sb	a5,-29(s0)
		for(i=0;i<lcddev.height;i++)
200018fc:	fe042623          	sw	zero,-20(s0)
20001900:	05c0006f          	j	2000195c <tft_fill_colour+0x14c>
			for(j=0;j<lcddev.width;j++){
20001904:	fe042423          	sw	zero,-24(s0)
20001908:	0300006f          	j	20001938 <tft_fill_colour+0x128>
				SPI_WriteByteOnly(SPI1, hi);
2000190c:	fe444783          	lbu	a5,-28(s0)
20001910:	00078593          	mv	a1,a5
20001914:	40013537          	lui	a0,0x40013
20001918:	99dff0ef          	jal	200012b4 <SPI_WriteByteOnly>
				SPI_WriteByteOnly(SPI1, lo);
2000191c:	fe344783          	lbu	a5,-29(s0)
20001920:	00078593          	mv	a1,a5
20001924:	40013537          	lui	a0,0x40013
20001928:	98dff0ef          	jal	200012b4 <SPI_WriteByteOnly>
			for(j=0;j<lcddev.width;j++){
2000192c:	fe842783          	lw	a5,-24(s0)
20001930:	00178793          	addi	a5,a5,1
20001934:	fef42423          	sw	a5,-24(s0)
20001938:	200097b7          	lui	a5,0x20009
2000193c:	18078793          	addi	a5,a5,384 # 20009180 <lcddev>
20001940:	0007d783          	lhu	a5,0(a5)
20001944:	00078713          	mv	a4,a5
20001948:	fe842783          	lw	a5,-24(s0)
2000194c:	fce7e0e3          	bltu	a5,a4,2000190c <tft_fill_colour+0xfc>
		for(i=0;i<lcddev.height;i++)
20001950:	fec42783          	lw	a5,-20(s0)
20001954:	00178793          	addi	a5,a5,1
20001958:	fef42623          	sw	a5,-20(s0)
2000195c:	200097b7          	lui	a5,0x20009
20001960:	18078793          	addi	a5,a5,384 # 20009180 <lcddev>
20001964:	0027d783          	lhu	a5,2(a5)
20001968:	00078713          	mv	a4,a5
2000196c:	fec42783          	lw	a5,-20(s0)
20001970:	f8e7eae3          	bltu	a5,a4,20001904 <tft_fill_colour+0xf4>
20001974:	0e40006f          	j	20001a58 <tft_fill_colour+0x248>
			}
	}
	else if( _option & TFT_INIT_ILI9488)
20001978:	200097b7          	lui	a5,0x20009
2000197c:	1907a783          	lw	a5,400(a5) # 20009190 <_option>
20001980:	0017f793          	andi	a5,a5,1
20001984:	0c078a63          	beqz	a5,20001a58 <tft_fill_colour+0x248>
	{
		uint8_t r = (colour>>8)&0xF8, g = (colour>>3)&0xFC, b = colour<<3;
20001988:	fde45783          	lhu	a5,-34(s0)
2000198c:	0087d793          	srli	a5,a5,0x8
20001990:	01079793          	slli	a5,a5,0x10
20001994:	0107d793          	srli	a5,a5,0x10
20001998:	0ff7f793          	zext.b	a5,a5
2000199c:	ff87f793          	andi	a5,a5,-8
200019a0:	fef403a3          	sb	a5,-25(s0)
200019a4:	fde45783          	lhu	a5,-34(s0)
200019a8:	0037d793          	srli	a5,a5,0x3
200019ac:	01079793          	slli	a5,a5,0x10
200019b0:	0107d793          	srli	a5,a5,0x10
200019b4:	0ff7f793          	zext.b	a5,a5
200019b8:	ffc7f793          	andi	a5,a5,-4
200019bc:	fef40323          	sb	a5,-26(s0)
200019c0:	fde45783          	lhu	a5,-34(s0)
200019c4:	0ff7f793          	zext.b	a5,a5
200019c8:	00379793          	slli	a5,a5,0x3
200019cc:	fef402a3          	sb	a5,-27(s0)
		for(i=0;i<lcddev.height;i++)
200019d0:	fe042623          	sw	zero,-20(s0)
200019d4:	06c0006f          	j	20001a40 <tft_fill_colour+0x230>
			for(j=0;j<lcddev.width;j++){
200019d8:	fe042423          	sw	zero,-24(s0)
200019dc:	0400006f          	j	20001a1c <tft_fill_colour+0x20c>
				SPI_WriteByteOnly(SPI1, r);
200019e0:	fe744783          	lbu	a5,-25(s0)
200019e4:	00078593          	mv	a1,a5
200019e8:	40013537          	lui	a0,0x40013
200019ec:	8c9ff0ef          	jal	200012b4 <SPI_WriteByteOnly>
				SPI_WriteByteOnly(SPI1, g);
200019f0:	fe644783          	lbu	a5,-26(s0)
200019f4:	00078593          	mv	a1,a5
200019f8:	40013537          	lui	a0,0x40013
200019fc:	8b9ff0ef          	jal	200012b4 <SPI_WriteByteOnly>
				SPI_WriteByteOnly(SPI1, b);
20001a00:	fe544783          	lbu	a5,-27(s0)
20001a04:	00078593          	mv	a1,a5
20001a08:	40013537          	lui	a0,0x40013
20001a0c:	8a9ff0ef          	jal	200012b4 <SPI_WriteByteOnly>
			for(j=0;j<lcddev.width;j++){
20001a10:	fe842783          	lw	a5,-24(s0)
20001a14:	00178793          	addi	a5,a5,1
20001a18:	fef42423          	sw	a5,-24(s0)
20001a1c:	200097b7          	lui	a5,0x20009
20001a20:	18078793          	addi	a5,a5,384 # 20009180 <lcddev>
20001a24:	0007d783          	lhu	a5,0(a5)
20001a28:	00078713          	mv	a4,a5
20001a2c:	fe842783          	lw	a5,-24(s0)
20001a30:	fae7e8e3          	bltu	a5,a4,200019e0 <tft_fill_colour+0x1d0>
		for(i=0;i<lcddev.height;i++)
20001a34:	fec42783          	lw	a5,-20(s0)
20001a38:	00178793          	addi	a5,a5,1
20001a3c:	fef42623          	sw	a5,-20(s0)
20001a40:	200097b7          	lui	a5,0x20009
20001a44:	18078793          	addi	a5,a5,384 # 20009180 <lcddev>
20001a48:	0027d783          	lhu	a5,2(a5)
20001a4c:	00078713          	mv	a4,a5
20001a50:	fec42783          	lw	a5,-20(s0)
20001a54:	f8e7e2e3          	bltu	a5,a4,200019d8 <tft_fill_colour+0x1c8>
			}
	}
	SPI_WaitDone(SPI1);
20001a58:	40013537          	lui	a0,0x40013
20001a5c:	8d9ff0ef          	jal	20001334 <SPI_WaitDone>
	LCD_CS_SET;
20001a60:	400117b7          	lui	a5,0x40011
20001a64:	c0c78793          	addi	a5,a5,-1012 # 40010c0c <__stack_top+0x20006d08>
20001a68:	0007d783          	lhu	a5,0(a5)
20001a6c:	01079693          	slli	a3,a5,0x10
20001a70:	0106d693          	srli	a3,a3,0x10
20001a74:	400117b7          	lui	a5,0x40011
20001a78:	c0c78793          	addi	a5,a5,-1012 # 40010c0c <__stack_top+0x20006d08>
20001a7c:	ffff8737          	lui	a4,0xffff8
20001a80:	00e6e733          	or	a4,a3,a4
20001a84:	01071713          	slli	a4,a4,0x10
20001a88:	01075713          	srli	a4,a4,0x10
20001a8c:	00e79023          	sh	a4,0(a5)
} 
20001a90:	00000013          	nop
20001a94:	02c12083          	lw	ra,44(sp)
20001a98:	02812403          	lw	s0,40(sp)
20001a9c:	03010113          	addi	sp,sp,48
20001aa0:	00008067          	ret

20001aa4 <_tft_lcd_direction>:
	1-90 degree
	2-180 degree
	3-270 degree
*/ 
static void _tft_lcd_direction(int direction)
{ 
20001aa4:	fe010113          	addi	sp,sp,-32
20001aa8:	00112e23          	sw	ra,28(sp)
20001aac:	00812c23          	sw	s0,24(sp)
20001ab0:	02010413          	addi	s0,sp,32
20001ab4:	fea42623          	sw	a0,-20(s0)
	lcddev.setxcmd=0x2A;
20001ab8:	200097b7          	lui	a5,0x20009
20001abc:	18078793          	addi	a5,a5,384 # 20009180 <lcddev>
20001ac0:	02a00713          	li	a4,42
20001ac4:	00e79523          	sh	a4,10(a5)
	lcddev.setycmd=0x2B;
20001ac8:	200097b7          	lui	a5,0x20009
20001acc:	18078793          	addi	a5,a5,384 # 20009180 <lcddev>
20001ad0:	02b00713          	li	a4,43
20001ad4:	00e79623          	sh	a4,12(a5)
	lcddev.wramcmd=0x2C;
20001ad8:	200097b7          	lui	a5,0x20009
20001adc:	18078793          	addi	a5,a5,384 # 20009180 <lcddev>
20001ae0:	02c00713          	li	a4,44
20001ae4:	00e79423          	sh	a4,8(a5)
	lcddev.dir = direction;
20001ae8:	fec42783          	lw	a5,-20(s0)
20001aec:	0ff7f713          	zext.b	a4,a5
20001af0:	200097b7          	lui	a5,0x20009
20001af4:	18078793          	addi	a5,a5,384 # 20009180 <lcddev>
20001af8:	00e78323          	sb	a4,6(a5)
	switch(direction){		  
20001afc:	fec42703          	lw	a4,-20(s0)
20001b00:	00300793          	li	a5,3
20001b04:	0cf70e63          	beq	a4,a5,20001be0 <_tft_lcd_direction+0x13c>
20001b08:	fec42703          	lw	a4,-20(s0)
20001b0c:	00300793          	li	a5,3
20001b10:	10e7c263          	blt	a5,a4,20001c14 <_tft_lcd_direction+0x170>
20001b14:	fec42703          	lw	a4,-20(s0)
20001b18:	00200793          	li	a5,2
20001b1c:	08f70863          	beq	a4,a5,20001bac <_tft_lcd_direction+0x108>
20001b20:	fec42703          	lw	a4,-20(s0)
20001b24:	00200793          	li	a5,2
20001b28:	0ee7c663          	blt	a5,a4,20001c14 <_tft_lcd_direction+0x170>
20001b2c:	fec42783          	lw	a5,-20(s0)
20001b30:	00078a63          	beqz	a5,20001b44 <_tft_lcd_direction+0xa0>
20001b34:	fec42703          	lw	a4,-20(s0)
20001b38:	00100793          	li	a5,1
20001b3c:	02f70e63          	beq	a4,a5,20001b78 <_tft_lcd_direction+0xd4>
			lcddev.width=LCD_H;
			lcddev.height=LCD_W;
			lcd_write_register(0x36);  
			lcd_write_data((1<<3)|(1<<7)|(1<<6)|(1<<5));	    		 
			break;	
		default:break;
20001b40:	0d40006f          	j	20001c14 <_tft_lcd_direction+0x170>
			lcddev.width=LCD_W;
20001b44:	200097b7          	lui	a5,0x20009
20001b48:	18078793          	addi	a5,a5,384 # 20009180 <lcddev>
20001b4c:	14000713          	li	a4,320
20001b50:	00e79023          	sh	a4,0(a5)
			lcddev.height=LCD_H;
20001b54:	200097b7          	lui	a5,0x20009
20001b58:	18078793          	addi	a5,a5,384 # 20009180 <lcddev>
20001b5c:	1e000713          	li	a4,480
20001b60:	00e79123          	sh	a4,2(a5)
			lcd_write_register(0x36);  
20001b64:	03600513          	li	a0,54
20001b68:	831ff0ef          	jal	20001398 <lcd_write_register>
			lcd_write_data((1<<3)|(1<<6));
20001b6c:	04800513          	li	a0,72
20001b70:	8fdff0ef          	jal	2000146c <lcd_write_data>
			break;
20001b74:	0a40006f          	j	20001c18 <_tft_lcd_direction+0x174>
			lcddev.width=LCD_H;
20001b78:	200097b7          	lui	a5,0x20009
20001b7c:	18078793          	addi	a5,a5,384 # 20009180 <lcddev>
20001b80:	1e000713          	li	a4,480
20001b84:	00e79023          	sh	a4,0(a5)
			lcddev.height=LCD_W;
20001b88:	200097b7          	lui	a5,0x20009
20001b8c:	18078793          	addi	a5,a5,384 # 20009180 <lcddev>
20001b90:	14000713          	li	a4,320
20001b94:	00e79123          	sh	a4,2(a5)
			lcd_write_register(0x36);  
20001b98:	03600513          	li	a0,54
20001b9c:	ffcff0ef          	jal	20001398 <lcd_write_register>
			lcd_write_data((1<<3)|(1<<5));	    		 
20001ba0:	02800513          	li	a0,40
20001ba4:	8c9ff0ef          	jal	2000146c <lcd_write_data>
			break;
20001ba8:	0700006f          	j	20001c18 <_tft_lcd_direction+0x174>
			lcddev.width=LCD_W;
20001bac:	200097b7          	lui	a5,0x20009
20001bb0:	18078793          	addi	a5,a5,384 # 20009180 <lcddev>
20001bb4:	14000713          	li	a4,320
20001bb8:	00e79023          	sh	a4,0(a5)
			lcddev.height=LCD_H;	
20001bbc:	200097b7          	lui	a5,0x20009
20001bc0:	18078793          	addi	a5,a5,384 # 20009180 <lcddev>
20001bc4:	1e000713          	li	a4,480
20001bc8:	00e79123          	sh	a4,2(a5)
			lcd_write_register(0x36);  
20001bcc:	03600513          	li	a0,54
20001bd0:	fc8ff0ef          	jal	20001398 <lcd_write_register>
			lcd_write_data(((1<<3)|(1<<7)));	    		 
20001bd4:	08800513          	li	a0,136
20001bd8:	895ff0ef          	jal	2000146c <lcd_write_data>
			break;
20001bdc:	03c0006f          	j	20001c18 <_tft_lcd_direction+0x174>
			lcddev.width=LCD_H;
20001be0:	200097b7          	lui	a5,0x20009
20001be4:	18078793          	addi	a5,a5,384 # 20009180 <lcddev>
20001be8:	1e000713          	li	a4,480
20001bec:	00e79023          	sh	a4,0(a5)
			lcddev.height=LCD_W;
20001bf0:	200097b7          	lui	a5,0x20009
20001bf4:	18078793          	addi	a5,a5,384 # 20009180 <lcddev>
20001bf8:	14000713          	li	a4,320
20001bfc:	00e79123          	sh	a4,2(a5)
			lcd_write_register(0x36);  
20001c00:	03600513          	li	a0,54
20001c04:	f94ff0ef          	jal	20001398 <lcd_write_register>
			lcd_write_data((1<<3)|(1<<7)|(1<<6)|(1<<5));	    		 
20001c08:	0e800513          	li	a0,232
20001c0c:	861ff0ef          	jal	2000146c <lcd_write_data>
			break;	
20001c10:	0080006f          	j	20001c18 <_tft_lcd_direction+0x174>
		default:break;
20001c14:	00000013          	nop
	}		
}	 
20001c18:	00000013          	nop
20001c1c:	01c12083          	lw	ra,28(sp)
20001c20:	01812403          	lw	s0,24(sp)
20001c24:	02010113          	addi	sp,sp,32
20001c28:	00008067          	ret

20001c2c <_tft_lcd_fill>:
	ex:the ending x coordinate of the specified area
	ey:the ending y coordinate of the specified area
	color:the filled color value
*/
static void _tft_lcd_fill(uint16_t sx,uint16_t sy,uint16_t ex,uint16_t ey,uint16_t color)
{  	
20001c2c:	fd010113          	addi	sp,sp,-48
20001c30:	02112623          	sw	ra,44(sp)
20001c34:	02812423          	sw	s0,40(sp)
20001c38:	03010413          	addi	s0,sp,48
20001c3c:	00050793          	mv	a5,a0
20001c40:	fcf41f23          	sh	a5,-34(s0)
20001c44:	00058793          	mv	a5,a1
20001c48:	fcf41e23          	sh	a5,-36(s0)
20001c4c:	00060793          	mv	a5,a2
20001c50:	fcf41d23          	sh	a5,-38(s0)
20001c54:	00068793          	mv	a5,a3
20001c58:	fcf41c23          	sh	a5,-40(s0)
20001c5c:	00070793          	mv	a5,a4
20001c60:	fcf41b23          	sh	a5,-42(s0)
	uint16_t i,j;			
	uint16_t width=ex-sx+1; 
20001c64:	fda45783          	lhu	a5,-38(s0)
20001c68:	00078713          	mv	a4,a5
20001c6c:	fde45783          	lhu	a5,-34(s0)
20001c70:	40f707b3          	sub	a5,a4,a5
20001c74:	01079793          	slli	a5,a5,0x10
20001c78:	0107d793          	srli	a5,a5,0x10
20001c7c:	00178793          	addi	a5,a5,1
20001c80:	fef41523          	sh	a5,-22(s0)
	uint16_t height=ey-sy+1;
20001c84:	fd845783          	lhu	a5,-40(s0)
20001c88:	00078713          	mv	a4,a5
20001c8c:	fdc45783          	lhu	a5,-36(s0)
20001c90:	40f707b3          	sub	a5,a4,a5
20001c94:	01079793          	slli	a5,a5,0x10
20001c98:	0107d793          	srli	a5,a5,0x10
20001c9c:	00178793          	addi	a5,a5,1
20001ca0:	fef41423          	sh	a5,-24(s0)
	_tft_lcd_setwindow(sx,sy,ex,ey);
20001ca4:	fd845683          	lhu	a3,-40(s0)
20001ca8:	fda45603          	lhu	a2,-38(s0)
20001cac:	fdc45703          	lhu	a4,-36(s0)
20001cb0:	fde45783          	lhu	a5,-34(s0)
20001cb4:	00070593          	mv	a1,a4
20001cb8:	00078513          	mv	a0,a5
20001cbc:	a05ff0ef          	jal	200016c0 <_tft_lcd_setwindow>
	LCD_CS_CLR;
20001cc0:	400117b7          	lui	a5,0x40011
20001cc4:	c0c78793          	addi	a5,a5,-1012 # 40010c0c <__stack_top+0x20006d08>
20001cc8:	0007d783          	lhu	a5,0(a5)
20001ccc:	01079693          	slli	a3,a5,0x10
20001cd0:	0106d693          	srli	a3,a3,0x10
20001cd4:	400117b7          	lui	a5,0x40011
20001cd8:	c0c78793          	addi	a5,a5,-1012 # 40010c0c <__stack_top+0x20006d08>
20001cdc:	00008737          	lui	a4,0x8
20001ce0:	fff70713          	addi	a4,a4,-1 # 7fff <_start-0x1fff8001>
20001ce4:	00e6f733          	and	a4,a3,a4
20001ce8:	01071713          	slli	a4,a4,0x10
20001cec:	01075713          	srli	a4,a4,0x10
20001cf0:	00e79023          	sh	a4,0(a5)
	LCD_RS_SET;
20001cf4:	400117b7          	lui	a5,0x40011
20001cf8:	c0c78793          	addi	a5,a5,-1012 # 40010c0c <__stack_top+0x20006d08>
20001cfc:	0007d783          	lhu	a5,0(a5)
20001d00:	01079693          	slli	a3,a5,0x10
20001d04:	0106d693          	srli	a3,a3,0x10
20001d08:	400117b7          	lui	a5,0x40011
20001d0c:	c0c78793          	addi	a5,a5,-1012 # 40010c0c <__stack_top+0x20006d08>
20001d10:	00004737          	lui	a4,0x4
20001d14:	00e6e733          	or	a4,a3,a4
20001d18:	01071713          	slli	a4,a4,0x10
20001d1c:	01075713          	srli	a4,a4,0x10
20001d20:	00e79023          	sh	a4,0(a5)
	if( _option & TFT_INIT_ST7796S)
20001d24:	200097b7          	lui	a5,0x20009
20001d28:	1907a783          	lw	a5,400(a5) # 20009190 <_option>
20001d2c:	0027f793          	andi	a5,a5,2
20001d30:	08078263          	beqz	a5,20001db4 <_tft_lcd_fill+0x188>
	{
		uint8_t hi = color >> 8, lo = color;
20001d34:	fd645783          	lhu	a5,-42(s0)
20001d38:	0087d793          	srli	a5,a5,0x8
20001d3c:	01079793          	slli	a5,a5,0x10
20001d40:	0107d793          	srli	a5,a5,0x10
20001d44:	fef40223          	sb	a5,-28(s0)
20001d48:	fd645783          	lhu	a5,-42(s0)
20001d4c:	fef401a3          	sb	a5,-29(s0)
		for(i=0;i<height;i++)
20001d50:	fe041723          	sh	zero,-18(s0)
20001d54:	0500006f          	j	20001da4 <_tft_lcd_fill+0x178>
			for(j=0;j<width;j++){
20001d58:	fe041623          	sh	zero,-20(s0)
20001d5c:	0300006f          	j	20001d8c <_tft_lcd_fill+0x160>
				SPI_WriteByteOnly(SPI1, hi);
20001d60:	fe444783          	lbu	a5,-28(s0)
20001d64:	00078593          	mv	a1,a5
20001d68:	40013537          	lui	a0,0x40013
20001d6c:	d48ff0ef          	jal	200012b4 <SPI_WriteByteOnly>
				SPI_WriteByteOnly(SPI1, lo);
20001d70:	fe344783          	lbu	a5,-29(s0)
20001d74:	00078593          	mv	a1,a5
20001d78:	40013537          	lui	a0,0x40013
20001d7c:	d38ff0ef          	jal	200012b4 <SPI_WriteByteOnly>
			for(j=0;j<width;j++){
20001d80:	fec45783          	lhu	a5,-20(s0)
20001d84:	00178793          	addi	a5,a5,1
20001d88:	fef41623          	sh	a5,-20(s0)
20001d8c:	fec45703          	lhu	a4,-20(s0)
20001d90:	fea45783          	lhu	a5,-22(s0)
20001d94:	fcf766e3          	bltu	a4,a5,20001d60 <_tft_lcd_fill+0x134>
		for(i=0;i<height;i++)
20001d98:	fee45783          	lhu	a5,-18(s0)
20001d9c:	00178793          	addi	a5,a5,1
20001da0:	fef41723          	sh	a5,-18(s0)
20001da4:	fee45703          	lhu	a4,-18(s0)
20001da8:	fe845783          	lhu	a5,-24(s0)
20001dac:	faf766e3          	bltu	a4,a5,20001d58 <_tft_lcd_fill+0x12c>
20001db0:	0cc0006f          	j	20001e7c <_tft_lcd_fill+0x250>
			}
	}
	else if( _option & TFT_INIT_ILI9488)
20001db4:	200097b7          	lui	a5,0x20009
20001db8:	1907a783          	lw	a5,400(a5) # 20009190 <_option>
20001dbc:	0017f793          	andi	a5,a5,1
20001dc0:	0a078e63          	beqz	a5,20001e7c <_tft_lcd_fill+0x250>
	{
		uint8_t r = (color>>8)&0xF8, g = (color>>3)&0xFC, b = color<<3;
20001dc4:	fd645783          	lhu	a5,-42(s0)
20001dc8:	0087d793          	srli	a5,a5,0x8
20001dcc:	01079793          	slli	a5,a5,0x10
20001dd0:	0107d793          	srli	a5,a5,0x10
20001dd4:	0ff7f793          	zext.b	a5,a5
20001dd8:	ff87f793          	andi	a5,a5,-8
20001ddc:	fef403a3          	sb	a5,-25(s0)
20001de0:	fd645783          	lhu	a5,-42(s0)
20001de4:	0037d793          	srli	a5,a5,0x3
20001de8:	01079793          	slli	a5,a5,0x10
20001dec:	0107d793          	srli	a5,a5,0x10
20001df0:	0ff7f793          	zext.b	a5,a5
20001df4:	ffc7f793          	andi	a5,a5,-4
20001df8:	fef40323          	sb	a5,-26(s0)
20001dfc:	fd645783          	lhu	a5,-42(s0)
20001e00:	0ff7f793          	zext.b	a5,a5
20001e04:	00379793          	slli	a5,a5,0x3
20001e08:	fef402a3          	sb	a5,-27(s0)
		for(i=0;i<height;i++)
20001e0c:	fe041723          	sh	zero,-18(s0)
20001e10:	0600006f          	j	20001e70 <_tft_lcd_fill+0x244>
			for(j=0;j<width;j++){
20001e14:	fe041623          	sh	zero,-20(s0)
20001e18:	0400006f          	j	20001e58 <_tft_lcd_fill+0x22c>
				SPI_WriteByteOnly(SPI1, r);
20001e1c:	fe744783          	lbu	a5,-25(s0)
20001e20:	00078593          	mv	a1,a5
20001e24:	40013537          	lui	a0,0x40013
20001e28:	c8cff0ef          	jal	200012b4 <SPI_WriteByteOnly>
				SPI_WriteByteOnly(SPI1, g);
20001e2c:	fe644783          	lbu	a5,-26(s0)
20001e30:	00078593          	mv	a1,a5
20001e34:	40013537          	lui	a0,0x40013
20001e38:	c7cff0ef          	jal	200012b4 <SPI_WriteByteOnly>
				SPI_WriteByteOnly(SPI1, b);
20001e3c:	fe544783          	lbu	a5,-27(s0)
20001e40:	00078593          	mv	a1,a5
20001e44:	40013537          	lui	a0,0x40013
20001e48:	c6cff0ef          	jal	200012b4 <SPI_WriteByteOnly>
			for(j=0;j<width;j++){
20001e4c:	fec45783          	lhu	a5,-20(s0)
20001e50:	00178793          	addi	a5,a5,1
20001e54:	fef41623          	sh	a5,-20(s0)
20001e58:	fec45703          	lhu	a4,-20(s0)
20001e5c:	fea45783          	lhu	a5,-22(s0)
20001e60:	faf76ee3          	bltu	a4,a5,20001e1c <_tft_lcd_fill+0x1f0>
		for(i=0;i<height;i++)
20001e64:	fee45783          	lhu	a5,-18(s0)
20001e68:	00178793          	addi	a5,a5,1
20001e6c:	fef41723          	sh	a5,-18(s0)
20001e70:	fee45703          	lhu	a4,-18(s0)
20001e74:	fe845783          	lhu	a5,-24(s0)
20001e78:	f8f76ee3          	bltu	a4,a5,20001e14 <_tft_lcd_fill+0x1e8>
			}
	}
	SPI_WaitDone(SPI1);
20001e7c:	40013537          	lui	a0,0x40013
20001e80:	cb4ff0ef          	jal	20001334 <SPI_WaitDone>
	LCD_CS_SET;
20001e84:	400117b7          	lui	a5,0x40011
20001e88:	c0c78793          	addi	a5,a5,-1012 # 40010c0c <__stack_top+0x20006d08>
20001e8c:	0007d783          	lhu	a5,0(a5)
20001e90:	01079693          	slli	a3,a5,0x10
20001e94:	0106d693          	srli	a3,a3,0x10
20001e98:	400117b7          	lui	a5,0x40011
20001e9c:	c0c78793          	addi	a5,a5,-1012 # 40010c0c <__stack_top+0x20006d08>
20001ea0:	ffff8737          	lui	a4,0xffff8
20001ea4:	00e6e733          	or	a4,a3,a4
20001ea8:	01071713          	slli	a4,a4,0x10
20001eac:	01075713          	srli	a4,a4,0x10
20001eb0:	00e79023          	sh	a4,0(a5)
}
20001eb4:	00000013          	nop
20001eb8:	02c12083          	lw	ra,44(sp)
20001ebc:	02812403          	lw	s0,40(sp)
20001ec0:	03010113          	addi	sp,sp,48
20001ec4:	00008067          	ret

20001ec8 <hw_tft_pixel>:
 * @param {Color} c The color to use.
 * @param {boolean} filled Should the interior of the circle be filled in?
 */
/* Public direct calls */
void hw_tft_pixel(int x,int y, uint16_t colour)
{
20001ec8:	fe010113          	addi	sp,sp,-32
20001ecc:	00112e23          	sw	ra,28(sp)
20001ed0:	00812c23          	sw	s0,24(sp)
20001ed4:	02010413          	addi	s0,sp,32
20001ed8:	fea42623          	sw	a0,-20(s0)
20001edc:	feb42423          	sw	a1,-24(s0)
20001ee0:	00060793          	mv	a5,a2
20001ee4:	fef41323          	sh	a5,-26(s0)
	_tft_lcd_setwindow(x,y,x,y);
20001ee8:	fec42783          	lw	a5,-20(s0)
20001eec:	01079793          	slli	a5,a5,0x10
20001ef0:	0107d793          	srli	a5,a5,0x10
20001ef4:	fe842703          	lw	a4,-24(s0)
20001ef8:	01071713          	slli	a4,a4,0x10
20001efc:	01075713          	srli	a4,a4,0x10
20001f00:	fec42683          	lw	a3,-20(s0)
20001f04:	01069613          	slli	a2,a3,0x10
20001f08:	01065613          	srli	a2,a2,0x10
20001f0c:	fe842683          	lw	a3,-24(s0)
20001f10:	01069693          	slli	a3,a3,0x10
20001f14:	0106d693          	srli	a3,a3,0x10
20001f18:	00070593          	mv	a1,a4
20001f1c:	00078513          	mv	a0,a5
20001f20:	fa0ff0ef          	jal	200016c0 <_tft_lcd_setwindow>
	_lcd_write_16bit_data(colour); 
20001f24:	fe645783          	lhu	a5,-26(s0)
20001f28:	00078513          	mv	a0,a5
20001f2c:	e10ff0ef          	jal	2000153c <_lcd_write_16bit_data>
}
20001f30:	00000013          	nop
20001f34:	01c12083          	lw	ra,28(sp)
20001f38:	01812403          	lw	s0,24(sp)
20001f3c:	02010113          	addi	sp,sp,32
20001f40:	00008067          	ret

20001f44 <_draw_quadrants>:


static void _draw_quadrants(int x, int y, int xc, int yc, int colour, int fill) 
{
20001f44:	fc010113          	addi	sp,sp,-64
20001f48:	02112e23          	sw	ra,60(sp)
20001f4c:	02812c23          	sw	s0,56(sp)
20001f50:	04010413          	addi	s0,sp,64
20001f54:	fca42e23          	sw	a0,-36(s0)
20001f58:	fcb42c23          	sw	a1,-40(s0)
20001f5c:	fcc42a23          	sw	a2,-44(s0)
20001f60:	fcd42823          	sw	a3,-48(s0)
20001f64:	fce42623          	sw	a4,-52(s0)
20001f68:	fcf42423          	sw	a5,-56(s0)
    if (fill) {
20001f6c:	fc842783          	lw	a5,-56(s0)
20001f70:	08078663          	beqz	a5,20001ffc <_draw_quadrants+0xb8>
      for (int xx = xc - x; xx <= xc + x; xx++) {
20001f74:	fd442703          	lw	a4,-44(s0)
20001f78:	fdc42783          	lw	a5,-36(s0)
20001f7c:	40f707b3          	sub	a5,a4,a5
20001f80:	fef42623          	sw	a5,-20(s0)
20001f84:	0600006f          	j	20001fe4 <_draw_quadrants+0xa0>
        hw_tft_pixel(xx, yc + y, colour);
20001f88:	fd042703          	lw	a4,-48(s0)
20001f8c:	fd842783          	lw	a5,-40(s0)
20001f90:	00f707b3          	add	a5,a4,a5
20001f94:	fcc42703          	lw	a4,-52(s0)
20001f98:	01071713          	slli	a4,a4,0x10
20001f9c:	01075713          	srli	a4,a4,0x10
20001fa0:	00070613          	mv	a2,a4
20001fa4:	00078593          	mv	a1,a5
20001fa8:	fec42503          	lw	a0,-20(s0)
20001fac:	f1dff0ef          	jal	20001ec8 <hw_tft_pixel>
        hw_tft_pixel(xx, yc - y, colour);
20001fb0:	fd042703          	lw	a4,-48(s0)
20001fb4:	fd842783          	lw	a5,-40(s0)
20001fb8:	40f707b3          	sub	a5,a4,a5
20001fbc:	fcc42703          	lw	a4,-52(s0)
20001fc0:	01071713          	slli	a4,a4,0x10
20001fc4:	01075713          	srli	a4,a4,0x10
20001fc8:	00070613          	mv	a2,a4
20001fcc:	00078593          	mv	a1,a5
20001fd0:	fec42503          	lw	a0,-20(s0)
20001fd4:	ef5ff0ef          	jal	20001ec8 <hw_tft_pixel>
      for (int xx = xc - x; xx <= xc + x; xx++) {
20001fd8:	fec42783          	lw	a5,-20(s0)
20001fdc:	00178793          	addi	a5,a5,1
20001fe0:	fef42623          	sw	a5,-20(s0)
20001fe4:	fd442703          	lw	a4,-44(s0)
20001fe8:	fdc42783          	lw	a5,-36(s0)
20001fec:	00f707b3          	add	a5,a4,a5
20001ff0:	fec42703          	lw	a4,-20(s0)
20001ff4:	f8e7dae3          	bge	a5,a4,20001f88 <_draw_quadrants+0x44>
    	hw_tft_pixel(x + xc, y + yc, colour);
      	hw_tft_pixel(-x + xc, y + yc, colour);      
      	hw_tft_pixel(x + xc, -y + yc, colour);
      	hw_tft_pixel(-x + xc, -y + yc, colour);
    }    
}
20001ff8:	0d40006f          	j	200020cc <_draw_quadrants+0x188>
    	hw_tft_pixel(x + xc, y + yc, colour);
20001ffc:	fdc42703          	lw	a4,-36(s0)
20002000:	fd442783          	lw	a5,-44(s0)
20002004:	00f706b3          	add	a3,a4,a5
20002008:	fd842703          	lw	a4,-40(s0)
2000200c:	fd042783          	lw	a5,-48(s0)
20002010:	00f707b3          	add	a5,a4,a5
20002014:	fcc42703          	lw	a4,-52(s0)
20002018:	01071713          	slli	a4,a4,0x10
2000201c:	01075713          	srli	a4,a4,0x10
20002020:	00070613          	mv	a2,a4
20002024:	00078593          	mv	a1,a5
20002028:	00068513          	mv	a0,a3
2000202c:	e9dff0ef          	jal	20001ec8 <hw_tft_pixel>
      	hw_tft_pixel(-x + xc, y + yc, colour);      
20002030:	fd442703          	lw	a4,-44(s0)
20002034:	fdc42783          	lw	a5,-36(s0)
20002038:	40f706b3          	sub	a3,a4,a5
2000203c:	fd842703          	lw	a4,-40(s0)
20002040:	fd042783          	lw	a5,-48(s0)
20002044:	00f707b3          	add	a5,a4,a5
20002048:	fcc42703          	lw	a4,-52(s0)
2000204c:	01071713          	slli	a4,a4,0x10
20002050:	01075713          	srli	a4,a4,0x10
20002054:	00070613          	mv	a2,a4
20002058:	00078593          	mv	a1,a5
2000205c:	00068513          	mv	a0,a3
20002060:	e69ff0ef          	jal	20001ec8 <hw_tft_pixel>
      	hw_tft_pixel(x + xc, -y + yc, colour);
20002064:	fdc42703          	lw	a4,-36(s0)
20002068:	fd442783          	lw	a5,-44(s0)
2000206c:	00f706b3          	add	a3,a4,a5
20002070:	fd042703          	lw	a4,-48(s0)
20002074:	fd842783          	lw	a5,-40(s0)
20002078:	40f707b3          	sub	a5,a4,a5
2000207c:	fcc42703          	lw	a4,-52(s0)
20002080:	01071713          	slli	a4,a4,0x10
20002084:	01075713          	srli	a4,a4,0x10
20002088:	00070613          	mv	a2,a4
2000208c:	00078593          	mv	a1,a5
20002090:	00068513          	mv	a0,a3
20002094:	e35ff0ef          	jal	20001ec8 <hw_tft_pixel>
      	hw_tft_pixel(-x + xc, -y + yc, colour);
20002098:	fd442703          	lw	a4,-44(s0)
2000209c:	fdc42783          	lw	a5,-36(s0)
200020a0:	40f706b3          	sub	a3,a4,a5
200020a4:	fd042703          	lw	a4,-48(s0)
200020a8:	fd842783          	lw	a5,-40(s0)
200020ac:	40f707b3          	sub	a5,a4,a5
200020b0:	fcc42703          	lw	a4,-52(s0)
200020b4:	01071713          	slli	a4,a4,0x10
200020b8:	01075713          	srli	a4,a4,0x10
200020bc:	00070613          	mv	a2,a4
200020c0:	00078593          	mv	a1,a5
200020c4:	00068513          	mv	a0,a3
200020c8:	e01ff0ef          	jal	20001ec8 <hw_tft_pixel>
}
200020cc:	00000013          	nop
200020d0:	03c12083          	lw	ra,60(sp)
200020d4:	03812403          	lw	s0,56(sp)
200020d8:	04010113          	addi	sp,sp,64
200020dc:	00008067          	ret

200020e0 <hw_tft_sprite>:


void hw_tft_sprite(int x, int y, uint16_t *data, int w, int h)
{
200020e0:	fc010113          	addi	sp,sp,-64
200020e4:	02112e23          	sw	ra,60(sp)
200020e8:	02812c23          	sw	s0,56(sp)
200020ec:	04010413          	addi	s0,sp,64
200020f0:	fca42e23          	sw	a0,-36(s0)
200020f4:	fcb42c23          	sw	a1,-40(s0)
200020f8:	fcc42a23          	sw	a2,-44(s0)
200020fc:	fcd42823          	sw	a3,-48(s0)
20002100:	fce42623          	sw	a4,-52(s0)
	/* Set window once and stream all pixels — same approach as _tft_lcd_fill */
	_tft_lcd_setwindow(x, y, x + w - 1, y + h - 1);
20002104:	fdc42783          	lw	a5,-36(s0)
20002108:	01079513          	slli	a0,a5,0x10
2000210c:	01055513          	srli	a0,a0,0x10
20002110:	fd842783          	lw	a5,-40(s0)
20002114:	01079593          	slli	a1,a5,0x10
20002118:	0105d593          	srli	a1,a1,0x10
2000211c:	fdc42783          	lw	a5,-36(s0)
20002120:	01079713          	slli	a4,a5,0x10
20002124:	01075713          	srli	a4,a4,0x10
20002128:	fd042783          	lw	a5,-48(s0)
2000212c:	01079793          	slli	a5,a5,0x10
20002130:	0107d793          	srli	a5,a5,0x10
20002134:	00f707b3          	add	a5,a4,a5
20002138:	01079793          	slli	a5,a5,0x10
2000213c:	0107d793          	srli	a5,a5,0x10
20002140:	fff78793          	addi	a5,a5,-1
20002144:	01079613          	slli	a2,a5,0x10
20002148:	01065613          	srli	a2,a2,0x10
2000214c:	fd842783          	lw	a5,-40(s0)
20002150:	01079713          	slli	a4,a5,0x10
20002154:	01075713          	srli	a4,a4,0x10
20002158:	fcc42783          	lw	a5,-52(s0)
2000215c:	01079793          	slli	a5,a5,0x10
20002160:	0107d793          	srli	a5,a5,0x10
20002164:	00f707b3          	add	a5,a4,a5
20002168:	01079793          	slli	a5,a5,0x10
2000216c:	0107d793          	srli	a5,a5,0x10
20002170:	fff78793          	addi	a5,a5,-1
20002174:	01079793          	slli	a5,a5,0x10
20002178:	0107d793          	srli	a5,a5,0x10
2000217c:	00078693          	mv	a3,a5
20002180:	d40ff0ef          	jal	200016c0 <_tft_lcd_setwindow>
	LCD_CS_CLR;
20002184:	400117b7          	lui	a5,0x40011
20002188:	c0c78793          	addi	a5,a5,-1012 # 40010c0c <__stack_top+0x20006d08>
2000218c:	0007d783          	lhu	a5,0(a5)
20002190:	01079693          	slli	a3,a5,0x10
20002194:	0106d693          	srli	a3,a3,0x10
20002198:	400117b7          	lui	a5,0x40011
2000219c:	c0c78793          	addi	a5,a5,-1012 # 40010c0c <__stack_top+0x20006d08>
200021a0:	00008737          	lui	a4,0x8
200021a4:	fff70713          	addi	a4,a4,-1 # 7fff <_start-0x1fff8001>
200021a8:	00e6f733          	and	a4,a3,a4
200021ac:	01071713          	slli	a4,a4,0x10
200021b0:	01075713          	srli	a4,a4,0x10
200021b4:	00e79023          	sh	a4,0(a5)
	LCD_RS_SET;
200021b8:	400117b7          	lui	a5,0x40011
200021bc:	c0c78793          	addi	a5,a5,-1012 # 40010c0c <__stack_top+0x20006d08>
200021c0:	0007d783          	lhu	a5,0(a5)
200021c4:	01079693          	slli	a3,a5,0x10
200021c8:	0106d693          	srli	a3,a3,0x10
200021cc:	400117b7          	lui	a5,0x40011
200021d0:	c0c78793          	addi	a5,a5,-1012 # 40010c0c <__stack_top+0x20006d08>
200021d4:	00004737          	lui	a4,0x4
200021d8:	00e6e733          	or	a4,a3,a4
200021dc:	01071713          	slli	a4,a4,0x10
200021e0:	01075713          	srli	a4,a4,0x10
200021e4:	00e79023          	sh	a4,0(a5)
	int n = w * h;
200021e8:	fd042703          	lw	a4,-48(s0)
200021ec:	fcc42783          	lw	a5,-52(s0)
200021f0:	02f707b3          	mul	a5,a4,a5
200021f4:	fef42223          	sw	a5,-28(s0)
	if( _option & TFT_INIT_ST7796S )
200021f8:	200097b7          	lui	a5,0x20009
200021fc:	1907a783          	lw	a5,400(a5) # 20009190 <_option>
20002200:	0027f793          	andi	a5,a5,2
20002204:	06078a63          	beqz	a5,20002278 <hw_tft_sprite+0x198>
	{
		for(int i = 0; i < n; i++){
20002208:	fe042623          	sw	zero,-20(s0)
2000220c:	05c0006f          	j	20002268 <hw_tft_sprite+0x188>
			uint16_t c = data[i];
20002210:	fec42783          	lw	a5,-20(s0)
20002214:	00179793          	slli	a5,a5,0x1
20002218:	fd442703          	lw	a4,-44(s0)
2000221c:	00f707b3          	add	a5,a4,a5
20002220:	0007d783          	lhu	a5,0(a5)
20002224:	fef41023          	sh	a5,-32(s0)
			SPI_WriteByteOnly(SPI1, c >> 8);
20002228:	fe045783          	lhu	a5,-32(s0)
2000222c:	0087d793          	srli	a5,a5,0x8
20002230:	01079793          	slli	a5,a5,0x10
20002234:	0107d793          	srli	a5,a5,0x10
20002238:	0ff7f793          	zext.b	a5,a5
2000223c:	00078593          	mv	a1,a5
20002240:	40013537          	lui	a0,0x40013
20002244:	870ff0ef          	jal	200012b4 <SPI_WriteByteOnly>
			SPI_WriteByteOnly(SPI1, c);
20002248:	fe045783          	lhu	a5,-32(s0)
2000224c:	0ff7f793          	zext.b	a5,a5
20002250:	00078593          	mv	a1,a5
20002254:	40013537          	lui	a0,0x40013
20002258:	85cff0ef          	jal	200012b4 <SPI_WriteByteOnly>
		for(int i = 0; i < n; i++){
2000225c:	fec42783          	lw	a5,-20(s0)
20002260:	00178793          	addi	a5,a5,1
20002264:	fef42623          	sw	a5,-20(s0)
20002268:	fec42703          	lw	a4,-20(s0)
2000226c:	fe442783          	lw	a5,-28(s0)
20002270:	faf740e3          	blt	a4,a5,20002210 <hw_tft_sprite+0x130>
20002274:	0b80006f          	j	2000232c <hw_tft_sprite+0x24c>
		}
	}
	else if( _option & TFT_INIT_ILI9488 )
20002278:	200097b7          	lui	a5,0x20009
2000227c:	1907a783          	lw	a5,400(a5) # 20009190 <_option>
20002280:	0017f793          	andi	a5,a5,1
20002284:	0a078463          	beqz	a5,2000232c <hw_tft_sprite+0x24c>
	{
		for(int i = 0; i < n; i++){
20002288:	fe042423          	sw	zero,-24(s0)
2000228c:	0940006f          	j	20002320 <hw_tft_sprite+0x240>
			uint16_t c = data[i];
20002290:	fe842783          	lw	a5,-24(s0)
20002294:	00179793          	slli	a5,a5,0x1
20002298:	fd442703          	lw	a4,-44(s0)
2000229c:	00f707b3          	add	a5,a4,a5
200022a0:	0007d783          	lhu	a5,0(a5)
200022a4:	fef41123          	sh	a5,-30(s0)
			SPI_WriteByteOnly(SPI1, (c >> 8) & 0xF8);   /* R */
200022a8:	fe245783          	lhu	a5,-30(s0)
200022ac:	0087d793          	srli	a5,a5,0x8
200022b0:	01079793          	slli	a5,a5,0x10
200022b4:	0107d793          	srli	a5,a5,0x10
200022b8:	0ff7f793          	zext.b	a5,a5
200022bc:	ff87f793          	andi	a5,a5,-8
200022c0:	0ff7f793          	zext.b	a5,a5
200022c4:	00078593          	mv	a1,a5
200022c8:	40013537          	lui	a0,0x40013
200022cc:	fe9fe0ef          	jal	200012b4 <SPI_WriteByteOnly>
			SPI_WriteByteOnly(SPI1, (c >> 3) & 0xFC);   /* G */
200022d0:	fe245783          	lhu	a5,-30(s0)
200022d4:	0037d793          	srli	a5,a5,0x3
200022d8:	01079793          	slli	a5,a5,0x10
200022dc:	0107d793          	srli	a5,a5,0x10
200022e0:	0ff7f793          	zext.b	a5,a5
200022e4:	ffc7f793          	andi	a5,a5,-4
200022e8:	0ff7f793          	zext.b	a5,a5
200022ec:	00078593          	mv	a1,a5
200022f0:	40013537          	lui	a0,0x40013
200022f4:	fc1fe0ef          	jal	200012b4 <SPI_WriteByteOnly>
			SPI_WriteByteOnly(SPI1, (c << 3) & 0xF8);   /* B */
200022f8:	fe245783          	lhu	a5,-30(s0)
200022fc:	0ff7f793          	zext.b	a5,a5
20002300:	00379793          	slli	a5,a5,0x3
20002304:	0ff7f793          	zext.b	a5,a5
20002308:	00078593          	mv	a1,a5
2000230c:	40013537          	lui	a0,0x40013
20002310:	fa5fe0ef          	jal	200012b4 <SPI_WriteByteOnly>
		for(int i = 0; i < n; i++){
20002314:	fe842783          	lw	a5,-24(s0)
20002318:	00178793          	addi	a5,a5,1
2000231c:	fef42423          	sw	a5,-24(s0)
20002320:	fe842703          	lw	a4,-24(s0)
20002324:	fe442783          	lw	a5,-28(s0)
20002328:	f6f744e3          	blt	a4,a5,20002290 <hw_tft_sprite+0x1b0>
		}
	}
	SPI_WaitDone(SPI1);
2000232c:	40013537          	lui	a0,0x40013
20002330:	804ff0ef          	jal	20001334 <SPI_WaitDone>
	LCD_CS_SET;
20002334:	400117b7          	lui	a5,0x40011
20002338:	c0c78793          	addi	a5,a5,-1012 # 40010c0c <__stack_top+0x20006d08>
2000233c:	0007d783          	lhu	a5,0(a5)
20002340:	01079693          	slli	a3,a5,0x10
20002344:	0106d693          	srli	a3,a3,0x10
20002348:	400117b7          	lui	a5,0x40011
2000234c:	c0c78793          	addi	a5,a5,-1012 # 40010c0c <__stack_top+0x20006d08>
20002350:	ffff8737          	lui	a4,0xffff8
20002354:	00e6e733          	or	a4,a3,a4
20002358:	01071713          	slli	a4,a4,0x10
2000235c:	01075713          	srli	a4,a4,0x10
20002360:	00e79023          	sh	a4,0(a5)
}
20002364:	00000013          	nop
20002368:	03c12083          	lw	ra,60(sp)
2000236c:	03812403          	lw	s0,56(sp)
20002370:	04010113          	addi	sp,sp,64
20002374:	00008067          	ret

20002378 <hw_tft_line>:

void hw_tft_line(int  x1, int y1, int x2, int y2, uint16_t colour)
{
20002378:	fa010113          	addi	sp,sp,-96
2000237c:	04112e23          	sw	ra,92(sp)
20002380:	04812c23          	sw	s0,88(sp)
20002384:	06010413          	addi	s0,sp,96
20002388:	faa42e23          	sw	a0,-68(s0)
2000238c:	fab42c23          	sw	a1,-72(s0)
20002390:	fac42a23          	sw	a2,-76(s0)
20002394:	fad42823          	sw	a3,-80(s0)
20002398:	00070793          	mv	a5,a4
2000239c:	faf41723          	sh	a5,-82(s0)
	uint16_t t; 
	int xerr=0,yerr=0,delta_x,delta_y,distance; 
200023a0:	fe042423          	sw	zero,-24(s0)
200023a4:	fe042223          	sw	zero,-28(s0)
	int incx,incy,uRow,uCol; 

	delta_x=x2-x1; 
200023a8:	fb442703          	lw	a4,-76(s0)
200023ac:	fbc42783          	lw	a5,-68(s0)
200023b0:	40f707b3          	sub	a5,a4,a5
200023b4:	fef42023          	sw	a5,-32(s0)
	delta_y=y2-y1; 
200023b8:	fb042703          	lw	a4,-80(s0)
200023bc:	fb842783          	lw	a5,-72(s0)
200023c0:	40f707b3          	sub	a5,a4,a5
200023c4:	fcf42e23          	sw	a5,-36(s0)
	uRow=x1; 
200023c8:	fbc42783          	lw	a5,-68(s0)
200023cc:	fcf42623          	sw	a5,-52(s0)
	uCol=y1; 
200023d0:	fb842783          	lw	a5,-72(s0)
200023d4:	fcf42423          	sw	a5,-56(s0)
	if(delta_x>0)incx=1; 
200023d8:	fe042783          	lw	a5,-32(s0)
200023dc:	00f05863          	blez	a5,200023ec <hw_tft_line+0x74>
200023e0:	00100793          	li	a5,1
200023e4:	fcf42a23          	sw	a5,-44(s0)
200023e8:	0280006f          	j	20002410 <hw_tft_line+0x98>
	else if(delta_x==0)incx=0; 
200023ec:	fe042783          	lw	a5,-32(s0)
200023f0:	00079663          	bnez	a5,200023fc <hw_tft_line+0x84>
200023f4:	fc042a23          	sw	zero,-44(s0)
200023f8:	0180006f          	j	20002410 <hw_tft_line+0x98>
	else {incx=-1;delta_x=-delta_x;} 
200023fc:	fff00793          	li	a5,-1
20002400:	fcf42a23          	sw	a5,-44(s0)
20002404:	fe042783          	lw	a5,-32(s0)
20002408:	40f007b3          	neg	a5,a5
2000240c:	fef42023          	sw	a5,-32(s0)
	if(delta_y>0)incy=1; 
20002410:	fdc42783          	lw	a5,-36(s0)
20002414:	00f05863          	blez	a5,20002424 <hw_tft_line+0xac>
20002418:	00100793          	li	a5,1
2000241c:	fcf42823          	sw	a5,-48(s0)
20002420:	0280006f          	j	20002448 <hw_tft_line+0xd0>
	else if(delta_y==0)incy=0;
20002424:	fdc42783          	lw	a5,-36(s0)
20002428:	00079663          	bnez	a5,20002434 <hw_tft_line+0xbc>
2000242c:	fc042823          	sw	zero,-48(s0)
20002430:	0180006f          	j	20002448 <hw_tft_line+0xd0>
	else{incy=-1;delta_y=-delta_y;} 
20002434:	fff00793          	li	a5,-1
20002438:	fcf42823          	sw	a5,-48(s0)
2000243c:	fdc42783          	lw	a5,-36(s0)
20002440:	40f007b3          	neg	a5,a5
20002444:	fcf42e23          	sw	a5,-36(s0)
	if( delta_x>delta_y)distance=delta_x; 
20002448:	fe042703          	lw	a4,-32(s0)
2000244c:	fdc42783          	lw	a5,-36(s0)
20002450:	00e7d863          	bge	a5,a4,20002460 <hw_tft_line+0xe8>
20002454:	fe042783          	lw	a5,-32(s0)
20002458:	fcf42c23          	sw	a5,-40(s0)
2000245c:	00c0006f          	j	20002468 <hw_tft_line+0xf0>
	else distance=delta_y; 
20002460:	fdc42783          	lw	a5,-36(s0)
20002464:	fcf42c23          	sw	a5,-40(s0)
	for(t=0;t<=distance+1;t++ ) 
20002468:	fe041723          	sh	zero,-18(s0)
2000246c:	09c0006f          	j	20002508 <hw_tft_line+0x190>
	{  
		hw_tft_pixel(uRow,uCol,colour); 
20002470:	fae45783          	lhu	a5,-82(s0)
20002474:	00078613          	mv	a2,a5
20002478:	fc842583          	lw	a1,-56(s0)
2000247c:	fcc42503          	lw	a0,-52(s0)
20002480:	a49ff0ef          	jal	20001ec8 <hw_tft_pixel>
		xerr+=delta_x ; 
20002484:	fe842703          	lw	a4,-24(s0)
20002488:	fe042783          	lw	a5,-32(s0)
2000248c:	00f707b3          	add	a5,a4,a5
20002490:	fef42423          	sw	a5,-24(s0)
		yerr+=delta_y ; 
20002494:	fe442703          	lw	a4,-28(s0)
20002498:	fdc42783          	lw	a5,-36(s0)
2000249c:	00f707b3          	add	a5,a4,a5
200024a0:	fef42223          	sw	a5,-28(s0)
		if(xerr>distance) 
200024a4:	fe842703          	lw	a4,-24(s0)
200024a8:	fd842783          	lw	a5,-40(s0)
200024ac:	02e7d263          	bge	a5,a4,200024d0 <hw_tft_line+0x158>
		{ 
			xerr-=distance; 
200024b0:	fe842703          	lw	a4,-24(s0)
200024b4:	fd842783          	lw	a5,-40(s0)
200024b8:	40f707b3          	sub	a5,a4,a5
200024bc:	fef42423          	sw	a5,-24(s0)
			uRow+=incx; 
200024c0:	fcc42703          	lw	a4,-52(s0)
200024c4:	fd442783          	lw	a5,-44(s0)
200024c8:	00f707b3          	add	a5,a4,a5
200024cc:	fcf42623          	sw	a5,-52(s0)
		} 
		if(yerr>distance) 
200024d0:	fe442703          	lw	a4,-28(s0)
200024d4:	fd842783          	lw	a5,-40(s0)
200024d8:	02e7d263          	bge	a5,a4,200024fc <hw_tft_line+0x184>
		{ 
			yerr-=distance; 
200024dc:	fe442703          	lw	a4,-28(s0)
200024e0:	fd842783          	lw	a5,-40(s0)
200024e4:	40f707b3          	sub	a5,a4,a5
200024e8:	fef42223          	sw	a5,-28(s0)
			uCol+=incy; 
200024ec:	fc842703          	lw	a4,-56(s0)
200024f0:	fd042783          	lw	a5,-48(s0)
200024f4:	00f707b3          	add	a5,a4,a5
200024f8:	fcf42423          	sw	a5,-56(s0)
	for(t=0;t<=distance+1;t++ ) 
200024fc:	fee45783          	lhu	a5,-18(s0)
20002500:	00178793          	addi	a5,a5,1
20002504:	fef41723          	sh	a5,-18(s0)
20002508:	fee45703          	lhu	a4,-18(s0)
2000250c:	fd842783          	lw	a5,-40(s0)
20002510:	00178793          	addi	a5,a5,1
20002514:	f4e7dee3          	bge	a5,a4,20002470 <hw_tft_line+0xf8>
		} 
	}  
} 
20002518:	00000013          	nop
2000251c:	00000013          	nop
20002520:	05c12083          	lw	ra,92(sp)
20002524:	05812403          	lw	s0,88(sp)
20002528:	06010113          	addi	sp,sp,96
2000252c:	00008067          	ret

20002530 <hw_tft_rect>:

void hw_tft_rect(int x1, int y1, int x2, int y2, uint16_t colour, int fill)
{
20002530:	fd010113          	addi	sp,sp,-48
20002534:	02112623          	sw	ra,44(sp)
20002538:	02812423          	sw	s0,40(sp)
2000253c:	03010413          	addi	s0,sp,48
20002540:	fea42623          	sw	a0,-20(s0)
20002544:	feb42423          	sw	a1,-24(s0)
20002548:	fec42223          	sw	a2,-28(s0)
2000254c:	fed42023          	sw	a3,-32(s0)
20002550:	fcf42c23          	sw	a5,-40(s0)
20002554:	00070793          	mv	a5,a4
20002558:	fcf41f23          	sh	a5,-34(s0)
	if( fill )
2000255c:	fd842783          	lw	a5,-40(s0)
20002560:	06078a63          	beqz	a5,200025d4 <hw_tft_rect+0xa4>
	{
		_tft_lcd_fill((unsigned short)x1,(unsigned short)y1,(unsigned short)(x1+x2),(unsigned short)(y1+y2),(unsigned short)colour);
20002564:	fec42783          	lw	a5,-20(s0)
20002568:	01079513          	slli	a0,a5,0x10
2000256c:	01055513          	srli	a0,a0,0x10
20002570:	fe842783          	lw	a5,-24(s0)
20002574:	01079593          	slli	a1,a5,0x10
20002578:	0105d593          	srli	a1,a1,0x10
2000257c:	fec42783          	lw	a5,-20(s0)
20002580:	01079713          	slli	a4,a5,0x10
20002584:	01075713          	srli	a4,a4,0x10
20002588:	fe442783          	lw	a5,-28(s0)
2000258c:	01079793          	slli	a5,a5,0x10
20002590:	0107d793          	srli	a5,a5,0x10
20002594:	00f707b3          	add	a5,a4,a5
20002598:	01079613          	slli	a2,a5,0x10
2000259c:	01065613          	srli	a2,a2,0x10
200025a0:	fe842783          	lw	a5,-24(s0)
200025a4:	01079713          	slli	a4,a5,0x10
200025a8:	01075713          	srli	a4,a4,0x10
200025ac:	fe042783          	lw	a5,-32(s0)
200025b0:	01079793          	slli	a5,a5,0x10
200025b4:	0107d793          	srli	a5,a5,0x10
200025b8:	00f707b3          	add	a5,a4,a5
200025bc:	01079793          	slli	a5,a5,0x10
200025c0:	0107d793          	srli	a5,a5,0x10
200025c4:	fde45703          	lhu	a4,-34(s0)
200025c8:	00078693          	mv	a3,a5
200025cc:	e60ff0ef          	jal	20001c2c <_tft_lcd_fill>
		hw_tft_line(x1,y1,x1+x2,y1,colour);
		hw_tft_line(x1,y1,x1,y1+y2,colour);
		hw_tft_line(x1+x2,y1,x1+x2,y1+y2,colour);
		hw_tft_line(x1,y1+y2,x1+x2,y1+y2,colour);		
	}
}  
200025d0:	0b40006f          	j	20002684 <hw_tft_rect+0x154>
		hw_tft_line(x1,y1,x1+x2,y1,colour);
200025d4:	fec42703          	lw	a4,-20(s0)
200025d8:	fe442783          	lw	a5,-28(s0)
200025dc:	00f707b3          	add	a5,a4,a5
200025e0:	fde45703          	lhu	a4,-34(s0)
200025e4:	fe842683          	lw	a3,-24(s0)
200025e8:	00078613          	mv	a2,a5
200025ec:	fe842583          	lw	a1,-24(s0)
200025f0:	fec42503          	lw	a0,-20(s0)
200025f4:	d85ff0ef          	jal	20002378 <hw_tft_line>
		hw_tft_line(x1,y1,x1,y1+y2,colour);
200025f8:	fe842703          	lw	a4,-24(s0)
200025fc:	fe042783          	lw	a5,-32(s0)
20002600:	00f707b3          	add	a5,a4,a5
20002604:	fde45703          	lhu	a4,-34(s0)
20002608:	00078693          	mv	a3,a5
2000260c:	fec42603          	lw	a2,-20(s0)
20002610:	fe842583          	lw	a1,-24(s0)
20002614:	fec42503          	lw	a0,-20(s0)
20002618:	d61ff0ef          	jal	20002378 <hw_tft_line>
		hw_tft_line(x1+x2,y1,x1+x2,y1+y2,colour);
2000261c:	fec42703          	lw	a4,-20(s0)
20002620:	fe442783          	lw	a5,-28(s0)
20002624:	00f70533          	add	a0,a4,a5
20002628:	fec42703          	lw	a4,-20(s0)
2000262c:	fe442783          	lw	a5,-28(s0)
20002630:	00f70633          	add	a2,a4,a5
20002634:	fe842703          	lw	a4,-24(s0)
20002638:	fe042783          	lw	a5,-32(s0)
2000263c:	00f707b3          	add	a5,a4,a5
20002640:	fde45703          	lhu	a4,-34(s0)
20002644:	00078693          	mv	a3,a5
20002648:	fe842583          	lw	a1,-24(s0)
2000264c:	d2dff0ef          	jal	20002378 <hw_tft_line>
		hw_tft_line(x1,y1+y2,x1+x2,y1+y2,colour);		
20002650:	fe842703          	lw	a4,-24(s0)
20002654:	fe042783          	lw	a5,-32(s0)
20002658:	00f705b3          	add	a1,a4,a5
2000265c:	fec42703          	lw	a4,-20(s0)
20002660:	fe442783          	lw	a5,-28(s0)
20002664:	00f70633          	add	a2,a4,a5
20002668:	fe842703          	lw	a4,-24(s0)
2000266c:	fe042783          	lw	a5,-32(s0)
20002670:	00f707b3          	add	a5,a4,a5
20002674:	fde45703          	lhu	a4,-34(s0)
20002678:	00078693          	mv	a3,a5
2000267c:	fec42503          	lw	a0,-20(s0)
20002680:	cf9ff0ef          	jal	20002378 <hw_tft_line>
}  
20002684:	00000013          	nop
20002688:	02c12083          	lw	ra,44(sp)
2000268c:	02812403          	lw	s0,40(sp)
20002690:	03010113          	addi	sp,sp,48
20002694:	00008067          	ret

20002698 <hw_tft_ellipse>:

void hw_tft_ellipse (int xc, int yc, int rx, int ry, uint16_t colour, int fill) 
{
20002698:	fa010113          	addi	sp,sp,-96
2000269c:	04112e23          	sw	ra,92(sp)
200026a0:	04812c23          	sw	s0,88(sp)
200026a4:	05212a23          	sw	s2,84(sp)
200026a8:	05312823          	sw	s3,80(sp)
200026ac:	05412623          	sw	s4,76(sp)
200026b0:	05512423          	sw	s5,72(sp)
200026b4:	06010413          	addi	s0,sp,96
200026b8:	faa42e23          	sw	a0,-68(s0)
200026bc:	fab42c23          	sw	a1,-72(s0)
200026c0:	fac42a23          	sw	a2,-76(s0)
200026c4:	fad42823          	sw	a3,-80(s0)
200026c8:	faf42423          	sw	a5,-88(s0)
200026cc:	00070793          	mv	a5,a4
200026d0:	faf41723          	sh	a5,-82(s0)
  // Draw points based on 4-way symmetry.
  float d1,dx,dy;
  
  int x = 0;
200026d4:	fc042823          	sw	zero,-48(s0)
  int y = ry;
200026d8:	fb042783          	lw	a5,-80(s0)
200026dc:	fcf42623          	sw	a5,-52(s0)

  // Initial decision parameter of region 1.
  d1 = (ry * ry) - (rx * rx * ry) + (0.25 * rx * rx);
200026e0:	fb042783          	lw	a5,-80(s0)
200026e4:	02f78733          	mul	a4,a5,a5
200026e8:	fb442783          	lw	a5,-76(s0)
200026ec:	02f786b3          	mul	a3,a5,a5
200026f0:	fb042783          	lw	a5,-80(s0)
200026f4:	02f687b3          	mul	a5,a3,a5
200026f8:	40f707b3          	sub	a5,a4,a5
200026fc:	00078513          	mv	a0,a5
20002700:	5e1030ef          	jal	200064e0 <__floatsidf>
20002704:	00050913          	mv	s2,a0
20002708:	00058993          	mv	s3,a1
2000270c:	fb442503          	lw	a0,-76(s0)
20002710:	5d1030ef          	jal	200064e0 <__floatsidf>
20002714:	00050713          	mv	a4,a0
20002718:	00058793          	mv	a5,a1
2000271c:	200096b7          	lui	a3,0x20009
20002720:	ca86a603          	lw	a2,-856(a3) # 20008ca8 <_malloc_usable_size_r+0x20>
20002724:	cac6a683          	lw	a3,-852(a3)
20002728:	00070513          	mv	a0,a4
2000272c:	00078593          	mv	a1,a5
20002730:	361020ef          	jal	20005290 <__muldf3>
20002734:	00050713          	mv	a4,a0
20002738:	00058793          	mv	a5,a1
2000273c:	00070a13          	mv	s4,a4
20002740:	00078a93          	mv	s5,a5
20002744:	fb442503          	lw	a0,-76(s0)
20002748:	599030ef          	jal	200064e0 <__floatsidf>
2000274c:	00050713          	mv	a4,a0
20002750:	00058793          	mv	a5,a1
20002754:	00070613          	mv	a2,a4
20002758:	00078693          	mv	a3,a5
2000275c:	000a0513          	mv	a0,s4
20002760:	000a8593          	mv	a1,s5
20002764:	32d020ef          	jal	20005290 <__muldf3>
20002768:	00050713          	mv	a4,a0
2000276c:	00058793          	mv	a5,a1
20002770:	00070613          	mv	a2,a4
20002774:	00078693          	mv	a3,a5
20002778:	00090513          	mv	a0,s2
2000277c:	00098593          	mv	a1,s3
20002780:	06c020ef          	jal	200047ec <__adddf3>
20002784:	00050713          	mv	a4,a0
20002788:	00058793          	mv	a5,a1
2000278c:	00070513          	mv	a0,a4
20002790:	00078593          	mv	a1,a5
20002794:	5ed030ef          	jal	20006580 <__truncdfsf2>
20002798:	20a507d3          	fmv.s	fa5,fa0
2000279c:	fcf42e27          	fsw	fa5,-36(s0)
  dx = 2 * ry * ry * x;
200027a0:	fb042783          	lw	a5,-80(s0)
200027a4:	02f78733          	mul	a4,a5,a5
200027a8:	fd042783          	lw	a5,-48(s0)
200027ac:	02f707b3          	mul	a5,a4,a5
200027b0:	00179793          	slli	a5,a5,0x1
200027b4:	d007f7d3          	fcvt.s.w	fa5,a5
200027b8:	fcf42c27          	fsw	fa5,-40(s0)
  dy = 2 * rx * rx * y;
200027bc:	fb442783          	lw	a5,-76(s0)
200027c0:	02f78733          	mul	a4,a5,a5
200027c4:	fcc42783          	lw	a5,-52(s0)
200027c8:	02f707b3          	mul	a5,a4,a5
200027cc:	00179793          	slli	a5,a5,0x1
200027d0:	d007f7d3          	fcvt.s.w	fa5,a5
200027d4:	fcf42a27          	fsw	fa5,-44(s0)

  // For region 1
  while (dx < dy) {
200027d8:	0f80006f          	j	200028d0 <hw_tft_ellipse+0x238>
    _draw_quadrants(x, y,xc,yc,colour,fill);
200027dc:	fae45703          	lhu	a4,-82(s0)
200027e0:	fa842783          	lw	a5,-88(s0)
200027e4:	fb842683          	lw	a3,-72(s0)
200027e8:	fbc42603          	lw	a2,-68(s0)
200027ec:	fcc42583          	lw	a1,-52(s0)
200027f0:	fd042503          	lw	a0,-48(s0)
200027f4:	f50ff0ef          	jal	20001f44 <_draw_quadrants>
    
    // Checking and updating value of decision parameter based on algorithm
    if (d1 < 0) {
200027f8:	fdc42787          	flw	fa5,-36(s0)
200027fc:	f0000753          	fmv.w.x	fa4,zero
20002800:	a0e797d3          	flt.s	a5,fa5,fa4
20002804:	00079463          	bnez	a5,2000280c <hw_tft_ellipse+0x174>
20002808:	0500006f          	j	20002858 <hw_tft_ellipse+0x1c0>
      x++;
2000280c:	fd042783          	lw	a5,-48(s0)
20002810:	00178793          	addi	a5,a5,1
20002814:	fcf42823          	sw	a5,-48(s0)
      dx = dx + (2 * ry * ry);
20002818:	fb042783          	lw	a5,-80(s0)
2000281c:	02f787b3          	mul	a5,a5,a5
20002820:	00179793          	slli	a5,a5,0x1
20002824:	d007f7d3          	fcvt.s.w	fa5,a5
20002828:	fd842707          	flw	fa4,-40(s0)
2000282c:	00f777d3          	fadd.s	fa5,fa4,fa5
20002830:	fcf42c27          	fsw	fa5,-40(s0)
      d1 = d1 + dx + (ry * ry);
20002834:	fdc42707          	flw	fa4,-36(s0)
20002838:	fd842787          	flw	fa5,-40(s0)
2000283c:	00f77753          	fadd.s	fa4,fa4,fa5
20002840:	fb042783          	lw	a5,-80(s0)
20002844:	02f787b3          	mul	a5,a5,a5
20002848:	d007f7d3          	fcvt.s.w	fa5,a5
2000284c:	00f777d3          	fadd.s	fa5,fa4,fa5
20002850:	fcf42e27          	fsw	fa5,-36(s0)
20002854:	07c0006f          	j	200028d0 <hw_tft_ellipse+0x238>
    } else {
      x++;
20002858:	fd042783          	lw	a5,-48(s0)
2000285c:	00178793          	addi	a5,a5,1
20002860:	fcf42823          	sw	a5,-48(s0)
      y--;
20002864:	fcc42783          	lw	a5,-52(s0)
20002868:	fff78793          	addi	a5,a5,-1
2000286c:	fcf42623          	sw	a5,-52(s0)
      dx = dx + (2 * ry * ry);
20002870:	fb042783          	lw	a5,-80(s0)
20002874:	02f787b3          	mul	a5,a5,a5
20002878:	00179793          	slli	a5,a5,0x1
2000287c:	d007f7d3          	fcvt.s.w	fa5,a5
20002880:	fd842707          	flw	fa4,-40(s0)
20002884:	00f777d3          	fadd.s	fa5,fa4,fa5
20002888:	fcf42c27          	fsw	fa5,-40(s0)
      dy = dy - (2 * rx * rx);
2000288c:	fb442783          	lw	a5,-76(s0)
20002890:	02f787b3          	mul	a5,a5,a5
20002894:	00179793          	slli	a5,a5,0x1
20002898:	d007f7d3          	fcvt.s.w	fa5,a5
2000289c:	fd442707          	flw	fa4,-44(s0)
200028a0:	08f777d3          	fsub.s	fa5,fa4,fa5
200028a4:	fcf42a27          	fsw	fa5,-44(s0)
      d1 = d1 + dx - dy + (ry * ry);
200028a8:	fdc42707          	flw	fa4,-36(s0)
200028ac:	fd842787          	flw	fa5,-40(s0)
200028b0:	00f77753          	fadd.s	fa4,fa4,fa5
200028b4:	fd442787          	flw	fa5,-44(s0)
200028b8:	08f77753          	fsub.s	fa4,fa4,fa5
200028bc:	fb042783          	lw	a5,-80(s0)
200028c0:	02f787b3          	mul	a5,a5,a5
200028c4:	d007f7d3          	fcvt.s.w	fa5,a5
200028c8:	00f777d3          	fadd.s	fa5,fa4,fa5
200028cc:	fcf42e27          	fsw	fa5,-36(s0)
  while (dx < dy) {
200028d0:	fd842707          	flw	fa4,-40(s0)
200028d4:	fd442787          	flw	fa5,-44(s0)
200028d8:	a0f717d3          	flt.s	a5,fa4,fa5
200028dc:	f00790e3          	bnez	a5,200027dc <hw_tft_ellipse+0x144>
    }
  }

  // Decision parameter of region 2
  float d2 = ((ry * ry) * ((x + 0.5) * (x + 0.5))) + ((rx * rx) * ((y - 1) * (y - 1))) - (rx * rx * ry * ry);
200028e0:	fb042783          	lw	a5,-80(s0)
200028e4:	02f787b3          	mul	a5,a5,a5
200028e8:	00078513          	mv	a0,a5
200028ec:	3f5030ef          	jal	200064e0 <__floatsidf>
200028f0:	00050913          	mv	s2,a0
200028f4:	00058993          	mv	s3,a1
200028f8:	fd042503          	lw	a0,-48(s0)
200028fc:	3e5030ef          	jal	200064e0 <__floatsidf>
20002900:	00050713          	mv	a4,a0
20002904:	00058793          	mv	a5,a1
20002908:	200096b7          	lui	a3,0x20009
2000290c:	cb06a603          	lw	a2,-848(a3) # 20008cb0 <_malloc_usable_size_r+0x28>
20002910:	cb46a683          	lw	a3,-844(a3)
20002914:	00070513          	mv	a0,a4
20002918:	00078593          	mv	a1,a5
2000291c:	6d1010ef          	jal	200047ec <__adddf3>
20002920:	00050713          	mv	a4,a0
20002924:	00058793          	mv	a5,a1
20002928:	00070a13          	mv	s4,a4
2000292c:	00078a93          	mv	s5,a5
20002930:	fd042503          	lw	a0,-48(s0)
20002934:	3ad030ef          	jal	200064e0 <__floatsidf>
20002938:	00050713          	mv	a4,a0
2000293c:	00058793          	mv	a5,a1
20002940:	200096b7          	lui	a3,0x20009
20002944:	cb06a603          	lw	a2,-848(a3) # 20008cb0 <_malloc_usable_size_r+0x28>
20002948:	cb46a683          	lw	a3,-844(a3)
2000294c:	00070513          	mv	a0,a4
20002950:	00078593          	mv	a1,a5
20002954:	699010ef          	jal	200047ec <__adddf3>
20002958:	00050713          	mv	a4,a0
2000295c:	00058793          	mv	a5,a1
20002960:	00070613          	mv	a2,a4
20002964:	00078693          	mv	a3,a5
20002968:	000a0513          	mv	a0,s4
2000296c:	000a8593          	mv	a1,s5
20002970:	121020ef          	jal	20005290 <__muldf3>
20002974:	00050713          	mv	a4,a0
20002978:	00058793          	mv	a5,a1
2000297c:	00070613          	mv	a2,a4
20002980:	00078693          	mv	a3,a5
20002984:	00090513          	mv	a0,s2
20002988:	00098593          	mv	a1,s3
2000298c:	105020ef          	jal	20005290 <__muldf3>
20002990:	00050713          	mv	a4,a0
20002994:	00058793          	mv	a5,a1
20002998:	00070913          	mv	s2,a4
2000299c:	00078993          	mv	s3,a5
200029a0:	fb442783          	lw	a5,-76(s0)
200029a4:	02f78733          	mul	a4,a5,a5
200029a8:	fcc42783          	lw	a5,-52(s0)
200029ac:	fff78693          	addi	a3,a5,-1
200029b0:	fcc42783          	lw	a5,-52(s0)
200029b4:	fff78793          	addi	a5,a5,-1
200029b8:	02f687b3          	mul	a5,a3,a5
200029bc:	02f707b3          	mul	a5,a4,a5
200029c0:	00078513          	mv	a0,a5
200029c4:	31d030ef          	jal	200064e0 <__floatsidf>
200029c8:	00050713          	mv	a4,a0
200029cc:	00058793          	mv	a5,a1
200029d0:	00070613          	mv	a2,a4
200029d4:	00078693          	mv	a3,a5
200029d8:	00090513          	mv	a0,s2
200029dc:	00098593          	mv	a1,s3
200029e0:	60d010ef          	jal	200047ec <__adddf3>
200029e4:	00050713          	mv	a4,a0
200029e8:	00058793          	mv	a5,a1
200029ec:	00070913          	mv	s2,a4
200029f0:	00078993          	mv	s3,a5
200029f4:	fb442783          	lw	a5,-76(s0)
200029f8:	02f78733          	mul	a4,a5,a5
200029fc:	fb042783          	lw	a5,-80(s0)
20002a00:	02f70733          	mul	a4,a4,a5
20002a04:	fb042783          	lw	a5,-80(s0)
20002a08:	02f707b3          	mul	a5,a4,a5
20002a0c:	00078513          	mv	a0,a5
20002a10:	2d1030ef          	jal	200064e0 <__floatsidf>
20002a14:	00050713          	mv	a4,a0
20002a18:	00058793          	mv	a5,a1
20002a1c:	00070613          	mv	a2,a4
20002a20:	00078693          	mv	a3,a5
20002a24:	00090513          	mv	a0,s2
20002a28:	00098593          	mv	a1,s3
20002a2c:	7fd020ef          	jal	20005a28 <__subdf3>
20002a30:	00050713          	mv	a4,a0
20002a34:	00058793          	mv	a5,a1
20002a38:	00070513          	mv	a0,a4
20002a3c:	00078593          	mv	a1,a5
20002a40:	341030ef          	jal	20006580 <__truncdfsf2>
20002a44:	20a507d3          	fmv.s	fa5,fa0
20002a48:	fcf42427          	fsw	fa5,-56(s0)
  
  // Plotting points of region 2
  while (y >= 0) {
20002a4c:	0f80006f          	j	20002b44 <hw_tft_ellipse+0x4ac>
    //drawQuadrants(x, y);
    _draw_quadrants(x, y,xc,yc,colour,fill);
20002a50:	fae45703          	lhu	a4,-82(s0)
20002a54:	fa842783          	lw	a5,-88(s0)
20002a58:	fb842683          	lw	a3,-72(s0)
20002a5c:	fbc42603          	lw	a2,-68(s0)
20002a60:	fcc42583          	lw	a1,-52(s0)
20002a64:	fd042503          	lw	a0,-48(s0)
20002a68:	cdcff0ef          	jal	20001f44 <_draw_quadrants>
   
    // Checking and updating parameter value based on algorithm
    if (d2 > 0) {
20002a6c:	fc842787          	flw	fa5,-56(s0)
20002a70:	f0000753          	fmv.w.x	fa4,zero
20002a74:	a0f717d3          	flt.s	a5,fa4,fa5
20002a78:	00079463          	bnez	a5,20002a80 <hw_tft_ellipse+0x3e8>
20002a7c:	0500006f          	j	20002acc <hw_tft_ellipse+0x434>
      y--;
20002a80:	fcc42783          	lw	a5,-52(s0)
20002a84:	fff78793          	addi	a5,a5,-1
20002a88:	fcf42623          	sw	a5,-52(s0)
      dy = dy - (2 * rx * rx);
20002a8c:	fb442783          	lw	a5,-76(s0)
20002a90:	02f787b3          	mul	a5,a5,a5
20002a94:	00179793          	slli	a5,a5,0x1
20002a98:	d007f7d3          	fcvt.s.w	fa5,a5
20002a9c:	fd442707          	flw	fa4,-44(s0)
20002aa0:	08f777d3          	fsub.s	fa5,fa4,fa5
20002aa4:	fcf42a27          	fsw	fa5,-44(s0)
      d2 = d2 + (rx * rx) - dy;
20002aa8:	fb442783          	lw	a5,-76(s0)
20002aac:	02f787b3          	mul	a5,a5,a5
20002ab0:	d007f753          	fcvt.s.w	fa4,a5
20002ab4:	fc842787          	flw	fa5,-56(s0)
20002ab8:	00f77753          	fadd.s	fa4,fa4,fa5
20002abc:	fd442787          	flw	fa5,-44(s0)
20002ac0:	08f777d3          	fsub.s	fa5,fa4,fa5
20002ac4:	fcf42427          	fsw	fa5,-56(s0)
20002ac8:	07c0006f          	j	20002b44 <hw_tft_ellipse+0x4ac>
    } else {
      y--;
20002acc:	fcc42783          	lw	a5,-52(s0)
20002ad0:	fff78793          	addi	a5,a5,-1
20002ad4:	fcf42623          	sw	a5,-52(s0)
      x++;
20002ad8:	fd042783          	lw	a5,-48(s0)
20002adc:	00178793          	addi	a5,a5,1
20002ae0:	fcf42823          	sw	a5,-48(s0)
      dx = dx + (2 * ry * ry);
20002ae4:	fb042783          	lw	a5,-80(s0)
20002ae8:	02f787b3          	mul	a5,a5,a5
20002aec:	00179793          	slli	a5,a5,0x1
20002af0:	d007f7d3          	fcvt.s.w	fa5,a5
20002af4:	fd842707          	flw	fa4,-40(s0)
20002af8:	00f777d3          	fadd.s	fa5,fa4,fa5
20002afc:	fcf42c27          	fsw	fa5,-40(s0)
      dy = dy - (2 * rx * rx);
20002b00:	fb442783          	lw	a5,-76(s0)
20002b04:	02f787b3          	mul	a5,a5,a5
20002b08:	00179793          	slli	a5,a5,0x1
20002b0c:	d007f7d3          	fcvt.s.w	fa5,a5
20002b10:	fd442707          	flw	fa4,-44(s0)
20002b14:	08f777d3          	fsub.s	fa5,fa4,fa5
20002b18:	fcf42a27          	fsw	fa5,-44(s0)
      d2 = d2 + dx - dy + (rx * rx);
20002b1c:	fc842707          	flw	fa4,-56(s0)
20002b20:	fd842787          	flw	fa5,-40(s0)
20002b24:	00f77753          	fadd.s	fa4,fa4,fa5
20002b28:	fd442787          	flw	fa5,-44(s0)
20002b2c:	08f77753          	fsub.s	fa4,fa4,fa5
20002b30:	fb442783          	lw	a5,-76(s0)
20002b34:	02f787b3          	mul	a5,a5,a5
20002b38:	d007f7d3          	fcvt.s.w	fa5,a5
20002b3c:	00f777d3          	fadd.s	fa5,fa4,fa5
20002b40:	fcf42427          	fsw	fa5,-56(s0)
  while (y >= 0) {
20002b44:	fcc42783          	lw	a5,-52(s0)
20002b48:	f007d4e3          	bgez	a5,20002a50 <hw_tft_ellipse+0x3b8>
    }
  }
}
20002b4c:	00000013          	nop
20002b50:	00000013          	nop
20002b54:	05c12083          	lw	ra,92(sp)
20002b58:	05812403          	lw	s0,88(sp)
20002b5c:	05412903          	lw	s2,84(sp)
20002b60:	05012983          	lw	s3,80(sp)
20002b64:	04c12a03          	lw	s4,76(sp)
20002b68:	04812a83          	lw	s5,72(sp)
20002b6c:	06010113          	addi	sp,sp,96
20002b70:	00008067          	ret

20002b74 <hw_tft_init>:

int hw_tft_init(int option)
{  
20002b74:	fe010113          	addi	sp,sp,-32
20002b78:	00112e23          	sw	ra,28(sp)
20002b7c:	00812c23          	sw	s0,24(sp)
20002b80:	02010413          	addi	s0,sp,32
20002b84:	fea42623          	sw	a0,-20(s0)
	switch( option & 7 )
20002b88:	fec42783          	lw	a5,-20(s0)
20002b8c:	0077f793          	andi	a5,a5,7
20002b90:	00200713          	li	a4,2
20002b94:	00f74663          	blt	a4,a5,20002ba0 <hw_tft_init+0x2c>
20002b98:	00f04c63          	bgtz	a5,20002bb0 <hw_tft_init+0x3c>
20002b9c:	00c0006f          	j	20002ba8 <hw_tft_init+0x34>
20002ba0:	00400713          	li	a4,4
20002ba4:	00e78663          	beq	a5,a4,20002bb0 <hw_tft_init+0x3c>
	{
		case 1: case 2: case 4:
		break;	/* Ok driver select */
		default: return 0;
20002ba8:	00000793          	li	a5,0
20002bac:	0e10006f          	j	2000348c <hw_tft_init+0x918>
		break;	/* Ok driver select */
20002bb0:	00000013          	nop
	}
	_option = option;
20002bb4:	200097b7          	lui	a5,0x20009
20002bb8:	fec42703          	lw	a4,-20(s0)
20002bbc:	18e7a823          	sw	a4,400(a5) # 20009190 <_option>
	


  * RCC_APB1PCENR |= TIM7EN;	/* Enable and calm timer 7 (used for delays... */
20002bc0:	400217b7          	lui	a5,0x40021
20002bc4:	01c78793          	addi	a5,a5,28 # 4002101c <__stack_top+0x20017118>
20002bc8:	0007a703          	lw	a4,0(a5)
20002bcc:	400217b7          	lui	a5,0x40021
20002bd0:	01c78793          	addi	a5,a5,28 # 4002101c <__stack_top+0x20017118>
20002bd4:	02076713          	ori	a4,a4,32
20002bd8:	00e7a023          	sw	a4,0(a5)
  * RCC_APB1PRSTR |= TIM7EN;
20002bdc:	400217b7          	lui	a5,0x40021
20002be0:	01078793          	addi	a5,a5,16 # 40021010 <__stack_top+0x2001710c>
20002be4:	0007a703          	lw	a4,0(a5)
20002be8:	400217b7          	lui	a5,0x40021
20002bec:	01078793          	addi	a5,a5,16 # 40021010 <__stack_top+0x2001710c>
20002bf0:	02076713          	ori	a4,a4,32
20002bf4:	00e7a023          	sw	a4,0(a5)
  * RCC_APB1PRSTR &= ~TIM7EN;
20002bf8:	400217b7          	lui	a5,0x40021
20002bfc:	01078793          	addi	a5,a5,16 # 40021010 <__stack_top+0x2001710c>
20002c00:	0007a703          	lw	a4,0(a5)
20002c04:	400217b7          	lui	a5,0x40021
20002c08:	01078793          	addi	a5,a5,16 # 40021010 <__stack_top+0x2001710c>
20002c0c:	fdf77713          	andi	a4,a4,-33
20002c10:	00e7a023          	sw	a4,0(a5)
	*TIM7_CTLR1 = 0;
20002c14:	400017b7          	lui	a5,0x40001
20002c18:	40078793          	addi	a5,a5,1024 # 40001400 <__stack_top+0x1fff74fc>
20002c1c:	00079023          	sh	zero,0(a5)
	tft_display_init(); 	
20002c20:	bb0fe0ef          	jal	20000fd0 <tft_display_init>
	/* Reset the TFT */
	LCD_LED_CLR;	 
20002c24:	400117b7          	lui	a5,0x40011
20002c28:	c0c78793          	addi	a5,a5,-1012 # 40010c0c <__stack_top+0x20006d08>
20002c2c:	0007d783          	lhu	a5,0(a5)
20002c30:	01079693          	slli	a3,a5,0x10
20002c34:	0106d693          	srli	a3,a3,0x10
20002c38:	400117b7          	lui	a5,0x40011
20002c3c:	c0c78793          	addi	a5,a5,-1012 # 40010c0c <__stack_top+0x20006d08>
20002c40:	ffffe737          	lui	a4,0xffffe
20002c44:	fff70713          	addi	a4,a4,-1 # ffffdfff <__stack_top+0xdfff40fb>
20002c48:	00e6f733          	and	a4,a3,a4
20002c4c:	01071713          	slli	a4,a4,0x10
20002c50:	01075713          	srli	a4,a4,0x10
20002c54:	00e79023          	sh	a4,0(a5)
	LCD_RST_CLR;
20002c58:	400117b7          	lui	a5,0x40011
20002c5c:	c0c78793          	addi	a5,a5,-1012 # 40010c0c <__stack_top+0x20006d08>
20002c60:	0007d783          	lhu	a5,0(a5)
20002c64:	01079693          	slli	a3,a5,0x10
20002c68:	0106d693          	srli	a3,a3,0x10
20002c6c:	400117b7          	lui	a5,0x40011
20002c70:	c0c78793          	addi	a5,a5,-1012 # 40010c0c <__stack_top+0x20006d08>
20002c74:	fffff737          	lui	a4,0xfffff
20002c78:	fff70713          	addi	a4,a4,-1 # ffffefff <__stack_top+0xdfff50fb>
20002c7c:	00e6f733          	and	a4,a3,a4
20002c80:	01071713          	slli	a4,a4,0x10
20002c84:	01075713          	srli	a4,a4,0x10
20002c88:	00e79023          	sh	a4,0(a5)
	_delay_ms(200);	
20002c8c:	0c800513          	li	a0,200
20002c90:	968fe0ef          	jal	20000df8 <_delay_ms>
	LCD_RST_SET;
20002c94:	400117b7          	lui	a5,0x40011
20002c98:	c0c78793          	addi	a5,a5,-1012 # 40010c0c <__stack_top+0x20006d08>
20002c9c:	0007d783          	lhu	a5,0(a5)
20002ca0:	01079693          	slli	a3,a5,0x10
20002ca4:	0106d693          	srli	a3,a3,0x10
20002ca8:	400117b7          	lui	a5,0x40011
20002cac:	c0c78793          	addi	a5,a5,-1012 # 40010c0c <__stack_top+0x20006d08>
20002cb0:	00001737          	lui	a4,0x1
20002cb4:	00e6e733          	or	a4,a3,a4
20002cb8:	01071713          	slli	a4,a4,0x10
20002cbc:	01075713          	srli	a4,a4,0x10
20002cc0:	00e79023          	sh	a4,0(a5)
	_delay_ms(120);
20002cc4:	07800513          	li	a0,120
20002cc8:	930fe0ef          	jal	20000df8 <_delay_ms>
	
	/* Start init */
 	lcd_write_register(0x01);	/* Software reset */
20002ccc:	00100513          	li	a0,1
20002cd0:	ec8fe0ef          	jal	20001398 <lcd_write_register>
	
	if( option & TFT_INIT_ST7796S )
20002cd4:	fec42783          	lw	a5,-20(s0)
20002cd8:	0027f793          	andi	a5,a5,2
20002cdc:	28078863          	beqz	a5,20002f6c <hw_tft_init+0x3f8>
	{
		lcd_write_register(0xF0);
20002ce0:	0f000513          	li	a0,240
20002ce4:	eb4fe0ef          	jal	20001398 <lcd_write_register>
		lcd_write_data(0xC3);
20002ce8:	0c300513          	li	a0,195
20002cec:	f80fe0ef          	jal	2000146c <lcd_write_data>
		
		lcd_write_register(0xF0);
20002cf0:	0f000513          	li	a0,240
20002cf4:	ea4fe0ef          	jal	20001398 <lcd_write_register>
		lcd_write_data(0x96);
20002cf8:	09600513          	li	a0,150
20002cfc:	f70fe0ef          	jal	2000146c <lcd_write_data>
		
		lcd_write_register(0x36);
20002d00:	03600513          	li	a0,54
20002d04:	e94fe0ef          	jal	20001398 <lcd_write_register>
		lcd_write_data(0x68);	
20002d08:	06800513          	li	a0,104
20002d0c:	f60fe0ef          	jal	2000146c <lcd_write_data>
		
		lcd_write_register(0x3A);
20002d10:	03a00513          	li	a0,58
20002d14:	e84fe0ef          	jal	20001398 <lcd_write_register>
		lcd_write_data(0x05);
20002d18:	00500513          	li	a0,5
20002d1c:	f50fe0ef          	jal	2000146c <lcd_write_data>
		
		lcd_write_register(0xB0);
20002d20:	0b000513          	li	a0,176
20002d24:	e74fe0ef          	jal	20001398 <lcd_write_register>
		lcd_write_data(0x80);	
20002d28:	08000513          	li	a0,128
20002d2c:	f40fe0ef          	jal	2000146c <lcd_write_data>
		
		lcd_write_register(0xB6);
20002d30:	0b600513          	li	a0,182
20002d34:	e64fe0ef          	jal	20001398 <lcd_write_register>
		lcd_write_data(0x00);
20002d38:	00000513          	li	a0,0
20002d3c:	f30fe0ef          	jal	2000146c <lcd_write_data>
		lcd_write_data(0x02);	
20002d40:	00200513          	li	a0,2
20002d44:	f28fe0ef          	jal	2000146c <lcd_write_data>

		lcd_write_register(0xB5);
20002d48:	0b500513          	li	a0,181
20002d4c:	e4cfe0ef          	jal	20001398 <lcd_write_register>
		lcd_write_data(0x02);	/* VFP */
20002d50:	00200513          	li	a0,2
20002d54:	f18fe0ef          	jal	2000146c <lcd_write_data>
		lcd_write_data(0x03);	/* VBP */
20002d58:	00300513          	li	a0,3
20002d5c:	f10fe0ef          	jal	2000146c <lcd_write_data>
		lcd_write_data(0x00);
20002d60:	00000513          	li	a0,0
20002d64:	f08fe0ef          	jal	2000146c <lcd_write_data>
		lcd_write_data(0x04);	/*HBP */
20002d68:	00400513          	li	a0,4
20002d6c:	f00fe0ef          	jal	2000146c <lcd_write_data>
		
		lcd_write_register(0xB1);
20002d70:	0b100513          	li	a0,177
20002d74:	e24fe0ef          	jal	20001398 <lcd_write_register>
		lcd_write_data(0x80);	
20002d78:	08000513          	li	a0,128
20002d7c:	ef0fe0ef          	jal	2000146c <lcd_write_data>
		lcd_write_data(0x10);	
20002d80:	01000513          	li	a0,16
20002d84:	ee8fe0ef          	jal	2000146c <lcd_write_data>

		lcd_write_register(0xB4);
20002d88:	0b400513          	li	a0,180
20002d8c:	e0cfe0ef          	jal	20001398 <lcd_write_register>
		lcd_write_data(0x00);
20002d90:	00000513          	li	a0,0
20002d94:	ed8fe0ef          	jal	2000146c <lcd_write_data>
		
		lcd_write_register(0xB7);
20002d98:	0b700513          	li	a0,183
20002d9c:	dfcfe0ef          	jal	20001398 <lcd_write_register>
		lcd_write_data(0xC6);
20002da0:	0c600513          	li	a0,198
20002da4:	ec8fe0ef          	jal	2000146c <lcd_write_data>
		
		lcd_write_register(0xC5);
20002da8:	0c500513          	li	a0,197
20002dac:	decfe0ef          	jal	20001398 <lcd_write_register>
		lcd_write_data(0x24);
20002db0:	02400513          	li	a0,36
20002db4:	eb8fe0ef          	jal	2000146c <lcd_write_data>
		
		lcd_write_register(0xE4);
20002db8:	0e400513          	li	a0,228
20002dbc:	ddcfe0ef          	jal	20001398 <lcd_write_register>
		lcd_write_data(0x31);
20002dc0:	03100513          	li	a0,49
20002dc4:	ea8fe0ef          	jal	2000146c <lcd_write_data>
		
		lcd_write_register(0xE8);
20002dc8:	0e800513          	li	a0,232
20002dcc:	dccfe0ef          	jal	20001398 <lcd_write_register>
		lcd_write_data(0x40);
20002dd0:	04000513          	li	a0,64
20002dd4:	e98fe0ef          	jal	2000146c <lcd_write_data>
		lcd_write_data(0x8A);
20002dd8:	08a00513          	li	a0,138
20002ddc:	e90fe0ef          	jal	2000146c <lcd_write_data>
		lcd_write_data(0x00);
20002de0:	00000513          	li	a0,0
20002de4:	e88fe0ef          	jal	2000146c <lcd_write_data>
		lcd_write_data(0x00);
20002de8:	00000513          	li	a0,0
20002dec:	e80fe0ef          	jal	2000146c <lcd_write_data>
		lcd_write_data(0x29);
20002df0:	02900513          	li	a0,41
20002df4:	e78fe0ef          	jal	2000146c <lcd_write_data>
		lcd_write_data(0x19);
20002df8:	01900513          	li	a0,25
20002dfc:	e70fe0ef          	jal	2000146c <lcd_write_data>
		lcd_write_data(0xA5);
20002e00:	0a500513          	li	a0,165
20002e04:	e68fe0ef          	jal	2000146c <lcd_write_data>
		lcd_write_data(0x33);
20002e08:	03300513          	li	a0,51
20002e0c:	e60fe0ef          	jal	2000146c <lcd_write_data>
		
		lcd_write_register(0xC2);
20002e10:	0c200513          	li	a0,194
20002e14:	d84fe0ef          	jal	20001398 <lcd_write_register>
		
		lcd_write_register(0xA7);
20002e18:	0a700513          	li	a0,167
20002e1c:	d7cfe0ef          	jal	20001398 <lcd_write_register>
		
		lcd_write_register(0xE0);
20002e20:	0e000513          	li	a0,224
20002e24:	d74fe0ef          	jal	20001398 <lcd_write_register>
		lcd_write_data(0xF0);
20002e28:	0f000513          	li	a0,240
20002e2c:	e40fe0ef          	jal	2000146c <lcd_write_data>
		lcd_write_data(0x09);
20002e30:	00900513          	li	a0,9
20002e34:	e38fe0ef          	jal	2000146c <lcd_write_data>
		lcd_write_data(0x13);
20002e38:	01300513          	li	a0,19
20002e3c:	e30fe0ef          	jal	2000146c <lcd_write_data>
		lcd_write_data(0x12);
20002e40:	01200513          	li	a0,18
20002e44:	e28fe0ef          	jal	2000146c <lcd_write_data>
		lcd_write_data(0x12);
20002e48:	01200513          	li	a0,18
20002e4c:	e20fe0ef          	jal	2000146c <lcd_write_data>
		lcd_write_data(0x2B);
20002e50:	02b00513          	li	a0,43
20002e54:	e18fe0ef          	jal	2000146c <lcd_write_data>
		lcd_write_data(0x3C);
20002e58:	03c00513          	li	a0,60
20002e5c:	e10fe0ef          	jal	2000146c <lcd_write_data>
		lcd_write_data(0x44);
20002e60:	04400513          	li	a0,68
20002e64:	e08fe0ef          	jal	2000146c <lcd_write_data>
		lcd_write_data(0x4B);
20002e68:	04b00513          	li	a0,75
20002e6c:	e00fe0ef          	jal	2000146c <lcd_write_data>
		lcd_write_data(0x1B);
20002e70:	01b00513          	li	a0,27
20002e74:	df8fe0ef          	jal	2000146c <lcd_write_data>
		lcd_write_data(0x18);
20002e78:	01800513          	li	a0,24
20002e7c:	df0fe0ef          	jal	2000146c <lcd_write_data>
		lcd_write_data(0x17);
20002e80:	01700513          	li	a0,23
20002e84:	de8fe0ef          	jal	2000146c <lcd_write_data>
		lcd_write_data(0x1D);
20002e88:	01d00513          	li	a0,29
20002e8c:	de0fe0ef          	jal	2000146c <lcd_write_data>
		lcd_write_data(0x21);
20002e90:	02100513          	li	a0,33
20002e94:	dd8fe0ef          	jal	2000146c <lcd_write_data>

		lcd_write_register(0XE1);
20002e98:	0e100513          	li	a0,225
20002e9c:	cfcfe0ef          	jal	20001398 <lcd_write_register>
		lcd_write_data(0xF0);
20002ea0:	0f000513          	li	a0,240
20002ea4:	dc8fe0ef          	jal	2000146c <lcd_write_data>
		lcd_write_data(0x09);
20002ea8:	00900513          	li	a0,9
20002eac:	dc0fe0ef          	jal	2000146c <lcd_write_data>
		lcd_write_data(0x13);
20002eb0:	01300513          	li	a0,19
20002eb4:	db8fe0ef          	jal	2000146c <lcd_write_data>
		lcd_write_data(0x0C);
20002eb8:	00c00513          	li	a0,12
20002ebc:	db0fe0ef          	jal	2000146c <lcd_write_data>
		lcd_write_data(0x0D);
20002ec0:	00d00513          	li	a0,13
20002ec4:	da8fe0ef          	jal	2000146c <lcd_write_data>
		lcd_write_data(0x27);
20002ec8:	02700513          	li	a0,39
20002ecc:	da0fe0ef          	jal	2000146c <lcd_write_data>
		lcd_write_data(0x3B);
20002ed0:	03b00513          	li	a0,59
20002ed4:	d98fe0ef          	jal	2000146c <lcd_write_data>
		lcd_write_data(0x44);
20002ed8:	04400513          	li	a0,68
20002edc:	d90fe0ef          	jal	2000146c <lcd_write_data>
		lcd_write_data(0x4D);
20002ee0:	04d00513          	li	a0,77
20002ee4:	d88fe0ef          	jal	2000146c <lcd_write_data>
		lcd_write_data(0x0B);
20002ee8:	00b00513          	li	a0,11
20002eec:	d80fe0ef          	jal	2000146c <lcd_write_data>
		lcd_write_data(0x17);
20002ef0:	01700513          	li	a0,23
20002ef4:	d78fe0ef          	jal	2000146c <lcd_write_data>
		lcd_write_data(0x17);
20002ef8:	01700513          	li	a0,23
20002efc:	d70fe0ef          	jal	2000146c <lcd_write_data>
		lcd_write_data(0x1D);
20002f00:	01d00513          	li	a0,29
20002f04:	d68fe0ef          	jal	2000146c <lcd_write_data>
		lcd_write_data(0x21);
20002f08:	02100513          	li	a0,33
20002f0c:	d60fe0ef          	jal	2000146c <lcd_write_data>

		lcd_write_register(0X36);
20002f10:	03600513          	li	a0,54
20002f14:	c84fe0ef          	jal	20001398 <lcd_write_register>
		lcd_write_data(0xEC);
20002f18:	0ec00513          	li	a0,236
20002f1c:	d50fe0ef          	jal	2000146c <lcd_write_data>
		lcd_write_register(0xF0);
20002f20:	0f000513          	li	a0,240
20002f24:	c74fe0ef          	jal	20001398 <lcd_write_register>
		lcd_write_data(0xC3);
20002f28:	0c300513          	li	a0,195
20002f2c:	d40fe0ef          	jal	2000146c <lcd_write_data>
		lcd_write_register(0xF0);
20002f30:	0f000513          	li	a0,240
20002f34:	c64fe0ef          	jal	20001398 <lcd_write_register>
		lcd_write_data(0x69);		
20002f38:	06900513          	li	a0,105
20002f3c:	d30fe0ef          	jal	2000146c <lcd_write_data>
		lcd_write_register(0X13);
20002f40:	01300513          	li	a0,19
20002f44:	c54fe0ef          	jal	20001398 <lcd_write_register>
		
		lcd_write_register(0x13);
20002f48:	01300513          	li	a0,19
20002f4c:	c4cfe0ef          	jal	20001398 <lcd_write_register>
		lcd_write_register(0x11);
20002f50:	01100513          	li	a0,17
20002f54:	c44fe0ef          	jal	20001398 <lcd_write_register>
		lcd_write_register(0x29);
20002f58:	02900513          	li	a0,41
20002f5c:	c3cfe0ef          	jal	20001398 <lcd_write_register>
		_tft_lcd_direction(1);	
20002f60:	00100513          	li	a0,1
20002f64:	b41fe0ef          	jal	20001aa4 <_tft_lcd_direction>
20002f68:	4a00006f          	j	20003408 <hw_tft_init+0x894>
	}
	else if( option & TFT_INIT_ILI9488 )
20002f6c:	fec42783          	lw	a5,-20(s0)
20002f70:	0017f793          	andi	a5,a5,1
20002f74:	22078c63          	beqz	a5,200031ac <hw_tft_init+0x638>
	{
		lcd_write_register(0xF7);
20002f78:	0f700513          	li	a0,247
20002f7c:	c1cfe0ef          	jal	20001398 <lcd_write_register>
		lcd_write_data(0xA9);
20002f80:	0a900513          	li	a0,169
20002f84:	ce8fe0ef          	jal	2000146c <lcd_write_data>
		lcd_write_data(0x51);
20002f88:	05100513          	li	a0,81
20002f8c:	ce0fe0ef          	jal	2000146c <lcd_write_data>
		lcd_write_data(0x2C);
20002f90:	02c00513          	li	a0,44
20002f94:	cd8fe0ef          	jal	2000146c <lcd_write_data>
		lcd_write_data(0x82);
20002f98:	08200513          	li	a0,130
20002f9c:	cd0fe0ef          	jal	2000146c <lcd_write_data>
		
		lcd_write_register(0xC0);
20002fa0:	0c000513          	li	a0,192
20002fa4:	bf4fe0ef          	jal	20001398 <lcd_write_register>
		lcd_write_data(0x11);
20002fa8:	01100513          	li	a0,17
20002fac:	cc0fe0ef          	jal	2000146c <lcd_write_data>
		lcd_write_data(0x09);
20002fb0:	00900513          	li	a0,9
20002fb4:	cb8fe0ef          	jal	2000146c <lcd_write_data>
		
		lcd_write_register(0xC1);
20002fb8:	0c100513          	li	a0,193
20002fbc:	bdcfe0ef          	jal	20001398 <lcd_write_register>
		lcd_write_data(0x44);
20002fc0:	04400513          	li	a0,68
20002fc4:	ca8fe0ef          	jal	2000146c <lcd_write_data>
		
		lcd_write_register(0XC5);
20002fc8:	0c500513          	li	a0,197
20002fcc:	bccfe0ef          	jal	20001398 <lcd_write_register>
		lcd_write_data(0x00);
20002fd0:	00000513          	li	a0,0
20002fd4:	c98fe0ef          	jal	2000146c <lcd_write_data>
		lcd_write_data(0x0A);
20002fd8:	00a00513          	li	a0,10
20002fdc:	c90fe0ef          	jal	2000146c <lcd_write_data>
		lcd_write_data(0x80);
20002fe0:	08000513          	li	a0,128
20002fe4:	c88fe0ef          	jal	2000146c <lcd_write_data>
		
		lcd_write_register(0xB1);
20002fe8:	0b100513          	li	a0,177
20002fec:	bacfe0ef          	jal	20001398 <lcd_write_register>
		lcd_write_data(0xB0);
20002ff0:	0b000513          	li	a0,176
20002ff4:	c78fe0ef          	jal	2000146c <lcd_write_data>
		lcd_write_data(0x11);
20002ff8:	01100513          	li	a0,17
20002ffc:	c70fe0ef          	jal	2000146c <lcd_write_data>
		
		lcd_write_register(0xB4);
20003000:	0b400513          	li	a0,180
20003004:	b94fe0ef          	jal	20001398 <lcd_write_register>
		lcd_write_data(0x02);
20003008:	00200513          	li	a0,2
2000300c:	c60fe0ef          	jal	2000146c <lcd_write_data>

		lcd_write_register(0xB6);
20003010:	0b600513          	li	a0,182
20003014:	b84fe0ef          	jal	20001398 <lcd_write_register>
		
		lcd_write_data(0x02);
20003018:	00200513          	li	a0,2
2000301c:	c50fe0ef          	jal	2000146c <lcd_write_data>
		lcd_write_data(0x02);
20003020:	00200513          	li	a0,2
20003024:	c48fe0ef          	jal	2000146c <lcd_write_data>
		lcd_write_data(0x3B);
20003028:	03b00513          	li	a0,59
2000302c:	c40fe0ef          	jal	2000146c <lcd_write_data>
		
		
		lcd_write_register(0xB7);
20003030:	0b700513          	li	a0,183
20003034:	b64fe0ef          	jal	20001398 <lcd_write_register>
		lcd_write_data(0xc6);
20003038:	0c600513          	li	a0,198
2000303c:	c30fe0ef          	jal	2000146c <lcd_write_data>
		
		lcd_write_register(0xBE);
20003040:	0be00513          	li	a0,190
20003044:	b54fe0ef          	jal	20001398 <lcd_write_register>
		lcd_write_data(0x00);
20003048:	00000513          	li	a0,0
2000304c:	c20fe0ef          	jal	2000146c <lcd_write_data>
		lcd_write_data(0x04);
20003050:	00400513          	li	a0,4
20003054:	c18fe0ef          	jal	2000146c <lcd_write_data>
		
		lcd_write_register(0xE9);
20003058:	0e900513          	li	a0,233
2000305c:	b3cfe0ef          	jal	20001398 <lcd_write_register>
		lcd_write_data(0x00);
20003060:	00000513          	li	a0,0
20003064:	c08fe0ef          	jal	2000146c <lcd_write_data>
		
		lcd_write_register(0x36);
20003068:	03600513          	li	a0,54
2000306c:	b2cfe0ef          	jal	20001398 <lcd_write_register>
		lcd_write_data(0x48);
20003070:	04800513          	li	a0,72
20003074:	bf8fe0ef          	jal	2000146c <lcd_write_data>
		lcd_write_register(0x3A);
20003078:	03a00513          	li	a0,58
2000307c:	b1cfe0ef          	jal	20001398 <lcd_write_register>
		lcd_write_data(0x06);
20003080:	00600513          	li	a0,6
20003084:	be8fe0ef          	jal	2000146c <lcd_write_data>
		
		lcd_write_register(0xE0);
20003088:	0e000513          	li	a0,224
2000308c:	b0cfe0ef          	jal	20001398 <lcd_write_register>
		lcd_write_data(0x00);
20003090:	00000513          	li	a0,0
20003094:	bd8fe0ef          	jal	2000146c <lcd_write_data>
		lcd_write_data(0x07);
20003098:	00700513          	li	a0,7
2000309c:	bd0fe0ef          	jal	2000146c <lcd_write_data>
		lcd_write_data(0x10);
200030a0:	01000513          	li	a0,16
200030a4:	bc8fe0ef          	jal	2000146c <lcd_write_data>
		lcd_write_data(0x09);
200030a8:	00900513          	li	a0,9
200030ac:	bc0fe0ef          	jal	2000146c <lcd_write_data>
		lcd_write_data(0x17);
200030b0:	01700513          	li	a0,23
200030b4:	bb8fe0ef          	jal	2000146c <lcd_write_data>
		lcd_write_data(0x0B);
200030b8:	00b00513          	li	a0,11
200030bc:	bb0fe0ef          	jal	2000146c <lcd_write_data>
		lcd_write_data(0x41);
200030c0:	04100513          	li	a0,65
200030c4:	ba8fe0ef          	jal	2000146c <lcd_write_data>
		lcd_write_data(0x89);
200030c8:	08900513          	li	a0,137
200030cc:	ba0fe0ef          	jal	2000146c <lcd_write_data>
		lcd_write_data(0x4B);
200030d0:	04b00513          	li	a0,75
200030d4:	b98fe0ef          	jal	2000146c <lcd_write_data>
		lcd_write_data(0x0A);
200030d8:	00a00513          	li	a0,10
200030dc:	b90fe0ef          	jal	2000146c <lcd_write_data>
		lcd_write_data(0x0C);
200030e0:	00c00513          	li	a0,12
200030e4:	b88fe0ef          	jal	2000146c <lcd_write_data>
		lcd_write_data(0x0E);
200030e8:	00e00513          	li	a0,14
200030ec:	b80fe0ef          	jal	2000146c <lcd_write_data>
		lcd_write_data(0x18);
200030f0:	01800513          	li	a0,24
200030f4:	b78fe0ef          	jal	2000146c <lcd_write_data>
		lcd_write_data(0x1B);
200030f8:	01b00513          	li	a0,27
200030fc:	b70fe0ef          	jal	2000146c <lcd_write_data>
		lcd_write_data(0x0F);
20003100:	00f00513          	li	a0,15
20003104:	b68fe0ef          	jal	2000146c <lcd_write_data>
		
		lcd_write_register(0XE1);
20003108:	0e100513          	li	a0,225
2000310c:	a8cfe0ef          	jal	20001398 <lcd_write_register>
		lcd_write_data(0x00);
20003110:	00000513          	li	a0,0
20003114:	b58fe0ef          	jal	2000146c <lcd_write_data>
		lcd_write_data(0x17);
20003118:	01700513          	li	a0,23
2000311c:	b50fe0ef          	jal	2000146c <lcd_write_data>
		lcd_write_data(0x1A);
20003120:	01a00513          	li	a0,26
20003124:	b48fe0ef          	jal	2000146c <lcd_write_data>
		lcd_write_data(0x04);
20003128:	00400513          	li	a0,4
2000312c:	b40fe0ef          	jal	2000146c <lcd_write_data>
		lcd_write_data(0x0E);
20003130:	00e00513          	li	a0,14
20003134:	b38fe0ef          	jal	2000146c <lcd_write_data>
		lcd_write_data(0x06);
20003138:	00600513          	li	a0,6
2000313c:	b30fe0ef          	jal	2000146c <lcd_write_data>
		lcd_write_data(0x2F);
20003140:	02f00513          	li	a0,47
20003144:	b28fe0ef          	jal	2000146c <lcd_write_data>
		lcd_write_data(0x45);
20003148:	04500513          	li	a0,69
2000314c:	b20fe0ef          	jal	2000146c <lcd_write_data>
		lcd_write_data(0x43);
20003150:	04300513          	li	a0,67
20003154:	b18fe0ef          	jal	2000146c <lcd_write_data>
		lcd_write_data(0x02);
20003158:	00200513          	li	a0,2
2000315c:	b10fe0ef          	jal	2000146c <lcd_write_data>
		lcd_write_data(0x0A);
20003160:	00a00513          	li	a0,10
20003164:	b08fe0ef          	jal	2000146c <lcd_write_data>
		lcd_write_data(0x09);
20003168:	00900513          	li	a0,9
2000316c:	b00fe0ef          	jal	2000146c <lcd_write_data>
		lcd_write_data(0x32);
20003170:	03200513          	li	a0,50
20003174:	af8fe0ef          	jal	2000146c <lcd_write_data>
		lcd_write_data(0x36);
20003178:	03600513          	li	a0,54
2000317c:	af0fe0ef          	jal	2000146c <lcd_write_data>
		lcd_write_data(0x0F);
20003180:	00f00513          	li	a0,15
20003184:	ae8fe0ef          	jal	2000146c <lcd_write_data>

		lcd_write_register(0x11);
20003188:	01100513          	li	a0,17
2000318c:	a0cfe0ef          	jal	20001398 <lcd_write_register>
		_delay_ms(200);
20003190:	0c800513          	li	a0,200
20003194:	c65fd0ef          	jal	20000df8 <_delay_ms>
		
		lcd_write_register(0x29);
20003198:	02900513          	li	a0,41
2000319c:	9fcfe0ef          	jal	20001398 <lcd_write_register>
		_tft_lcd_direction(1);
200031a0:	00100513          	li	a0,1
200031a4:	901fe0ef          	jal	20001aa4 <_tft_lcd_direction>
200031a8:	2600006f          	j	20003408 <hw_tft_init+0x894>
	}
	else if( option & TFT_INIT_ILI9486 )
200031ac:	fec42783          	lw	a5,-20(s0)
200031b0:	0047f793          	andi	a5,a5,4
200031b4:	24078a63          	beqz	a5,20003408 <hw_tft_init+0x894>
	{
		lcd_write_register(0XF1);
200031b8:	0f100513          	li	a0,241
200031bc:	9dcfe0ef          	jal	20001398 <lcd_write_register>
		lcd_write_data(0x36);
200031c0:	03600513          	li	a0,54
200031c4:	aa8fe0ef          	jal	2000146c <lcd_write_data>
		lcd_write_data(0x04);
200031c8:	00400513          	li	a0,4
200031cc:	aa0fe0ef          	jal	2000146c <lcd_write_data>
		lcd_write_data(0x00);
200031d0:	00000513          	li	a0,0
200031d4:	a98fe0ef          	jal	2000146c <lcd_write_data>
		lcd_write_data(0x3C);
200031d8:	03c00513          	li	a0,60
200031dc:	a90fe0ef          	jal	2000146c <lcd_write_data>
		lcd_write_data(0X0F);
200031e0:	00f00513          	li	a0,15
200031e4:	a88fe0ef          	jal	2000146c <lcd_write_data>
		lcd_write_data(0x8F);
200031e8:	08f00513          	li	a0,143
200031ec:	a80fe0ef          	jal	2000146c <lcd_write_data>
		
		lcd_write_register(0XF2);
200031f0:	0f200513          	li	a0,242
200031f4:	9a4fe0ef          	jal	20001398 <lcd_write_register>
		lcd_write_data(0x18);
200031f8:	01800513          	li	a0,24
200031fc:	a70fe0ef          	jal	2000146c <lcd_write_data>
		lcd_write_data(0xA3);
20003200:	0a300513          	li	a0,163
20003204:	a68fe0ef          	jal	2000146c <lcd_write_data>
		lcd_write_data(0x12);
20003208:	01200513          	li	a0,18
2000320c:	a60fe0ef          	jal	2000146c <lcd_write_data>
		lcd_write_data(0x02);
20003210:	00200513          	li	a0,2
20003214:	a58fe0ef          	jal	2000146c <lcd_write_data>
		lcd_write_data(0XB2);
20003218:	0b200513          	li	a0,178
2000321c:	a50fe0ef          	jal	2000146c <lcd_write_data>
		lcd_write_data(0x12);
20003220:	01200513          	li	a0,18
20003224:	a48fe0ef          	jal	2000146c <lcd_write_data>
		lcd_write_data(0xFF);
20003228:	0ff00513          	li	a0,255
2000322c:	a40fe0ef          	jal	2000146c <lcd_write_data>
		lcd_write_data(0x10);
20003230:	01000513          	li	a0,16
20003234:	a38fe0ef          	jal	2000146c <lcd_write_data>
		lcd_write_data(0x00);
20003238:	00000513          	li	a0,0
2000323c:	a30fe0ef          	jal	2000146c <lcd_write_data>
		
		lcd_write_register(0XF8);
20003240:	0f800513          	li	a0,248
20003244:	954fe0ef          	jal	20001398 <lcd_write_register>
		lcd_write_data(0x21);
20003248:	02100513          	li	a0,33
2000324c:	a20fe0ef          	jal	2000146c <lcd_write_data>
		lcd_write_data(0x04);
20003250:	00400513          	li	a0,4
20003254:	a18fe0ef          	jal	2000146c <lcd_write_data>
		
		lcd_write_register(0XF9);
20003258:	0f900513          	li	a0,249
2000325c:	93cfe0ef          	jal	20001398 <lcd_write_register>
		lcd_write_data(0x00);
20003260:	00000513          	li	a0,0
20003264:	a08fe0ef          	jal	2000146c <lcd_write_data>
		lcd_write_data(0x08);
20003268:	00800513          	li	a0,8
2000326c:	a00fe0ef          	jal	2000146c <lcd_write_data>
		
		lcd_write_register(0x36);
20003270:	03600513          	li	a0,54
20003274:	924fe0ef          	jal	20001398 <lcd_write_register>
		lcd_write_data(0x08);
20003278:	00800513          	li	a0,8
2000327c:	9f0fe0ef          	jal	2000146c <lcd_write_data>
		
		lcd_write_register(0xB4);
20003280:	0b400513          	li	a0,180
20003284:	914fe0ef          	jal	20001398 <lcd_write_register>
		lcd_write_data(0x00);
20003288:	00000513          	li	a0,0
2000328c:	9e0fe0ef          	jal	2000146c <lcd_write_data>
		
		lcd_write_register(0xC1);
20003290:	0c100513          	li	a0,193
20003294:	904fe0ef          	jal	20001398 <lcd_write_register>
		lcd_write_data(0x47); //0x41
20003298:	04700513          	li	a0,71
2000329c:	9d0fe0ef          	jal	2000146c <lcd_write_data>
		
		lcd_write_register(0xC5);
200032a0:	0c500513          	li	a0,197
200032a4:	8f4fe0ef          	jal	20001398 <lcd_write_register>
		lcd_write_data(0x00);
200032a8:	00000513          	li	a0,0
200032ac:	9c0fe0ef          	jal	2000146c <lcd_write_data>
		lcd_write_data(0xAF); //0x91
200032b0:	0af00513          	li	a0,175
200032b4:	9b8fe0ef          	jal	2000146c <lcd_write_data>
		lcd_write_data(0x80);
200032b8:	08000513          	li	a0,128
200032bc:	9b0fe0ef          	jal	2000146c <lcd_write_data>
		lcd_write_data(0x00);
200032c0:	00000513          	li	a0,0
200032c4:	9a8fe0ef          	jal	2000146c <lcd_write_data>
		
		lcd_write_register(0xE0);
200032c8:	0e000513          	li	a0,224
200032cc:	8ccfe0ef          	jal	20001398 <lcd_write_register>
		lcd_write_data(0x0F);
200032d0:	00f00513          	li	a0,15
200032d4:	998fe0ef          	jal	2000146c <lcd_write_data>
		lcd_write_data(0x1F);
200032d8:	01f00513          	li	a0,31
200032dc:	990fe0ef          	jal	2000146c <lcd_write_data>
		lcd_write_data(0x1C);
200032e0:	01c00513          	li	a0,28
200032e4:	988fe0ef          	jal	2000146c <lcd_write_data>
		lcd_write_data(0x0C);
200032e8:	00c00513          	li	a0,12
200032ec:	980fe0ef          	jal	2000146c <lcd_write_data>
		lcd_write_data(0x0F);
200032f0:	00f00513          	li	a0,15
200032f4:	978fe0ef          	jal	2000146c <lcd_write_data>
		lcd_write_data(0x08);
200032f8:	00800513          	li	a0,8
200032fc:	970fe0ef          	jal	2000146c <lcd_write_data>
		lcd_write_data(0x48);
20003300:	04800513          	li	a0,72
20003304:	968fe0ef          	jal	2000146c <lcd_write_data>
		lcd_write_data(0x98);
20003308:	09800513          	li	a0,152
2000330c:	960fe0ef          	jal	2000146c <lcd_write_data>
		lcd_write_data(0x37);
20003310:	03700513          	li	a0,55
20003314:	958fe0ef          	jal	2000146c <lcd_write_data>
		lcd_write_data(0x0A);
20003318:	00a00513          	li	a0,10
2000331c:	950fe0ef          	jal	2000146c <lcd_write_data>
		lcd_write_data(0x13);
20003320:	01300513          	li	a0,19
20003324:	948fe0ef          	jal	2000146c <lcd_write_data>
		lcd_write_data(0x04);
20003328:	00400513          	li	a0,4
2000332c:	940fe0ef          	jal	2000146c <lcd_write_data>
		lcd_write_data(0x11);
20003330:	01100513          	li	a0,17
20003334:	938fe0ef          	jal	2000146c <lcd_write_data>
		lcd_write_data(0x0D);
20003338:	00d00513          	li	a0,13
2000333c:	930fe0ef          	jal	2000146c <lcd_write_data>
		lcd_write_data(0x00);
20003340:	00000513          	li	a0,0
20003344:	928fe0ef          	jal	2000146c <lcd_write_data>
		
		lcd_write_register(0xE1);
20003348:	0e100513          	li	a0,225
2000334c:	84cfe0ef          	jal	20001398 <lcd_write_register>
		lcd_write_data(0x0F);
20003350:	00f00513          	li	a0,15
20003354:	918fe0ef          	jal	2000146c <lcd_write_data>
		lcd_write_data(0x32);
20003358:	03200513          	li	a0,50
2000335c:	910fe0ef          	jal	2000146c <lcd_write_data>
		lcd_write_data(0x2E);
20003360:	02e00513          	li	a0,46
20003364:	908fe0ef          	jal	2000146c <lcd_write_data>
		lcd_write_data(0x0B);
20003368:	00b00513          	li	a0,11
2000336c:	900fe0ef          	jal	2000146c <lcd_write_data>
		lcd_write_data(0x0D);
20003370:	00d00513          	li	a0,13
20003374:	8f8fe0ef          	jal	2000146c <lcd_write_data>
		lcd_write_data(0x05);
20003378:	00500513          	li	a0,5
2000337c:	8f0fe0ef          	jal	2000146c <lcd_write_data>
		lcd_write_data(0x47);
20003380:	04700513          	li	a0,71
20003384:	8e8fe0ef          	jal	2000146c <lcd_write_data>
		lcd_write_data(0x75);
20003388:	07500513          	li	a0,117
2000338c:	8e0fe0ef          	jal	2000146c <lcd_write_data>
		lcd_write_data(0x37);
20003390:	03700513          	li	a0,55
20003394:	8d8fe0ef          	jal	2000146c <lcd_write_data>
		lcd_write_data(0x06);
20003398:	00600513          	li	a0,6
2000339c:	8d0fe0ef          	jal	2000146c <lcd_write_data>
		lcd_write_data(0x10);
200033a0:	01000513          	li	a0,16
200033a4:	8c8fe0ef          	jal	2000146c <lcd_write_data>
		lcd_write_data(0x03);
200033a8:	00300513          	li	a0,3
200033ac:	8c0fe0ef          	jal	2000146c <lcd_write_data>
		lcd_write_data(0x24);
200033b0:	02400513          	li	a0,36
200033b4:	8b8fe0ef          	jal	2000146c <lcd_write_data>
		lcd_write_data(0x20);
200033b8:	02000513          	li	a0,32
200033bc:	8b0fe0ef          	jal	2000146c <lcd_write_data>
		lcd_write_data(0x00);
200033c0:	00000513          	li	a0,0
200033c4:	8a8fe0ef          	jal	2000146c <lcd_write_data>
		
		lcd_write_register(0x3A);
200033c8:	03a00513          	li	a0,58
200033cc:	fcdfd0ef          	jal	20001398 <lcd_write_register>
		lcd_write_data(0x66);
200033d0:	06600513          	li	a0,102
200033d4:	898fe0ef          	jal	2000146c <lcd_write_data>
		
		lcd_write_register(0x11);
200033d8:	01100513          	li	a0,17
200033dc:	fbdfd0ef          	jal	20001398 <lcd_write_register>
		
		lcd_write_register(0x36);
200033e0:	03600513          	li	a0,54
200033e4:	fb5fd0ef          	jal	20001398 <lcd_write_register>
		lcd_write_data(0x28);
200033e8:	02800513          	li	a0,40
200033ec:	880fe0ef          	jal	2000146c <lcd_write_data>
		
		_delay_ms(120);
200033f0:	07800513          	li	a0,120
200033f4:	a05fd0ef          	jal	20000df8 <_delay_ms>
		lcd_write_register(0x29);
200033f8:	02900513          	li	a0,41
200033fc:	f9dfd0ef          	jal	20001398 <lcd_write_register>
		_tft_lcd_direction(3);
20003400:	00300513          	li	a0,3
20003404:	ea0fe0ef          	jal	20001aa4 <_tft_lcd_direction>
	}
	_tft_lcd_setwindow(0,0,lcddev.width-1,lcddev.height-1);
20003408:	200097b7          	lui	a5,0x20009
2000340c:	18078793          	addi	a5,a5,384 # 20009180 <lcddev>
20003410:	0007d783          	lhu	a5,0(a5)
20003414:	fff78793          	addi	a5,a5,-1
20003418:	01079713          	slli	a4,a5,0x10
2000341c:	01075713          	srli	a4,a4,0x10
20003420:	200097b7          	lui	a5,0x20009
20003424:	18078793          	addi	a5,a5,384 # 20009180 <lcddev>
20003428:	0027d783          	lhu	a5,2(a5)
2000342c:	fff78793          	addi	a5,a5,-1
20003430:	01079793          	slli	a5,a5,0x10
20003434:	0107d793          	srli	a5,a5,0x10
20003438:	00078693          	mv	a3,a5
2000343c:	00070613          	mv	a2,a4
20003440:	00000593          	li	a1,0
20003444:	00000513          	li	a0,0
20003448:	a78fe0ef          	jal	200016c0 <_tft_lcd_setwindow>
	tft_fill_colour(TFT_YELLOW);
2000344c:	000107b7          	lui	a5,0x10
20003450:	fe078513          	addi	a0,a5,-32 # ffe0 <_start-0x1fff0020>
20003454:	bbcfe0ef          	jal	20001810 <tft_fill_colour>
	LCD_LED_SET;	
20003458:	400117b7          	lui	a5,0x40011
2000345c:	c0c78793          	addi	a5,a5,-1012 # 40010c0c <__stack_top+0x20006d08>
20003460:	0007d783          	lhu	a5,0(a5)
20003464:	01079693          	slli	a3,a5,0x10
20003468:	0106d693          	srli	a3,a3,0x10
2000346c:	400117b7          	lui	a5,0x40011
20003470:	c0c78793          	addi	a5,a5,-1012 # 40010c0c <__stack_top+0x20006d08>
20003474:	00002737          	lui	a4,0x2
20003478:	00e6e733          	or	a4,a3,a4
2000347c:	01071713          	slli	a4,a4,0x10
20003480:	01075713          	srli	a4,a4,0x10
20003484:	00e79023          	sh	a4,0(a5)
	return 1; 
20003488:	00100793          	li	a5,1
}
2000348c:	00078513          	mv	a0,a5
20003490:	01c12083          	lw	ra,28(sp)
20003494:	01812403          	lw	s0,24(sp)
20003498:	02010113          	addi	sp,sp,32
2000349c:	00008067          	ret

200034a0 <_pll_init_144>:
200034a0:	fe010113          	addi	sp,sp,-32
200034a4:	00112e23          	sw	ra,28(sp)
200034a8:	00812c23          	sw	s0,24(sp)
200034ac:	02010413          	addi	s0,sp,32
200034b0:	fe042623          	sw	zero,-20(s0)
200034b4:	fe042423          	sw	zero,-24(s0)
200034b8:	400217b7          	lui	a5,0x40021
200034bc:	0007a703          	lw	a4,0(a5) # 40021000 <__stack_top+0x200170fc>
200034c0:	400217b7          	lui	a5,0x40021
200034c4:	00176713          	ori	a4,a4,1
200034c8:	00e7a023          	sw	a4,0(a5) # 40021000 <__stack_top+0x200170fc>
200034cc:	400217b7          	lui	a5,0x40021
200034d0:	00478793          	addi	a5,a5,4 # 40021004 <__stack_top+0x20017100>
200034d4:	0007a683          	lw	a3,0(a5)
200034d8:	400217b7          	lui	a5,0x40021
200034dc:	00478793          	addi	a5,a5,4 # 40021004 <__stack_top+0x20017100>
200034e0:	f8ff0737          	lui	a4,0xf8ff0
200034e4:	00e6f733          	and	a4,a3,a4
200034e8:	00e7a023          	sw	a4,0(a5)
200034ec:	400217b7          	lui	a5,0x40021
200034f0:	0007a683          	lw	a3,0(a5) # 40021000 <__stack_top+0x200170fc>
200034f4:	400217b7          	lui	a5,0x40021
200034f8:	fef70737          	lui	a4,0xfef70
200034fc:	fff70713          	addi	a4,a4,-1 # fef6ffff <__stack_top+0xdef660fb>
20003500:	00e6f733          	and	a4,a3,a4
20003504:	00e7a023          	sw	a4,0(a5) # 40021000 <__stack_top+0x200170fc>
20003508:	400217b7          	lui	a5,0x40021
2000350c:	0007a683          	lw	a3,0(a5) # 40021000 <__stack_top+0x200170fc>
20003510:	400217b7          	lui	a5,0x40021
20003514:	fffc0737          	lui	a4,0xfffc0
20003518:	fff70713          	addi	a4,a4,-1 # fffbffff <__stack_top+0xdffb60fb>
2000351c:	00e6f733          	and	a4,a3,a4
20003520:	00e7a023          	sw	a4,0(a5) # 40021000 <__stack_top+0x200170fc>
20003524:	400217b7          	lui	a5,0x40021
20003528:	00478793          	addi	a5,a5,4 # 40021004 <__stack_top+0x20017100>
2000352c:	0007a683          	lw	a3,0(a5)
20003530:	400217b7          	lui	a5,0x40021
20003534:	00478793          	addi	a5,a5,4 # 40021004 <__stack_top+0x20017100>
20003538:	ff810737          	lui	a4,0xff810
2000353c:	fff70713          	addi	a4,a4,-1 # ff80ffff <__stack_top+0xdf8060fb>
20003540:	00e6f733          	and	a4,a3,a4
20003544:	00e7a023          	sw	a4,0(a5)
20003548:	400217b7          	lui	a5,0x40021
2000354c:	0007a683          	lw	a3,0(a5) # 40021000 <__stack_top+0x200170fc>
20003550:	400217b7          	lui	a5,0x40021
20003554:	ec000737          	lui	a4,0xec000
20003558:	fff70713          	addi	a4,a4,-1 # ebffffff <__stack_top+0xcbff60fb>
2000355c:	00e6f733          	and	a4,a3,a4
20003560:	00e7a023          	sw	a4,0(a5) # 40021000 <__stack_top+0x200170fc>
20003564:	400217b7          	lui	a5,0x40021
20003568:	00878793          	addi	a5,a5,8 # 40021008 <__stack_top+0x20017104>
2000356c:	00ff0737          	lui	a4,0xff0
20003570:	00e7a023          	sw	a4,0(a5)
20003574:	400217b7          	lui	a5,0x40021
20003578:	02c78793          	addi	a5,a5,44 # 4002102c <__stack_top+0x20017128>
2000357c:	0007a023          	sw	zero,0(a5)
20003580:	400217b7          	lui	a5,0x40021
20003584:	0007a683          	lw	a3,0(a5) # 40021000 <__stack_top+0x200170fc>
20003588:	400217b7          	lui	a5,0x40021
2000358c:	00010737          	lui	a4,0x10
20003590:	00e6e733          	or	a4,a3,a4
20003594:	00e7a023          	sw	a4,0(a5) # 40021000 <__stack_top+0x200170fc>
20003598:	400217b7          	lui	a5,0x40021
2000359c:	0007a703          	lw	a4,0(a5) # 40021000 <__stack_top+0x200170fc>
200035a0:	000207b7          	lui	a5,0x20
200035a4:	00f777b3          	and	a5,a4,a5
200035a8:	fef42423          	sw	a5,-24(s0)
200035ac:	fec42783          	lw	a5,-20(s0)
200035b0:	00178793          	addi	a5,a5,1 # 20001 <_start-0x1ffdffff>
200035b4:	fef42623          	sw	a5,-20(s0)
200035b8:	fe842783          	lw	a5,-24(s0)
200035bc:	00079863          	bnez	a5,200035cc <_pll_init_144+0x12c>
200035c0:	fec42703          	lw	a4,-20(s0)
200035c4:	1f400793          	li	a5,500
200035c8:	fcf718e3          	bne	a4,a5,20003598 <_pll_init_144+0xf8>
200035cc:	400217b7          	lui	a5,0x40021
200035d0:	0007a703          	lw	a4,0(a5) # 40021000 <__stack_top+0x200170fc>
200035d4:	000207b7          	lui	a5,0x20
200035d8:	00f777b3          	and	a5,a4,a5
200035dc:	00079663          	bnez	a5,200035e8 <_pll_init_144+0x148>
200035e0:	00100793          	li	a5,1
200035e4:	11c0006f          	j	20003700 <_pll_init_144+0x260>
200035e8:	400217b7          	lui	a5,0x40021
200035ec:	00478713          	addi	a4,a5,4 # 40021004 <__stack_top+0x20017100>
200035f0:	400217b7          	lui	a5,0x40021
200035f4:	00478793          	addi	a5,a5,4 # 40021004 <__stack_top+0x20017100>
200035f8:	00072703          	lw	a4,0(a4) # 10000 <_start-0x1fff0000>
200035fc:	00e7a023          	sw	a4,0(a5)
20003600:	400217b7          	lui	a5,0x40021
20003604:	00478713          	addi	a4,a5,4 # 40021004 <__stack_top+0x20017100>
20003608:	400217b7          	lui	a5,0x40021
2000360c:	00478793          	addi	a5,a5,4 # 40021004 <__stack_top+0x20017100>
20003610:	00072703          	lw	a4,0(a4)
20003614:	00e7a023          	sw	a4,0(a5)
20003618:	400217b7          	lui	a5,0x40021
2000361c:	02c78793          	addi	a5,a5,44 # 4002102c <__stack_top+0x20017128>
20003620:	0007a703          	lw	a4,0(a5)
20003624:	400217b7          	lui	a5,0x40021
20003628:	02c78793          	addi	a5,a5,44 # 4002102c <__stack_top+0x20017128>
2000362c:	40076713          	ori	a4,a4,1024
20003630:	00e7a023          	sw	a4,0(a5)
20003634:	400217b7          	lui	a5,0x40021
20003638:	00478793          	addi	a5,a5,4 # 40021004 <__stack_top+0x20017100>
2000363c:	0007a683          	lw	a3,0(a5)
20003640:	400217b7          	lui	a5,0x40021
20003644:	00478793          	addi	a5,a5,4 # 40021004 <__stack_top+0x20017100>
20003648:	ffc10737          	lui	a4,0xffc10
2000364c:	fff70713          	addi	a4,a4,-1 # ffc0ffff <__stack_top+0xdfc060fb>
20003650:	00e6f733          	and	a4,a3,a4
20003654:	00e7a023          	sw	a4,0(a5)
20003658:	400217b7          	lui	a5,0x40021
2000365c:	00478793          	addi	a5,a5,4 # 40021004 <__stack_top+0x20017100>
20003660:	0007a683          	lw	a3,0(a5)
20003664:	400217b7          	lui	a5,0x40021
20003668:	00478793          	addi	a5,a5,4 # 40021004 <__stack_top+0x20017100>
2000366c:	00010737          	lui	a4,0x10
20003670:	00e6e733          	or	a4,a3,a4
20003674:	00e7a023          	sw	a4,0(a5)
20003678:	400217b7          	lui	a5,0x40021
2000367c:	0007a683          	lw	a3,0(a5) # 40021000 <__stack_top+0x200170fc>
20003680:	400217b7          	lui	a5,0x40021
20003684:	01000737          	lui	a4,0x1000
20003688:	00e6e733          	or	a4,a3,a4
2000368c:	00e7a023          	sw	a4,0(a5) # 40021000 <__stack_top+0x200170fc>
20003690:	00000013          	nop
20003694:	400217b7          	lui	a5,0x40021
20003698:	0007a703          	lw	a4,0(a5) # 40021000 <__stack_top+0x200170fc>
2000369c:	020007b7          	lui	a5,0x2000
200036a0:	00f777b3          	and	a5,a4,a5
200036a4:	fe0788e3          	beqz	a5,20003694 <_pll_init_144+0x1f4>
200036a8:	400217b7          	lui	a5,0x40021
200036ac:	00478793          	addi	a5,a5,4 # 40021004 <__stack_top+0x20017100>
200036b0:	0007a703          	lw	a4,0(a5)
200036b4:	400217b7          	lui	a5,0x40021
200036b8:	00478793          	addi	a5,a5,4 # 40021004 <__stack_top+0x20017100>
200036bc:	ffc77713          	andi	a4,a4,-4
200036c0:	00e7a023          	sw	a4,0(a5)
200036c4:	400217b7          	lui	a5,0x40021
200036c8:	00478793          	addi	a5,a5,4 # 40021004 <__stack_top+0x20017100>
200036cc:	0007a703          	lw	a4,0(a5)
200036d0:	400217b7          	lui	a5,0x40021
200036d4:	00478793          	addi	a5,a5,4 # 40021004 <__stack_top+0x20017100>
200036d8:	00276713          	ori	a4,a4,2
200036dc:	00e7a023          	sw	a4,0(a5)
200036e0:	00000013          	nop
200036e4:	400217b7          	lui	a5,0x40021
200036e8:	00478793          	addi	a5,a5,4 # 40021004 <__stack_top+0x20017100>
200036ec:	0007a783          	lw	a5,0(a5)
200036f0:	00c7f713          	andi	a4,a5,12
200036f4:	00800793          	li	a5,8
200036f8:	fef716e3          	bne	a4,a5,200036e4 <_pll_init_144+0x244>
200036fc:	00000793          	li	a5,0
20003700:	00078513          	mv	a0,a5
20003704:	01c12083          	lw	ra,28(sp)
20003708:	01812403          	lw	s0,24(sp)
2000370c:	02010113          	addi	sp,sp,32
20003710:	00008067          	ret

20003714 <crt_timer_interrupt>:
20003714:	fd010113          	addi	sp,sp,-48
20003718:	02112623          	sw	ra,44(sp)
2000371c:	02512423          	sw	t0,40(sp)
20003720:	02812223          	sw	s0,36(sp)
20003724:	02a12023          	sw	a0,32(sp)
20003728:	00b12e23          	sw	a1,28(sp)
2000372c:	00c12c23          	sw	a2,24(sp)
20003730:	00d12a23          	sw	a3,20(sp)
20003734:	00e12823          	sw	a4,16(sp)
20003738:	00f12623          	sw	a5,12(sp)
2000373c:	01012423          	sw	a6,8(sp)
20003740:	03010413          	addi	s0,sp,48
20003744:	400017b7          	lui	a5,0x40001
20003748:	0107d783          	lhu	a5,16(a5) # 40001010 <__stack_top+0x1fff710c>
2000374c:	01079713          	slli	a4,a5,0x10
20003750:	01075713          	srli	a4,a4,0x10
20003754:	400017b7          	lui	a5,0x40001
20003758:	ffe77713          	andi	a4,a4,-2
2000375c:	01071713          	slli	a4,a4,0x10
20003760:	01075713          	srli	a4,a4,0x10
20003764:	00e79823          	sh	a4,16(a5) # 40001010 <__stack_top+0x1fff710c>
20003768:	200097b7          	lui	a5,0x20009
2000376c:	1987a703          	lw	a4,408(a5) # 20009198 <current_time>
20003770:	19c7a783          	lw	a5,412(a5)
20003774:	00100513          	li	a0,1
20003778:	00000593          	li	a1,0
2000377c:	00a70633          	add	a2,a4,a0
20003780:	00060813          	mv	a6,a2
20003784:	00e83833          	sltu	a6,a6,a4
20003788:	00b786b3          	add	a3,a5,a1
2000378c:	00d807b3          	add	a5,a6,a3
20003790:	00078693          	mv	a3,a5
20003794:	00060713          	mv	a4,a2
20003798:	00068793          	mv	a5,a3
2000379c:	200096b7          	lui	a3,0x20009
200037a0:	18e6ac23          	sw	a4,408(a3) # 20009198 <current_time>
200037a4:	18f6ae23          	sw	a5,412(a3)
200037a8:	00000013          	nop
200037ac:	02c12083          	lw	ra,44(sp)
200037b0:	02812283          	lw	t0,40(sp)
200037b4:	02412403          	lw	s0,36(sp)
200037b8:	02012503          	lw	a0,32(sp)
200037bc:	01c12583          	lw	a1,28(sp)
200037c0:	01812603          	lw	a2,24(sp)
200037c4:	01412683          	lw	a3,20(sp)
200037c8:	01012703          	lw	a4,16(sp)
200037cc:	00c12783          	lw	a5,12(sp)
200037d0:	00812803          	lw	a6,8(sp)
200037d4:	03010113          	addi	sp,sp,48
200037d8:	30200073          	mret

200037dc <_times>:
200037dc:	fe010113          	addi	sp,sp,-32
200037e0:	00112e23          	sw	ra,28(sp)
200037e4:	00812c23          	sw	s0,24(sp)
200037e8:	02010413          	addi	s0,sp,32
200037ec:	fea42623          	sw	a0,-20(s0)
200037f0:	200097b7          	lui	a5,0x20009
200037f4:	1987a703          	lw	a4,408(a5) # 20009198 <current_time>
200037f8:	19c7a783          	lw	a5,412(a5)
200037fc:	fec42783          	lw	a5,-20(s0)
20003800:	00e7a223          	sw	a4,4(a5)
20003804:	fec42783          	lw	a5,-20(s0)
20003808:	0047a703          	lw	a4,4(a5)
2000380c:	fec42783          	lw	a5,-20(s0)
20003810:	00e7a023          	sw	a4,0(a5)
20003814:	200097b7          	lui	a5,0x20009
20003818:	1987a703          	lw	a4,408(a5) # 20009198 <current_time>
2000381c:	19c7a783          	lw	a5,412(a5)
20003820:	00070793          	mv	a5,a4
20003824:	00078513          	mv	a0,a5
20003828:	01c12083          	lw	ra,28(sp)
2000382c:	01812403          	lw	s0,24(sp)
20003830:	02010113          	addi	sp,sp,32
20003834:	00008067          	ret

20003838 <_gettimeofday>:
20003838:	fd010113          	addi	sp,sp,-48
2000383c:	02112623          	sw	ra,44(sp)
20003840:	02812423          	sw	s0,40(sp)
20003844:	03010413          	addi	s0,sp,48
20003848:	fca42e23          	sw	a0,-36(s0)
2000384c:	fcb42c23          	sw	a1,-40(s0)
20003850:	200097b7          	lui	a5,0x20009
20003854:	1987a703          	lw	a4,408(a5) # 20009198 <current_time>
20003858:	19c7a783          	lw	a5,412(a5)
2000385c:	fee42423          	sw	a4,-24(s0)
20003860:	fef42623          	sw	a5,-20(s0)
20003864:	fe842703          	lw	a4,-24(s0)
20003868:	fec42783          	lw	a5,-20(s0)
2000386c:	06400613          	li	a2,100
20003870:	00000693          	li	a3,0
20003874:	00070513          	mv	a0,a4
20003878:	00078593          	mv	a1,a5
2000387c:	768000ef          	jal	20003fe4 <__udivdi3>
20003880:	00050713          	mv	a4,a0
20003884:	00058793          	mv	a5,a1
20003888:	fdc42683          	lw	a3,-36(s0)
2000388c:	00e6a023          	sw	a4,0(a3)
20003890:	00f6a223          	sw	a5,4(a3)
20003894:	fe842703          	lw	a4,-24(s0)
20003898:	fec42783          	lw	a5,-20(s0)
2000389c:	06400613          	li	a2,100
200038a0:	00000693          	li	a3,0
200038a4:	00070513          	mv	a0,a4
200038a8:	00078593          	mv	a1,a5
200038ac:	325000ef          	jal	200043d0 <__umoddi3>
200038b0:	00050713          	mv	a4,a0
200038b4:	00058793          	mv	a5,a1
200038b8:	fdc42783          	lw	a5,-36(s0)
200038bc:	00e7a423          	sw	a4,8(a5)
200038c0:	00000793          	li	a5,0
200038c4:	00078513          	mv	a0,a5
200038c8:	02c12083          	lw	ra,44(sp)
200038cc:	02812403          	lw	s0,40(sp)
200038d0:	03010113          	addi	sp,sp,48
200038d4:	00008067          	ret

200038d8 <_settimeofday>:
200038d8:	fe010113          	addi	sp,sp,-32
200038dc:	00112e23          	sw	ra,28(sp)
200038e0:	00812c23          	sw	s0,24(sp)
200038e4:	02010413          	addi	s0,sp,32
200038e8:	fea42623          	sw	a0,-20(s0)
200038ec:	feb42423          	sw	a1,-24(s0)
200038f0:	fec42783          	lw	a5,-20(s0)
200038f4:	0007a703          	lw	a4,0(a5)
200038f8:	0047a783          	lw	a5,4(a5)
200038fc:	06400593          	li	a1,100
20003900:	02b78533          	mul	a0,a5,a1
20003904:	00000593          	li	a1,0
20003908:	02b705b3          	mul	a1,a4,a1
2000390c:	00b50533          	add	a0,a0,a1
20003910:	06400593          	li	a1,100
20003914:	02b70333          	mul	t1,a4,a1
20003918:	02b738b3          	mulhu	a7,a4,a1
2000391c:	00030813          	mv	a6,t1
20003920:	011507b3          	add	a5,a0,a7
20003924:	00078893          	mv	a7,a5
20003928:	00080713          	mv	a4,a6
2000392c:	00088793          	mv	a5,a7
20003930:	200095b7          	lui	a1,0x20009
20003934:	18e5ac23          	sw	a4,408(a1) # 20009198 <current_time>
20003938:	18f5ae23          	sw	a5,412(a1)
2000393c:	fec42783          	lw	a5,-20(s0)
20003940:	0087a783          	lw	a5,8(a5)
20003944:	00078613          	mv	a2,a5
20003948:	41f7d793          	srai	a5,a5,0x1f
2000394c:	00078693          	mv	a3,a5
20003950:	200097b7          	lui	a5,0x20009
20003954:	1987a503          	lw	a0,408(a5) # 20009198 <current_time>
20003958:	19c7a583          	lw	a1,412(a5)
2000395c:	00a60733          	add	a4,a2,a0
20003960:	00070813          	mv	a6,a4
20003964:	00c83833          	sltu	a6,a6,a2
20003968:	00b687b3          	add	a5,a3,a1
2000396c:	00f806b3          	add	a3,a6,a5
20003970:	00068793          	mv	a5,a3
20003974:	200096b7          	lui	a3,0x20009
20003978:	18e6ac23          	sw	a4,408(a3) # 20009198 <current_time>
2000397c:	18f6ae23          	sw	a5,412(a3)
20003980:	00000793          	li	a5,0
20003984:	00078513          	mv	a0,a5
20003988:	01c12083          	lw	ra,28(sp)
2000398c:	01812403          	lw	s0,24(sp)
20003990:	02010113          	addi	sp,sp,32
20003994:	00008067          	ret

20003998 <_tstchar>:
20003998:	ff010113          	addi	sp,sp,-16
2000399c:	00112623          	sw	ra,12(sp)
200039a0:	00812423          	sw	s0,8(sp)
200039a4:	01010413          	addi	s0,sp,16
200039a8:	400147b7          	lui	a5,0x40014
200039ac:	80078793          	addi	a5,a5,-2048 # 40013800 <__stack_top+0x200098fc>
200039b0:	0007d783          	lhu	a5,0(a5)
200039b4:	01079793          	slli	a5,a5,0x10
200039b8:	0107d793          	srli	a5,a5,0x10
200039bc:	0207f793          	andi	a5,a5,32
200039c0:	02078063          	beqz	a5,200039e0 <_tstchar+0x48>
200039c4:	400147b7          	lui	a5,0x40014
200039c8:	80078793          	addi	a5,a5,-2048 # 40013800 <__stack_top+0x200098fc>
200039cc:	0047d783          	lhu	a5,4(a5)
200039d0:	01079793          	slli	a5,a5,0x10
200039d4:	0107d793          	srli	a5,a5,0x10
200039d8:	0ff7f793          	zext.b	a5,a5
200039dc:	0080006f          	j	200039e4 <_tstchar+0x4c>
200039e0:	00000793          	li	a5,0
200039e4:	00078513          	mv	a0,a5
200039e8:	00c12083          	lw	ra,12(sp)
200039ec:	00812403          	lw	s0,8(sp)
200039f0:	01010113          	addi	sp,sp,16
200039f4:	00008067          	ret

200039f8 <_outchar>:
200039f8:	fe010113          	addi	sp,sp,-32
200039fc:	00112e23          	sw	ra,28(sp)
20003a00:	00812c23          	sw	s0,24(sp)
20003a04:	02010413          	addi	s0,sp,32
20003a08:	00050793          	mv	a5,a0
20003a0c:	fef407a3          	sb	a5,-17(s0)
20003a10:	400147b7          	lui	a5,0x40014
20003a14:	80078793          	addi	a5,a5,-2048 # 40013800 <__stack_top+0x200098fc>
20003a18:	fef44703          	lbu	a4,-17(s0)
20003a1c:	01071713          	slli	a4,a4,0x10
20003a20:	01075713          	srli	a4,a4,0x10
20003a24:	00e79223          	sh	a4,4(a5)
20003a28:	00000013          	nop
20003a2c:	400147b7          	lui	a5,0x40014
20003a30:	80078793          	addi	a5,a5,-2048 # 40013800 <__stack_top+0x200098fc>
20003a34:	0007d783          	lhu	a5,0(a5)
20003a38:	01079793          	slli	a5,a5,0x10
20003a3c:	0107d793          	srli	a5,a5,0x10
20003a40:	0807f793          	andi	a5,a5,128
20003a44:	fe0784e3          	beqz	a5,20003a2c <_outchar+0x34>
20003a48:	00000013          	nop
20003a4c:	00000013          	nop
20003a50:	01c12083          	lw	ra,28(sp)
20003a54:	01812403          	lw	s0,24(sp)
20003a58:	02010113          	addi	sp,sp,32
20003a5c:	00008067          	ret

20003a60 <_sbrk>:
20003a60:	fd010113          	addi	sp,sp,-48
20003a64:	02112623          	sw	ra,44(sp)
20003a68:	02812423          	sw	s0,40(sp)
20003a6c:	03010413          	addi	s0,sp,48
20003a70:	fca42e23          	sw	a0,-36(s0)
20003a74:	200097b7          	lui	a5,0x20009
20003a78:	1a07a783          	lw	a5,416(a5) # 200091a0 <heap_end>
20003a7c:	00079a63          	bnez	a5,20003a90 <_sbrk+0x30>
20003a80:	200097b7          	lui	a5,0x20009
20003a84:	20009737          	lui	a4,0x20009
20003a88:	30470713          	addi	a4,a4,772 # 20009304 <__bss_end__>
20003a8c:	1ae7a023          	sw	a4,416(a5) # 200091a0 <heap_end>
20003a90:	200097b7          	lui	a5,0x20009
20003a94:	1a07a783          	lw	a5,416(a5) # 200091a0 <heap_end>
20003a98:	fef42623          	sw	a5,-20(s0)
20003a9c:	200097b7          	lui	a5,0x20009
20003aa0:	1a07a703          	lw	a4,416(a5) # 200091a0 <heap_end>
20003aa4:	fdc42783          	lw	a5,-36(s0)
20003aa8:	00f70733          	add	a4,a4,a5
20003aac:	2000a7b7          	lui	a5,0x2000a
20003ab0:	b0478793          	addi	a5,a5,-1276 # 20009b04 <__heap_top>
20003ab4:	00e7fe63          	bgeu	a5,a4,20003ad0 <_sbrk+0x70>
20003ab8:	07c030ef          	jal	20006b34 <__errno>
20003abc:	00050713          	mv	a4,a0
20003ac0:	00c00793          	li	a5,12
20003ac4:	00f72023          	sw	a5,0(a4)
20003ac8:	fff00793          	li	a5,-1
20003acc:	0200006f          	j	20003aec <_sbrk+0x8c>
20003ad0:	200097b7          	lui	a5,0x20009
20003ad4:	1a07a703          	lw	a4,416(a5) # 200091a0 <heap_end>
20003ad8:	fdc42783          	lw	a5,-36(s0)
20003adc:	00f70733          	add	a4,a4,a5
20003ae0:	200097b7          	lui	a5,0x20009
20003ae4:	1ae7a023          	sw	a4,416(a5) # 200091a0 <heap_end>
20003ae8:	fec42783          	lw	a5,-20(s0)
20003aec:	00078513          	mv	a0,a5
20003af0:	02c12083          	lw	ra,44(sp)
20003af4:	02812403          	lw	s0,40(sp)
20003af8:	03010113          	addi	sp,sp,48
20003afc:	00008067          	ret

20003b00 <_crt_init>:
20003b00:	fe010113          	addi	sp,sp,-32
20003b04:	00112e23          	sw	ra,28(sp)
20003b08:	00812c23          	sw	s0,24(sp)
20003b0c:	02010413          	addi	s0,sp,32
20003b10:	00000013          	nop
20003b14:	98dff0ef          	jal	200034a0 <_pll_init_144>
20003b18:	00050793          	mv	a5,a0
20003b1c:	fe079ce3          	bnez	a5,20003b14 <_crt_init+0x14>
20003b20:	400217b7          	lui	a5,0x40021
20003b24:	0187a683          	lw	a3,24(a5) # 40021018 <__stack_top+0x20017114>
20003b28:	400217b7          	lui	a5,0x40021
20003b2c:	00004737          	lui	a4,0x4
20003b30:	00e6e733          	or	a4,a3,a4
20003b34:	00e7ac23          	sw	a4,24(a5) # 40021018 <__stack_top+0x20017114>
20003b38:	400217b7          	lui	a5,0x40021
20003b3c:	0187a703          	lw	a4,24(a5) # 40021018 <__stack_top+0x20017114>
20003b40:	400217b7          	lui	a5,0x40021
20003b44:	00476713          	ori	a4,a4,4
20003b48:	00e7ac23          	sw	a4,24(a5) # 40021018 <__stack_top+0x20017114>
20003b4c:	400217b7          	lui	a5,0x40021
20003b50:	0187a703          	lw	a4,24(a5) # 40021018 <__stack_top+0x20017114>
20003b54:	400217b7          	lui	a5,0x40021
20003b58:	00176713          	ori	a4,a4,1
20003b5c:	00e7ac23          	sw	a4,24(a5) # 40021018 <__stack_top+0x20017114>
20003b60:	400217b7          	lui	a5,0x40021
20003b64:	0187a703          	lw	a4,24(a5) # 40021018 <__stack_top+0x20017114>
20003b68:	400217b7          	lui	a5,0x40021
20003b6c:	02076713          	ori	a4,a4,32
20003b70:	00e7ac23          	sw	a4,24(a5) # 40021018 <__stack_top+0x20017114>
20003b74:	400217b7          	lui	a5,0x40021
20003b78:	0187a703          	lw	a4,24(a5) # 40021018 <__stack_top+0x20017114>
20003b7c:	400217b7          	lui	a5,0x40021
20003b80:	04076713          	ori	a4,a4,64
20003b84:	00e7ac23          	sw	a4,24(a5) # 40021018 <__stack_top+0x20017114>
20003b88:	400217b7          	lui	a5,0x40021
20003b8c:	00c7a683          	lw	a3,12(a5) # 4002100c <__stack_top+0x20017108>
20003b90:	400217b7          	lui	a5,0x40021
20003b94:	00004737          	lui	a4,0x4
20003b98:	06070713          	addi	a4,a4,96 # 4060 <_start-0x1fffbfa0>
20003b9c:	00e6e733          	or	a4,a3,a4
20003ba0:	00e7a623          	sw	a4,12(a5) # 4002100c <__stack_top+0x20017108>
20003ba4:	400217b7          	lui	a5,0x40021
20003ba8:	00c7a683          	lw	a3,12(a5) # 4002100c <__stack_top+0x20017108>
20003bac:	400217b7          	lui	a5,0x40021
20003bb0:	ffffc737          	lui	a4,0xffffc
20003bb4:	f9f70713          	addi	a4,a4,-97 # ffffbf9f <__stack_top+0xdfff209b>
20003bb8:	00e6f733          	and	a4,a3,a4
20003bbc:	00e7a623          	sw	a4,12(a5) # 4002100c <__stack_top+0x20017108>
20003bc0:	400117b7          	lui	a5,0x40011
20003bc4:	80478793          	addi	a5,a5,-2044 # 40010804 <__stack_top+0x20006900>
20003bc8:	0007a703          	lw	a4,0(a5)
20003bcc:	400117b7          	lui	a5,0x40011
20003bd0:	80478793          	addi	a5,a5,-2044 # 40010804 <__stack_top+0x20006900>
20003bd4:	0b076713          	ori	a4,a4,176
20003bd8:	00e7a023          	sw	a4,0(a5)
20003bdc:	400117b7          	lui	a5,0x40011
20003be0:	80478793          	addi	a5,a5,-2044 # 40010804 <__stack_top+0x20006900>
20003be4:	0007a703          	lw	a4,0(a5)
20003be8:	400117b7          	lui	a5,0x40011
20003bec:	80478793          	addi	a5,a5,-2044 # 40010804 <__stack_top+0x20006900>
20003bf0:	40076713          	ori	a4,a4,1024
20003bf4:	00e7a023          	sw	a4,0(a5)
20003bf8:	400147b7          	lui	a5,0x40014
20003bfc:	80078793          	addi	a5,a5,-2048 # 40013800 <__stack_top+0x200098fc>
20003c00:	4e200713          	li	a4,1250
20003c04:	00e79423          	sh	a4,8(a5)
20003c08:	400147b7          	lui	a5,0x40014
20003c0c:	80078793          	addi	a5,a5,-2048 # 40013800 <__stack_top+0x200098fc>
20003c10:	00002737          	lui	a4,0x2
20003c14:	00c70713          	addi	a4,a4,12 # 200c <_start-0x1fffdff4>
20003c18:	00e79623          	sh	a4,12(a5)
20003c1c:	400217b7          	lui	a5,0x40021
20003c20:	01c7a703          	lw	a4,28(a5) # 4002101c <__stack_top+0x20017118>
20003c24:	400217b7          	lui	a5,0x40021
20003c28:	01076713          	ori	a4,a4,16
20003c2c:	00e7ae23          	sw	a4,28(a5) # 4002101c <__stack_top+0x20017118>
20003c30:	400217b7          	lui	a5,0x40021
20003c34:	0107a703          	lw	a4,16(a5) # 40021010 <__stack_top+0x2001710c>
20003c38:	400217b7          	lui	a5,0x40021
20003c3c:	01076713          	ori	a4,a4,16
20003c40:	00e7a823          	sw	a4,16(a5) # 40021010 <__stack_top+0x2001710c>
20003c44:	400217b7          	lui	a5,0x40021
20003c48:	0107a703          	lw	a4,16(a5) # 40021010 <__stack_top+0x2001710c>
20003c4c:	400217b7          	lui	a5,0x40021
20003c50:	fef77713          	andi	a4,a4,-17
20003c54:	00e7a823          	sw	a4,16(a5) # 40021010 <__stack_top+0x2001710c>
20003c58:	400217b7          	lui	a5,0x40021
20003c5c:	01c7a703          	lw	a4,28(a5) # 4002101c <__stack_top+0x20017118>
20003c60:	400217b7          	lui	a5,0x40021
20003c64:	02076713          	ori	a4,a4,32
20003c68:	00e7ae23          	sw	a4,28(a5) # 4002101c <__stack_top+0x20017118>
20003c6c:	400217b7          	lui	a5,0x40021
20003c70:	0107a703          	lw	a4,16(a5) # 40021010 <__stack_top+0x2001710c>
20003c74:	400217b7          	lui	a5,0x40021
20003c78:	02076713          	ori	a4,a4,32
20003c7c:	00e7a823          	sw	a4,16(a5) # 40021010 <__stack_top+0x2001710c>
20003c80:	400217b7          	lui	a5,0x40021
20003c84:	0107a703          	lw	a4,16(a5) # 40021010 <__stack_top+0x2001710c>
20003c88:	400217b7          	lui	a5,0x40021
20003c8c:	fdf77713          	andi	a4,a4,-33
20003c90:	00e7a823          	sw	a4,16(a5) # 40021010 <__stack_top+0x2001710c>
20003c94:	200097b7          	lui	a5,0x20009
20003c98:	1a07a023          	sw	zero,416(a5) # 200091a0 <heap_end>
20003c9c:	200097b7          	lui	a5,0x20009
20003ca0:	18078793          	addi	a5,a5,384 # 20009180 <lcddev>
20003ca4:	fef42623          	sw	a5,-20(s0)
20003ca8:	200097b7          	lui	a5,0x20009
20003cac:	30478793          	addi	a5,a5,772 # 20009304 <__bss_end__>
20003cb0:	fef42423          	sw	a5,-24(s0)
20003cb4:	0140006f          	j	20003cc8 <_crt_init+0x1c8>
20003cb8:	fec42783          	lw	a5,-20(s0)
20003cbc:	00178713          	addi	a4,a5,1
20003cc0:	fee42623          	sw	a4,-20(s0)
20003cc4:	00078023          	sb	zero,0(a5)
20003cc8:	fec42703          	lw	a4,-20(s0)
20003ccc:	fe842783          	lw	a5,-24(s0)
20003cd0:	fef764e3          	bltu	a4,a5,20003cb8 <_crt_init+0x1b8>
20003cd4:	200097b7          	lui	a5,0x20009
20003cd8:	17c7a783          	lw	a5,380(a5) # 2000917c <_impure_ptr>
20003cdc:	0047a783          	lw	a5,4(a5)
20003ce0:	00000693          	li	a3,0
20003ce4:	00200613          	li	a2,2
20003ce8:	00000593          	li	a1,0
20003cec:	00078513          	mv	a0,a5
20003cf0:	451020ef          	jal	20006940 <setvbuf>
20003cf4:	200097b7          	lui	a5,0x20009
20003cf8:	17c7a783          	lw	a5,380(a5) # 2000917c <_impure_ptr>
20003cfc:	0087a783          	lw	a5,8(a5)
20003d00:	00000693          	li	a3,0
20003d04:	00200613          	li	a2,2
20003d08:	00000593          	li	a1,0
20003d0c:	00078513          	mv	a0,a5
20003d10:	431020ef          	jal	20006940 <setvbuf>
20003d14:	200097b7          	lui	a5,0x20009
20003d18:	17c7a783          	lw	a5,380(a5) # 2000917c <_impure_ptr>
20003d1c:	00c7a783          	lw	a5,12(a5)
20003d20:	00000693          	li	a3,0
20003d24:	00200613          	li	a2,2
20003d28:	00000593          	li	a1,0
20003d2c:	00078513          	mv	a0,a5
20003d30:	411020ef          	jal	20006940 <setvbuf>
20003d34:	00000013          	nop
20003d38:	01c12083          	lw	ra,28(sp)
20003d3c:	01812403          	lw	s0,24(sp)
20003d40:	02010113          	addi	sp,sp,32
20003d44:	00008067          	ret

20003d48 <_crt_deinit>:
20003d48:	ff010113          	addi	sp,sp,-16
20003d4c:	00112623          	sw	ra,12(sp)
20003d50:	00812423          	sw	s0,8(sp)
20003d54:	01010413          	addi	s0,sp,16
20003d58:	00000013          	nop
20003d5c:	00c12083          	lw	ra,12(sp)
20003d60:	00812403          	lw	s0,8(sp)
20003d64:	01010113          	addi	sp,sp,16
20003d68:	00008067          	ret

20003d6c <_exit>:
20003d6c:	fe010113          	addi	sp,sp,-32
20003d70:	00112e23          	sw	ra,28(sp)
20003d74:	00812c23          	sw	s0,24(sp)
20003d78:	02010413          	addi	s0,sp,32
20003d7c:	fea42623          	sw	a0,-20(s0)
20003d80:	fec42783          	lw	a5,-20(s0)
20003d84:	00078a63          	beqz	a5,20003d98 <_exit+0x2c>
20003d88:	fec42583          	lw	a1,-20(s0)
20003d8c:	200097b7          	lui	a5,0x20009
20003d90:	cb878513          	addi	a0,a5,-840 # 20008cb8 <_malloc_usable_size_r+0x30>
20003d94:	35d020ef          	jal	200068f0 <iprintf>
20003d98:	fb1ff0ef          	jal	20003d48 <_crt_deinit>
20003d9c:	00000013          	nop
20003da0:	01c12083          	lw	ra,28(sp)
20003da4:	01812403          	lw	s0,24(sp)
20003da8:	02010113          	addi	sp,sp,32
20003dac:	00008067          	ret

20003db0 <_close>:
20003db0:	fe010113          	addi	sp,sp,-32
20003db4:	00112e23          	sw	ra,28(sp)
20003db8:	00812c23          	sw	s0,24(sp)
20003dbc:	02010413          	addi	s0,sp,32
20003dc0:	fea42623          	sw	a0,-20(s0)
20003dc4:	fff00793          	li	a5,-1
20003dc8:	00078513          	mv	a0,a5
20003dcc:	01c12083          	lw	ra,28(sp)
20003dd0:	01812403          	lw	s0,24(sp)
20003dd4:	02010113          	addi	sp,sp,32
20003dd8:	00008067          	ret

20003ddc <_open>:
20003ddc:	fe010113          	addi	sp,sp,-32
20003de0:	00112e23          	sw	ra,28(sp)
20003de4:	00812c23          	sw	s0,24(sp)
20003de8:	02010413          	addi	s0,sp,32
20003dec:	fea42623          	sw	a0,-20(s0)
20003df0:	feb42423          	sw	a1,-24(s0)
20003df4:	fec42223          	sw	a2,-28(s0)
20003df8:	fff00793          	li	a5,-1
20003dfc:	00078513          	mv	a0,a5
20003e00:	01c12083          	lw	ra,28(sp)
20003e04:	01812403          	lw	s0,24(sp)
20003e08:	02010113          	addi	sp,sp,32
20003e0c:	00008067          	ret

20003e10 <_fstat>:
20003e10:	fe010113          	addi	sp,sp,-32
20003e14:	00112e23          	sw	ra,28(sp)
20003e18:	00812c23          	sw	s0,24(sp)
20003e1c:	02010413          	addi	s0,sp,32
20003e20:	fea42623          	sw	a0,-20(s0)
20003e24:	feb42423          	sw	a1,-24(s0)
20003e28:	fe842783          	lw	a5,-24(s0)
20003e2c:	00002737          	lui	a4,0x2
20003e30:	00e7a223          	sw	a4,4(a5)
20003e34:	00000793          	li	a5,0
20003e38:	00078513          	mv	a0,a5
20003e3c:	01c12083          	lw	ra,28(sp)
20003e40:	01812403          	lw	s0,24(sp)
20003e44:	02010113          	addi	sp,sp,32
20003e48:	00008067          	ret

20003e4c <_lseek>:
20003e4c:	fe010113          	addi	sp,sp,-32
20003e50:	00112e23          	sw	ra,28(sp)
20003e54:	00812c23          	sw	s0,24(sp)
20003e58:	02010413          	addi	s0,sp,32
20003e5c:	fea42623          	sw	a0,-20(s0)
20003e60:	feb42423          	sw	a1,-24(s0)
20003e64:	fec42223          	sw	a2,-28(s0)
20003e68:	00000793          	li	a5,0
20003e6c:	00078513          	mv	a0,a5
20003e70:	01c12083          	lw	ra,28(sp)
20003e74:	01812403          	lw	s0,24(sp)
20003e78:	02010113          	addi	sp,sp,32
20003e7c:	00008067          	ret

20003e80 <_isatty>:
20003e80:	fe010113          	addi	sp,sp,-32
20003e84:	00112e23          	sw	ra,28(sp)
20003e88:	00812c23          	sw	s0,24(sp)
20003e8c:	02010413          	addi	s0,sp,32
20003e90:	fea42623          	sw	a0,-20(s0)
20003e94:	00000793          	li	a5,0
20003e98:	00078513          	mv	a0,a5
20003e9c:	01c12083          	lw	ra,28(sp)
20003ea0:	01812403          	lw	s0,24(sp)
20003ea4:	02010113          	addi	sp,sp,32
20003ea8:	00008067          	ret

20003eac <_write>:
20003eac:	fd010113          	addi	sp,sp,-48
20003eb0:	02112623          	sw	ra,44(sp)
20003eb4:	02812423          	sw	s0,40(sp)
20003eb8:	03010413          	addi	s0,sp,48
20003ebc:	fca42e23          	sw	a0,-36(s0)
20003ec0:	fcb42c23          	sw	a1,-40(s0)
20003ec4:	fcc42a23          	sw	a2,-44(s0)
20003ec8:	fd442783          	lw	a5,-44(s0)
20003ecc:	fef42623          	sw	a5,-20(s0)
20003ed0:	01c0006f          	j	20003eec <_write+0x40>
20003ed4:	fd842783          	lw	a5,-40(s0)
20003ed8:	00178713          	addi	a4,a5,1
20003edc:	fce42c23          	sw	a4,-40(s0)
20003ee0:	0007c783          	lbu	a5,0(a5)
20003ee4:	00078513          	mv	a0,a5
20003ee8:	b11ff0ef          	jal	200039f8 <_outchar>
20003eec:	fd442783          	lw	a5,-44(s0)
20003ef0:	fff78713          	addi	a4,a5,-1
20003ef4:	fce42a23          	sw	a4,-44(s0)
20003ef8:	fc079ee3          	bnez	a5,20003ed4 <_write+0x28>
20003efc:	fec42783          	lw	a5,-20(s0)
20003f00:	00078513          	mv	a0,a5
20003f04:	02c12083          	lw	ra,44(sp)
20003f08:	02812403          	lw	s0,40(sp)
20003f0c:	03010113          	addi	sp,sp,48
20003f10:	00008067          	ret

20003f14 <_read>:
20003f14:	fd010113          	addi	sp,sp,-48
20003f18:	02112623          	sw	ra,44(sp)
20003f1c:	02812423          	sw	s0,40(sp)
20003f20:	03010413          	addi	s0,sp,48
20003f24:	fca42e23          	sw	a0,-36(s0)
20003f28:	fcb42c23          	sw	a1,-40(s0)
20003f2c:	fcc42a23          	sw	a2,-44(s0)
20003f30:	fe042623          	sw	zero,-20(s0)
20003f34:	a65ff0ef          	jal	20003998 <_tstchar>
20003f38:	00050793          	mv	a5,a0
20003f3c:	fef405a3          	sb	a5,-21(s0)
20003f40:	feb44783          	lbu	a5,-21(s0)
20003f44:	02078263          	beqz	a5,20003f68 <_read+0x54>
20003f48:	fd842783          	lw	a5,-40(s0)
20003f4c:	00178713          	addi	a4,a5,1
20003f50:	fce42c23          	sw	a4,-40(s0)
20003f54:	feb44703          	lbu	a4,-21(s0)
20003f58:	00e78023          	sb	a4,0(a5)
20003f5c:	fec42783          	lw	a5,-20(s0)
20003f60:	00178793          	addi	a5,a5,1
20003f64:	fef42623          	sw	a5,-20(s0)
20003f68:	fd442703          	lw	a4,-44(s0)
20003f6c:	fec42783          	lw	a5,-20(s0)
20003f70:	fcf712e3          	bne	a4,a5,20003f34 <_read+0x20>
20003f74:	fec42783          	lw	a5,-20(s0)
20003f78:	00078513          	mv	a0,a5
20003f7c:	02c12083          	lw	ra,44(sp)
20003f80:	02812403          	lw	s0,40(sp)
20003f84:	03010113          	addi	sp,sp,48
20003f88:	00008067          	ret

20003f8c <_getpid>:
20003f8c:	ff010113          	addi	sp,sp,-16
20003f90:	00112623          	sw	ra,12(sp)
20003f94:	00812423          	sw	s0,8(sp)
20003f98:	01010413          	addi	s0,sp,16
20003f9c:	00000793          	li	a5,0
20003fa0:	00078513          	mv	a0,a5
20003fa4:	00c12083          	lw	ra,12(sp)
20003fa8:	00812403          	lw	s0,8(sp)
20003fac:	01010113          	addi	sp,sp,16
20003fb0:	00008067          	ret

20003fb4 <_kill>:
20003fb4:	fe010113          	addi	sp,sp,-32
20003fb8:	00112e23          	sw	ra,28(sp)
20003fbc:	00812c23          	sw	s0,24(sp)
20003fc0:	02010413          	addi	s0,sp,32
20003fc4:	fea42623          	sw	a0,-20(s0)
20003fc8:	feb42423          	sw	a1,-24(s0)
20003fcc:	00000793          	li	a5,0
20003fd0:	00078513          	mv	a0,a5
20003fd4:	01c12083          	lw	ra,28(sp)
20003fd8:	01812403          	lw	s0,24(sp)
20003fdc:	02010113          	addi	sp,sp,32
20003fe0:	00008067          	ret

20003fe4 <__udivdi3>:
20003fe4:	00060713          	mv	a4,a2
20003fe8:	00068893          	mv	a7,a3
20003fec:	00050813          	mv	a6,a0
20003ff0:	00058313          	mv	t1,a1
20003ff4:	24069463          	bnez	a3,2000423c <__udivdi3+0x258>
20003ff8:	200097b7          	lui	a5,0x20009
20003ffc:	cd878793          	addi	a5,a5,-808 # 20008cd8 <__clz_tab>
20004000:	0ec5f463          	bgeu	a1,a2,200040e8 <__udivdi3+0x104>
20004004:	000106b7          	lui	a3,0x10
20004008:	0cd67063          	bgeu	a2,a3,200040c8 <__udivdi3+0xe4>
2000400c:	10063693          	sltiu	a3,a2,256
20004010:	0016b693          	seqz	a3,a3
20004014:	00369693          	slli	a3,a3,0x3
20004018:	00d65e33          	srl	t3,a2,a3
2000401c:	01c787b3          	add	a5,a5,t3
20004020:	0007c783          	lbu	a5,0(a5)
20004024:	00d787b3          	add	a5,a5,a3
20004028:	02000693          	li	a3,32
2000402c:	00d78e63          	beq	a5,a3,20004048 <__udivdi3+0x64>
20004030:	40f686b3          	sub	a3,a3,a5
20004034:	00d59333          	sll	t1,a1,a3
20004038:	00f557b3          	srl	a5,a0,a5
2000403c:	00d61733          	sll	a4,a2,a3
20004040:	0067e333          	or	t1,a5,t1
20004044:	00d51833          	sll	a6,a0,a3
20004048:	01075513          	srli	a0,a4,0x10
2000404c:	02a357b3          	divu	a5,t1,a0
20004050:	01071593          	slli	a1,a4,0x10
20004054:	0105d593          	srli	a1,a1,0x10
20004058:	01085693          	srli	a3,a6,0x10
2000405c:	02a37333          	remu	t1,t1,a0
20004060:	02f58633          	mul	a2,a1,a5
20004064:	01031313          	slli	t1,t1,0x10
20004068:	0066e6b3          	or	a3,a3,t1
2000406c:	00c6fa63          	bgeu	a3,a2,20004080 <__udivdi3+0x9c>
20004070:	00d706b3          	add	a3,a4,a3
20004074:	00c6f463          	bgeu	a3,a2,2000407c <__udivdi3+0x98>
20004078:	06e6f263          	bgeu	a3,a4,200040dc <__udivdi3+0xf8>
2000407c:	fff78793          	addi	a5,a5,-1
20004080:	40c686b3          	sub	a3,a3,a2
20004084:	02a6d633          	divu	a2,a3,a0
20004088:	01081813          	slli	a6,a6,0x10
2000408c:	01085813          	srli	a6,a6,0x10
20004090:	02a6f6b3          	remu	a3,a3,a0
20004094:	02c585b3          	mul	a1,a1,a2
20004098:	01069693          	slli	a3,a3,0x10
2000409c:	00d86833          	or	a6,a6,a3
200040a0:	00b87a63          	bgeu	a6,a1,200040b4 <__udivdi3+0xd0>
200040a4:	01070833          	add	a6,a4,a6
200040a8:	00b87463          	bgeu	a6,a1,200040b0 <__udivdi3+0xcc>
200040ac:	18e87463          	bgeu	a6,a4,20004234 <__udivdi3+0x250>
200040b0:	fff60613          	addi	a2,a2,-1
200040b4:	01079793          	slli	a5,a5,0x10
200040b8:	00c7e7b3          	or	a5,a5,a2
200040bc:	00078513          	mv	a0,a5
200040c0:	00088593          	mv	a1,a7
200040c4:	00008067          	ret
200040c8:	01000e37          	lui	t3,0x1000
200040cc:	01800693          	li	a3,24
200040d0:	f5c674e3          	bgeu	a2,t3,20004018 <__udivdi3+0x34>
200040d4:	01000693          	li	a3,16
200040d8:	f41ff06f          	j	20004018 <__udivdi3+0x34>
200040dc:	ffe78793          	addi	a5,a5,-2
200040e0:	00e686b3          	add	a3,a3,a4
200040e4:	f9dff06f          	j	20004080 <__udivdi3+0x9c>
200040e8:	00000693          	li	a3,0
200040ec:	00060c63          	beqz	a2,20004104 <__udivdi3+0x120>
200040f0:	000106b7          	lui	a3,0x10
200040f4:	06d67863          	bgeu	a2,a3,20004164 <__udivdi3+0x180>
200040f8:	10063693          	sltiu	a3,a2,256
200040fc:	0016b693          	seqz	a3,a3
20004100:	00369693          	slli	a3,a3,0x3
20004104:	00d658b3          	srl	a7,a2,a3
20004108:	011787b3          	add	a5,a5,a7
2000410c:	0007c783          	lbu	a5,0(a5)
20004110:	00d787b3          	add	a5,a5,a3
20004114:	02000693          	li	a3,32
20004118:	06d79063          	bne	a5,a3,20004178 <__udivdi3+0x194>
2000411c:	40c58633          	sub	a2,a1,a2
20004120:	00100893          	li	a7,1
20004124:	01075513          	srli	a0,a4,0x10
20004128:	02a657b3          	divu	a5,a2,a0
2000412c:	01071593          	slli	a1,a4,0x10
20004130:	0105d593          	srli	a1,a1,0x10
20004134:	01085693          	srli	a3,a6,0x10
20004138:	02a67633          	remu	a2,a2,a0
2000413c:	02f58333          	mul	t1,a1,a5
20004140:	01061613          	slli	a2,a2,0x10
20004144:	00c6e6b3          	or	a3,a3,a2
20004148:	0066fa63          	bgeu	a3,t1,2000415c <__udivdi3+0x178>
2000414c:	00d706b3          	add	a3,a4,a3
20004150:	0066f463          	bgeu	a3,t1,20004158 <__udivdi3+0x174>
20004154:	0ce6fa63          	bgeu	a3,a4,20004228 <__udivdi3+0x244>
20004158:	fff78793          	addi	a5,a5,-1
2000415c:	406686b3          	sub	a3,a3,t1
20004160:	f25ff06f          	j	20004084 <__udivdi3+0xa0>
20004164:	010008b7          	lui	a7,0x1000
20004168:	01800693          	li	a3,24
2000416c:	f9167ce3          	bgeu	a2,a7,20004104 <__udivdi3+0x120>
20004170:	01000693          	li	a3,16
20004174:	f91ff06f          	j	20004104 <__udivdi3+0x120>
20004178:	40f68833          	sub	a6,a3,a5
2000417c:	01061733          	sll	a4,a2,a6
20004180:	00f5d6b3          	srl	a3,a1,a5
20004184:	010595b3          	sll	a1,a1,a6
20004188:	00f557b3          	srl	a5,a0,a5
2000418c:	01051833          	sll	a6,a0,a6
20004190:	01075513          	srli	a0,a4,0x10
20004194:	02a6d8b3          	divu	a7,a3,a0
20004198:	01071613          	slli	a2,a4,0x10
2000419c:	01065613          	srli	a2,a2,0x10
200041a0:	00b7e7b3          	or	a5,a5,a1
200041a4:	02a6f6b3          	remu	a3,a3,a0
200041a8:	03160333          	mul	t1,a2,a7
200041ac:	01069593          	slli	a1,a3,0x10
200041b0:	0107d693          	srli	a3,a5,0x10
200041b4:	00b6e6b3          	or	a3,a3,a1
200041b8:	0066fa63          	bgeu	a3,t1,200041cc <__udivdi3+0x1e8>
200041bc:	00d706b3          	add	a3,a4,a3
200041c0:	0066f463          	bgeu	a3,t1,200041c8 <__udivdi3+0x1e4>
200041c4:	04e6f663          	bgeu	a3,a4,20004210 <__udivdi3+0x22c>
200041c8:	fff88893          	addi	a7,a7,-1 # ffffff <_start-0x1f000001>
200041cc:	406686b3          	sub	a3,a3,t1
200041d0:	02a6d5b3          	divu	a1,a3,a0
200041d4:	01079793          	slli	a5,a5,0x10
200041d8:	0107d793          	srli	a5,a5,0x10
200041dc:	02a6f6b3          	remu	a3,a3,a0
200041e0:	02b60633          	mul	a2,a2,a1
200041e4:	01069693          	slli	a3,a3,0x10
200041e8:	00d7e7b3          	or	a5,a5,a3
200041ec:	00c7fa63          	bgeu	a5,a2,20004200 <__udivdi3+0x21c>
200041f0:	00f707b3          	add	a5,a4,a5
200041f4:	00c7f463          	bgeu	a5,a2,200041fc <__udivdi3+0x218>
200041f8:	02e7f263          	bgeu	a5,a4,2000421c <__udivdi3+0x238>
200041fc:	fff58593          	addi	a1,a1,-1
20004200:	01089893          	slli	a7,a7,0x10
20004204:	40c78633          	sub	a2,a5,a2
20004208:	00b8e8b3          	or	a7,a7,a1
2000420c:	f19ff06f          	j	20004124 <__udivdi3+0x140>
20004210:	ffe88893          	addi	a7,a7,-2
20004214:	00e686b3          	add	a3,a3,a4
20004218:	fb5ff06f          	j	200041cc <__udivdi3+0x1e8>
2000421c:	ffe58593          	addi	a1,a1,-2
20004220:	00e787b3          	add	a5,a5,a4
20004224:	fddff06f          	j	20004200 <__udivdi3+0x21c>
20004228:	ffe78793          	addi	a5,a5,-2
2000422c:	00e686b3          	add	a3,a3,a4
20004230:	f2dff06f          	j	2000415c <__udivdi3+0x178>
20004234:	ffe60613          	addi	a2,a2,-2
20004238:	e7dff06f          	j	200040b4 <__udivdi3+0xd0>
2000423c:	18d5e463          	bltu	a1,a3,200043c4 <__udivdi3+0x3e0>
20004240:	000107b7          	lui	a5,0x10
20004244:	04f6f463          	bgeu	a3,a5,2000428c <__udivdi3+0x2a8>
20004248:	1006b793          	sltiu	a5,a3,256
2000424c:	0017b793          	seqz	a5,a5
20004250:	00379793          	slli	a5,a5,0x3
20004254:	20009737          	lui	a4,0x20009
20004258:	00f6d833          	srl	a6,a3,a5
2000425c:	cd870713          	addi	a4,a4,-808 # 20008cd8 <__clz_tab>
20004260:	01070733          	add	a4,a4,a6
20004264:	00074703          	lbu	a4,0(a4)
20004268:	02000813          	li	a6,32
2000426c:	00f70733          	add	a4,a4,a5
20004270:	03071863          	bne	a4,a6,200042a0 <__udivdi3+0x2bc>
20004274:	00c537b3          	sltu	a5,a0,a2
20004278:	0017b793          	seqz	a5,a5
2000427c:	00b6b6b3          	sltu	a3,a3,a1
20004280:	00d7e7b3          	or	a5,a5,a3
20004284:	00000893          	li	a7,0
20004288:	e35ff06f          	j	200040bc <__udivdi3+0xd8>
2000428c:	01000737          	lui	a4,0x1000
20004290:	01800793          	li	a5,24
20004294:	fce6f0e3          	bgeu	a3,a4,20004254 <__udivdi3+0x270>
20004298:	01000793          	li	a5,16
2000429c:	fb9ff06f          	j	20004254 <__udivdi3+0x270>
200042a0:	40e80833          	sub	a6,a6,a4
200042a4:	00e658b3          	srl	a7,a2,a4
200042a8:	010696b3          	sll	a3,a3,a6
200042ac:	00d8e8b3          	or	a7,a7,a3
200042b0:	0108de13          	srli	t3,a7,0x10
200042b4:	00e5d6b3          	srl	a3,a1,a4
200042b8:	03c6d7b3          	divu	a5,a3,t3
200042bc:	01089313          	slli	t1,a7,0x10
200042c0:	01035313          	srli	t1,t1,0x10
200042c4:	010595b3          	sll	a1,a1,a6
200042c8:	00e55733          	srl	a4,a0,a4
200042cc:	00b76733          	or	a4,a4,a1
200042d0:	01061633          	sll	a2,a2,a6
200042d4:	03c6f6b3          	remu	a3,a3,t3
200042d8:	02f30eb3          	mul	t4,t1,a5
200042dc:	01069593          	slli	a1,a3,0x10
200042e0:	01075693          	srli	a3,a4,0x10
200042e4:	00b6e6b3          	or	a3,a3,a1
200042e8:	01d6fa63          	bgeu	a3,t4,200042fc <__udivdi3+0x318>
200042ec:	00d886b3          	add	a3,a7,a3
200042f0:	01d6f463          	bgeu	a3,t4,200042f8 <__udivdi3+0x314>
200042f4:	0b16fc63          	bgeu	a3,a7,200043ac <__udivdi3+0x3c8>
200042f8:	fff78793          	addi	a5,a5,-1 # ffff <_start-0x1fff0001>
200042fc:	41d686b3          	sub	a3,a3,t4
20004300:	03c6d5b3          	divu	a1,a3,t3
20004304:	01071713          	slli	a4,a4,0x10
20004308:	01075713          	srli	a4,a4,0x10
2000430c:	03c6f6b3          	remu	a3,a3,t3
20004310:	02b30333          	mul	t1,t1,a1
20004314:	01069693          	slli	a3,a3,0x10
20004318:	00d76733          	or	a4,a4,a3
2000431c:	00677a63          	bgeu	a4,t1,20004330 <__udivdi3+0x34c>
20004320:	00e88733          	add	a4,a7,a4
20004324:	00677463          	bgeu	a4,t1,2000432c <__udivdi3+0x348>
20004328:	09177863          	bgeu	a4,a7,200043b8 <__udivdi3+0x3d4>
2000432c:	fff58593          	addi	a1,a1,-1
20004330:	01079793          	slli	a5,a5,0x10
20004334:	00b7e7b3          	or	a5,a5,a1
20004338:	40670733          	sub	a4,a4,t1
2000433c:	01059593          	slli	a1,a1,0x10
20004340:	01061313          	slli	t1,a2,0x10
20004344:	0105d593          	srli	a1,a1,0x10
20004348:	0107d893          	srli	a7,a5,0x10
2000434c:	01035313          	srli	t1,t1,0x10
20004350:	01065613          	srli	a2,a2,0x10
20004354:	02658e33          	mul	t3,a1,t1
20004358:	02688333          	mul	t1,a7,t1
2000435c:	010e5693          	srli	a3,t3,0x10
20004360:	02c585b3          	mul	a1,a1,a2
20004364:	006585b3          	add	a1,a1,t1
20004368:	00b686b3          	add	a3,a3,a1
2000436c:	02c888b3          	mul	a7,a7,a2
20004370:	0066f663          	bgeu	a3,t1,2000437c <__udivdi3+0x398>
20004374:	00010637          	lui	a2,0x10
20004378:	00c888b3          	add	a7,a7,a2
2000437c:	0106d613          	srli	a2,a3,0x10
20004380:	01160633          	add	a2,a2,a7
20004384:	02c76063          	bltu	a4,a2,200043a4 <__udivdi3+0x3c0>
20004388:	010e1e13          	slli	t3,t3,0x10
2000438c:	01069693          	slli	a3,a3,0x10
20004390:	010e5e13          	srli	t3,t3,0x10
20004394:	01051533          	sll	a0,a0,a6
20004398:	01c686b3          	add	a3,a3,t3
2000439c:	eed574e3          	bgeu	a0,a3,20004284 <__udivdi3+0x2a0>
200043a0:	eec712e3          	bne	a4,a2,20004284 <__udivdi3+0x2a0>
200043a4:	fff78793          	addi	a5,a5,-1
200043a8:	eddff06f          	j	20004284 <__udivdi3+0x2a0>
200043ac:	ffe78793          	addi	a5,a5,-2
200043b0:	011686b3          	add	a3,a3,a7
200043b4:	f49ff06f          	j	200042fc <__udivdi3+0x318>
200043b8:	ffe58593          	addi	a1,a1,-2
200043bc:	01170733          	add	a4,a4,a7
200043c0:	f71ff06f          	j	20004330 <__udivdi3+0x34c>
200043c4:	00000893          	li	a7,0
200043c8:	00000793          	li	a5,0
200043cc:	cf1ff06f          	j	200040bc <__udivdi3+0xd8>

200043d0 <__umoddi3>:
200043d0:	00060813          	mv	a6,a2
200043d4:	00050793          	mv	a5,a0
200043d8:	00058713          	mv	a4,a1
200043dc:	24069463          	bnez	a3,20004624 <__umoddi3+0x254>
200043e0:	200096b7          	lui	a3,0x20009
200043e4:	cd868693          	addi	a3,a3,-808 # 20008cd8 <__clz_tab>
200043e8:	0ec5f863          	bgeu	a1,a2,200044d8 <__umoddi3+0x108>
200043ec:	000108b7          	lui	a7,0x10
200043f0:	0d167a63          	bgeu	a2,a7,200044c4 <__umoddi3+0xf4>
200043f4:	10063893          	sltiu	a7,a2,256
200043f8:	0018b893          	seqz	a7,a7
200043fc:	00389893          	slli	a7,a7,0x3
20004400:	01165333          	srl	t1,a2,a7
20004404:	006686b3          	add	a3,a3,t1
20004408:	0006c683          	lbu	a3,0(a3)
2000440c:	02000313          	li	t1,32
20004410:	011686b3          	add	a3,a3,a7
20004414:	40d308b3          	sub	a7,t1,a3
20004418:	00668c63          	beq	a3,t1,20004430 <__umoddi3+0x60>
2000441c:	01159733          	sll	a4,a1,a7
20004420:	00d556b3          	srl	a3,a0,a3
20004424:	01161833          	sll	a6,a2,a7
20004428:	00e6e733          	or	a4,a3,a4
2000442c:	011517b3          	sll	a5,a0,a7
20004430:	01085513          	srli	a0,a6,0x10
20004434:	02a756b3          	divu	a3,a4,a0
20004438:	01081313          	slli	t1,a6,0x10
2000443c:	01035313          	srli	t1,t1,0x10
20004440:	02a77733          	remu	a4,a4,a0
20004444:	026686b3          	mul	a3,a3,t1
20004448:	01071593          	slli	a1,a4,0x10
2000444c:	0107d713          	srli	a4,a5,0x10
20004450:	00b76733          	or	a4,a4,a1
20004454:	02d77063          	bgeu	a4,a3,20004474 <__umoddi3+0xa4>
20004458:	00e80733          	add	a4,a6,a4
2000445c:	010735b3          	sltu	a1,a4,a6
20004460:	00d73633          	sltu	a2,a4,a3
20004464:	0015b593          	seqz	a1,a1
20004468:	00b67633          	and	a2,a2,a1
2000446c:	03060633          	mul	a2,a2,a6
20004470:	00e60733          	add	a4,a2,a4
20004474:	40d70733          	sub	a4,a4,a3
20004478:	02a756b3          	divu	a3,a4,a0
2000447c:	02a77733          	remu	a4,a4,a0
20004480:	026686b3          	mul	a3,a3,t1
20004484:	01079513          	slli	a0,a5,0x10
20004488:	01071713          	slli	a4,a4,0x10
2000448c:	01055513          	srli	a0,a0,0x10
20004490:	00e56533          	or	a0,a0,a4
20004494:	02d57063          	bgeu	a0,a3,200044b4 <__umoddi3+0xe4>
20004498:	00a80533          	add	a0,a6,a0
2000449c:	01053733          	sltu	a4,a0,a6
200044a0:	00d537b3          	sltu	a5,a0,a3
200044a4:	00173713          	seqz	a4,a4
200044a8:	00e7f7b3          	and	a5,a5,a4
200044ac:	030787b3          	mul	a5,a5,a6
200044b0:	00a78533          	add	a0,a5,a0
200044b4:	40d50533          	sub	a0,a0,a3
200044b8:	01155533          	srl	a0,a0,a7
200044bc:	00000593          	li	a1,0
200044c0:	00008067          	ret
200044c4:	01000337          	lui	t1,0x1000
200044c8:	01800893          	li	a7,24
200044cc:	f2667ae3          	bgeu	a2,t1,20004400 <__umoddi3+0x30>
200044d0:	01000893          	li	a7,16
200044d4:	f2dff06f          	j	20004400 <__umoddi3+0x30>
200044d8:	00000713          	li	a4,0
200044dc:	00060c63          	beqz	a2,200044f4 <__umoddi3+0x124>
200044e0:	00010737          	lui	a4,0x10
200044e4:	08e67463          	bgeu	a2,a4,2000456c <__umoddi3+0x19c>
200044e8:	10063713          	sltiu	a4,a2,256
200044ec:	00173713          	seqz	a4,a4
200044f0:	00371713          	slli	a4,a4,0x3
200044f4:	00e658b3          	srl	a7,a2,a4
200044f8:	011686b3          	add	a3,a3,a7
200044fc:	0006c683          	lbu	a3,0(a3)
20004500:	00e686b3          	add	a3,a3,a4
20004504:	02000713          	li	a4,32
20004508:	40d708b3          	sub	a7,a4,a3
2000450c:	06e69a63          	bne	a3,a4,20004580 <__umoddi3+0x1b0>
20004510:	40c586b3          	sub	a3,a1,a2
20004514:	01085593          	srli	a1,a6,0x10
20004518:	02b6d633          	divu	a2,a3,a1
2000451c:	01081313          	slli	t1,a6,0x10
20004520:	01035313          	srli	t1,t1,0x10
20004524:	0107d713          	srli	a4,a5,0x10
20004528:	02b6f6b3          	remu	a3,a3,a1
2000452c:	02660633          	mul	a2,a2,t1
20004530:	01069693          	slli	a3,a3,0x10
20004534:	00d76733          	or	a4,a4,a3
20004538:	02c77063          	bgeu	a4,a2,20004558 <__umoddi3+0x188>
2000453c:	00e80733          	add	a4,a6,a4
20004540:	01073533          	sltu	a0,a4,a6
20004544:	00c736b3          	sltu	a3,a4,a2
20004548:	00153513          	seqz	a0,a0
2000454c:	00a6f6b3          	and	a3,a3,a0
20004550:	030686b3          	mul	a3,a3,a6
20004554:	00e68733          	add	a4,a3,a4
20004558:	40c70733          	sub	a4,a4,a2
2000455c:	02b756b3          	divu	a3,a4,a1
20004560:	02b77733          	remu	a4,a4,a1
20004564:	026686b3          	mul	a3,a3,t1
20004568:	f1dff06f          	j	20004484 <__umoddi3+0xb4>
2000456c:	010008b7          	lui	a7,0x1000
20004570:	01800713          	li	a4,24
20004574:	f91670e3          	bgeu	a2,a7,200044f4 <__umoddi3+0x124>
20004578:	01000713          	li	a4,16
2000457c:	f79ff06f          	j	200044f4 <__umoddi3+0x124>
20004580:	01161833          	sll	a6,a2,a7
20004584:	00d5d733          	srl	a4,a1,a3
20004588:	011517b3          	sll	a5,a0,a7
2000458c:	011595b3          	sll	a1,a1,a7
20004590:	00d556b3          	srl	a3,a0,a3
20004594:	01085513          	srli	a0,a6,0x10
20004598:	00b6e6b3          	or	a3,a3,a1
2000459c:	02a755b3          	divu	a1,a4,a0
200045a0:	01081e13          	slli	t3,a6,0x10
200045a4:	010e5e13          	srli	t3,t3,0x10
200045a8:	02a77733          	remu	a4,a4,a0
200045ac:	03c585b3          	mul	a1,a1,t3
200045b0:	01071613          	slli	a2,a4,0x10
200045b4:	0106d713          	srli	a4,a3,0x10
200045b8:	00c76733          	or	a4,a4,a2
200045bc:	02b77063          	bgeu	a4,a1,200045dc <__umoddi3+0x20c>
200045c0:	00e80733          	add	a4,a6,a4
200045c4:	01073333          	sltu	t1,a4,a6
200045c8:	00b73633          	sltu	a2,a4,a1
200045cc:	00133313          	seqz	t1,t1
200045d0:	00667633          	and	a2,a2,t1
200045d4:	03060633          	mul	a2,a2,a6
200045d8:	00e60733          	add	a4,a2,a4
200045dc:	40b70733          	sub	a4,a4,a1
200045e0:	02a75633          	divu	a2,a4,a0
200045e4:	01069693          	slli	a3,a3,0x10
200045e8:	0106d693          	srli	a3,a3,0x10
200045ec:	02a77733          	remu	a4,a4,a0
200045f0:	03c60633          	mul	a2,a2,t3
200045f4:	01071713          	slli	a4,a4,0x10
200045f8:	00e6e6b3          	or	a3,a3,a4
200045fc:	02c6f063          	bgeu	a3,a2,2000461c <__umoddi3+0x24c>
20004600:	00d806b3          	add	a3,a6,a3
20004604:	0106b5b3          	sltu	a1,a3,a6
20004608:	00c6b733          	sltu	a4,a3,a2
2000460c:	0015b593          	seqz	a1,a1
20004610:	00b77733          	and	a4,a4,a1
20004614:	03070733          	mul	a4,a4,a6
20004618:	00d706b3          	add	a3,a4,a3
2000461c:	40c686b3          	sub	a3,a3,a2
20004620:	ef5ff06f          	j	20004514 <__umoddi3+0x144>
20004624:	1ad5e663          	bltu	a1,a3,200047d0 <__umoddi3+0x400>
20004628:	00010837          	lui	a6,0x10
2000462c:	0506fc63          	bgeu	a3,a6,20004684 <__umoddi3+0x2b4>
20004630:	1006b893          	sltiu	a7,a3,256
20004634:	0018b893          	seqz	a7,a7
20004638:	00389893          	slli	a7,a7,0x3
2000463c:	20009837          	lui	a6,0x20009
20004640:	0116d333          	srl	t1,a3,a7
20004644:	cd880813          	addi	a6,a6,-808 # 20008cd8 <__clz_tab>
20004648:	00680833          	add	a6,a6,t1
2000464c:	00084803          	lbu	a6,0(a6)
20004650:	01180833          	add	a6,a6,a7
20004654:	02000893          	li	a7,32
20004658:	05181063          	bne	a6,a7,20004698 <__umoddi3+0x2c8>
2000465c:	00c57463          	bgeu	a0,a2,20004664 <__umoddi3+0x294>
20004660:	00b6fc63          	bgeu	a3,a1,20004678 <__umoddi3+0x2a8>
20004664:	40c50733          	sub	a4,a0,a2
20004668:	00070793          	mv	a5,a4
2000466c:	40d586b3          	sub	a3,a1,a3
20004670:	00e53733          	sltu	a4,a0,a4
20004674:	40e68733          	sub	a4,a3,a4
20004678:	00078513          	mv	a0,a5
2000467c:	00070593          	mv	a1,a4
20004680:	00008067          	ret
20004684:	01000837          	lui	a6,0x1000
20004688:	01800893          	li	a7,24
2000468c:	fb06f8e3          	bgeu	a3,a6,2000463c <__umoddi3+0x26c>
20004690:	01000893          	li	a7,16
20004694:	fa9ff06f          	j	2000463c <__umoddi3+0x26c>
20004698:	410888b3          	sub	a7,a7,a6
2000469c:	011696b3          	sll	a3,a3,a7
200046a0:	01065333          	srl	t1,a2,a6
200046a4:	00d36333          	or	t1,t1,a3
200046a8:	0105d733          	srl	a4,a1,a6
200046ac:	01035e93          	srli	t4,t1,0x10
200046b0:	03d756b3          	divu	a3,a4,t4
200046b4:	01031e13          	slli	t3,t1,0x10
200046b8:	010e5e13          	srli	t3,t3,0x10
200046bc:	011597b3          	sll	a5,a1,a7
200046c0:	010555b3          	srl	a1,a0,a6
200046c4:	00f5e5b3          	or	a1,a1,a5
200046c8:	0105d793          	srli	a5,a1,0x10
200046cc:	01161633          	sll	a2,a2,a7
200046d0:	01151533          	sll	a0,a0,a7
200046d4:	03d77733          	remu	a4,a4,t4
200046d8:	02de0f33          	mul	t5,t3,a3
200046dc:	01071713          	slli	a4,a4,0x10
200046e0:	00e7e7b3          	or	a5,a5,a4
200046e4:	01e7fa63          	bgeu	a5,t5,200046f8 <__umoddi3+0x328>
200046e8:	00f307b3          	add	a5,t1,a5
200046ec:	01e7f463          	bgeu	a5,t5,200046f4 <__umoddi3+0x324>
200046f0:	0e67f263          	bgeu	a5,t1,200047d4 <__umoddi3+0x404>
200046f4:	fff68693          	addi	a3,a3,-1
200046f8:	41e787b3          	sub	a5,a5,t5
200046fc:	03d7d733          	divu	a4,a5,t4
20004700:	01059593          	slli	a1,a1,0x10
20004704:	0105d593          	srli	a1,a1,0x10
20004708:	03d7f7b3          	remu	a5,a5,t4
2000470c:	02ee0e33          	mul	t3,t3,a4
20004710:	01079793          	slli	a5,a5,0x10
20004714:	00f5e5b3          	or	a1,a1,a5
20004718:	01c5fa63          	bgeu	a1,t3,2000472c <__umoddi3+0x35c>
2000471c:	00b305b3          	add	a1,t1,a1
20004720:	01c5f463          	bgeu	a1,t3,20004728 <__umoddi3+0x358>
20004724:	0a65fe63          	bgeu	a1,t1,200047e0 <__umoddi3+0x410>
20004728:	fff70713          	addi	a4,a4,-1 # ffff <_start-0x1fff0001>
2000472c:	01069693          	slli	a3,a3,0x10
20004730:	00e6e6b3          	or	a3,a3,a4
20004734:	41c585b3          	sub	a1,a1,t3
20004738:	01071713          	slli	a4,a4,0x10
2000473c:	01061e13          	slli	t3,a2,0x10
20004740:	01065793          	srli	a5,a2,0x10
20004744:	01075713          	srli	a4,a4,0x10
20004748:	0106d693          	srli	a3,a3,0x10
2000474c:	010e5e13          	srli	t3,t3,0x10
20004750:	03c70eb3          	mul	t4,a4,t3
20004754:	03c68e33          	mul	t3,a3,t3
20004758:	02f70733          	mul	a4,a4,a5
2000475c:	02f686b3          	mul	a3,a3,a5
20004760:	01c707b3          	add	a5,a4,t3
20004764:	010ed713          	srli	a4,t4,0x10
20004768:	00f70733          	add	a4,a4,a5
2000476c:	01c77663          	bgeu	a4,t3,20004778 <__umoddi3+0x3a8>
20004770:	000107b7          	lui	a5,0x10
20004774:	00f686b3          	add	a3,a3,a5
20004778:	01075793          	srli	a5,a4,0x10
2000477c:	010e9e93          	slli	t4,t4,0x10
20004780:	01071713          	slli	a4,a4,0x10
20004784:	010ede93          	srli	t4,t4,0x10
20004788:	00d787b3          	add	a5,a5,a3
2000478c:	01d70733          	add	a4,a4,t4
20004790:	00f5e663          	bltu	a1,a5,2000479c <__umoddi3+0x3cc>
20004794:	00e57e63          	bgeu	a0,a4,200047b0 <__umoddi3+0x3e0>
20004798:	00f59c63          	bne	a1,a5,200047b0 <__umoddi3+0x3e0>
2000479c:	40c70633          	sub	a2,a4,a2
200047a0:	00c736b3          	sltu	a3,a4,a2
200047a4:	006686b3          	add	a3,a3,t1
200047a8:	00060713          	mv	a4,a2
200047ac:	40d787b3          	sub	a5,a5,a3
200047b0:	40e50733          	sub	a4,a0,a4
200047b4:	00e53533          	sltu	a0,a0,a4
200047b8:	40f585b3          	sub	a1,a1,a5
200047bc:	40a585b3          	sub	a1,a1,a0
200047c0:	01059833          	sll	a6,a1,a6
200047c4:	01175733          	srl	a4,a4,a7
200047c8:	00e86533          	or	a0,a6,a4
200047cc:	0115d5b3          	srl	a1,a1,a7
200047d0:	00008067          	ret
200047d4:	ffe68693          	addi	a3,a3,-2
200047d8:	006787b3          	add	a5,a5,t1
200047dc:	f1dff06f          	j	200046f8 <__umoddi3+0x328>
200047e0:	ffe70713          	addi	a4,a4,-2
200047e4:	006585b3          	add	a1,a1,t1
200047e8:	f45ff06f          	j	2000472c <__umoddi3+0x35c>

200047ec <__adddf3>:
200047ec:	fe010113          	addi	sp,sp,-32
200047f0:	00112e23          	sw	ra,28(sp)
200047f4:	00812c23          	sw	s0,24(sp)
200047f8:	00912a23          	sw	s1,20(sp)
200047fc:	01212823          	sw	s2,16(sp)
20004800:	01312623          	sw	s3,12(sp)
20004804:	01412423          	sw	s4,8(sp)
20004808:	00202973          	frrm	s2
2000480c:	00100737          	lui	a4,0x100
20004810:	fff70713          	addi	a4,a4,-1 # fffff <_start-0x1ff00001>
20004814:	00b777b3          	and	a5,a4,a1
20004818:	0145d993          	srli	s3,a1,0x14
2000481c:	00d77733          	and	a4,a4,a3
20004820:	0146d893          	srli	a7,a3,0x14
20004824:	01f5d493          	srli	s1,a1,0x1f
20004828:	00379793          	slli	a5,a5,0x3
2000482c:	01d55593          	srli	a1,a0,0x1d
20004830:	00371713          	slli	a4,a4,0x3
20004834:	7ff9f993          	andi	s3,s3,2047
20004838:	00f5e7b3          	or	a5,a1,a5
2000483c:	7ff8f893          	andi	a7,a7,2047
20004840:	01d65593          	srli	a1,a2,0x1d
20004844:	01f6d693          	srli	a3,a3,0x1f
20004848:	00e5e5b3          	or	a1,a1,a4
2000484c:	00351513          	slli	a0,a0,0x3
20004850:	00361613          	slli	a2,a2,0x3
20004854:	41198733          	sub	a4,s3,a7
20004858:	7ff00813          	li	a6,2047
2000485c:	46d49863          	bne	s1,a3,20004ccc <__adddf3+0x4e0>
20004860:	14e05c63          	blez	a4,200049b8 <__adddf3+0x1cc>
20004864:	06089063          	bnez	a7,200048c4 <__adddf3+0xd8>
20004868:	00c5e6b3          	or	a3,a1,a2
2000486c:	00069a63          	bnez	a3,20004880 <__adddf3+0x94>
20004870:	00050613          	mv	a2,a0
20004874:	03070863          	beq	a4,a6,200048a4 <__adddf3+0xb8>
20004878:	00000993          	li	s3,0
2000487c:	28c0006f          	j	20004b08 <__adddf3+0x31c>
20004880:	fff70693          	addi	a3,a4,-1
20004884:	00069e63          	bnez	a3,200048a0 <__adddf3+0xb4>
20004888:	00c50633          	add	a2,a0,a2
2000488c:	00b785b3          	add	a1,a5,a1
20004890:	00a63533          	sltu	a0,a2,a0
20004894:	00a587b3          	add	a5,a1,a0
20004898:	00100713          	li	a4,1
2000489c:	0a40006f          	j	20004940 <__adddf3+0x154>
200048a0:	05071c63          	bne	a4,a6,200048f8 <__adddf3+0x10c>
200048a4:	00a7e633          	or	a2,a5,a0
200048a8:	040606e3          	beqz	a2,200050f4 <__adddf3+0x908>
200048ac:	0167d993          	srli	s3,a5,0x16
200048b0:	0019f993          	andi	s3,s3,1
200048b4:	0019c993          	xori	s3,s3,1
200048b8:	00499993          	slli	s3,s3,0x4
200048bc:	00050613          	mv	a2,a0
200048c0:	2480006f          	j	20004b08 <__adddf3+0x31c>
200048c4:	03099463          	bne	s3,a6,200048ec <__adddf3+0x100>
200048c8:	00a7e633          	or	a2,a5,a0
200048cc:	180604e3          	beqz	a2,20005254 <__adddf3+0xa68>
200048d0:	0167d693          	srli	a3,a5,0x16
200048d4:	0016f693          	andi	a3,a3,1
200048d8:	0016c693          	xori	a3,a3,1
200048dc:	00098713          	mv	a4,s3
200048e0:	00050613          	mv	a2,a0
200048e4:	00469993          	slli	s3,a3,0x4
200048e8:	2200006f          	j	20004b08 <__adddf3+0x31c>
200048ec:	008006b7          	lui	a3,0x800
200048f0:	00d5e5b3          	or	a1,a1,a3
200048f4:	00070693          	mv	a3,a4
200048f8:	03800713          	li	a4,56
200048fc:	0ad74863          	blt	a4,a3,200049ac <__adddf3+0x1c0>
20004900:	01f00713          	li	a4,31
20004904:	02000893          	li	a7,32
20004908:	06d74a63          	blt	a4,a3,2000497c <__adddf3+0x190>
2000490c:	40d888b3          	sub	a7,a7,a3
20004910:	01159733          	sll	a4,a1,a7
20004914:	00d65833          	srl	a6,a2,a3
20004918:	011618b3          	sll	a7,a2,a7
2000491c:	01076733          	or	a4,a4,a6
20004920:	011038b3          	snez	a7,a7
20004924:	01176733          	or	a4,a4,a7
20004928:	00d5d6b3          	srl	a3,a1,a3
2000492c:	00a70633          	add	a2,a4,a0
20004930:	00e63733          	sltu	a4,a2,a4
20004934:	00f686b3          	add	a3,a3,a5
20004938:	00e687b3          	add	a5,a3,a4
2000493c:	00098713          	mv	a4,s3
20004940:	00879693          	slli	a3,a5,0x8
20004944:	2a06dc63          	bgez	a3,20004bfc <__adddf3+0x410>
20004948:	00170713          	addi	a4,a4,1
2000494c:	7ff00693          	li	a3,2047
20004950:	32d70c63          	beq	a4,a3,20004c88 <__adddf3+0x49c>
20004954:	ff8006b7          	lui	a3,0xff800
20004958:	fff68693          	addi	a3,a3,-1 # ff7fffff <__stack_top+0xdf7f60fb>
2000495c:	00d7f7b3          	and	a5,a5,a3
20004960:	00165693          	srli	a3,a2,0x1
20004964:	00167613          	andi	a2,a2,1
20004968:	00c6e6b3          	or	a3,a3,a2
2000496c:	01f79613          	slli	a2,a5,0x1f
20004970:	00d66633          	or	a2,a2,a3
20004974:	0017d793          	srli	a5,a5,0x1
20004978:	2840006f          	j	20004bfc <__adddf3+0x410>
2000497c:	fe068713          	addi	a4,a3,-32
20004980:	00e5d733          	srl	a4,a1,a4
20004984:	00000813          	li	a6,0
20004988:	01168863          	beq	a3,a7,20004998 <__adddf3+0x1ac>
2000498c:	04000813          	li	a6,64
20004990:	40d80833          	sub	a6,a6,a3
20004994:	01059833          	sll	a6,a1,a6
20004998:	00c86833          	or	a6,a6,a2
2000499c:	01003833          	snez	a6,a6
200049a0:	01076733          	or	a4,a4,a6
200049a4:	00000693          	li	a3,0
200049a8:	f85ff06f          	j	2000492c <__adddf3+0x140>
200049ac:	00c5e733          	or	a4,a1,a2
200049b0:	00e03733          	snez	a4,a4
200049b4:	ff1ff06f          	j	200049a4 <__adddf3+0x1b8>
200049b8:	10070463          	beqz	a4,20004ac0 <__adddf3+0x2d4>
200049bc:	41388733          	sub	a4,a7,s3
200049c0:	04099463          	bnez	s3,20004a08 <__adddf3+0x21c>
200049c4:	00a7e6b3          	or	a3,a5,a0
200049c8:	02069663          	bnez	a3,200049f4 <__adddf3+0x208>
200049cc:	00058793          	mv	a5,a1
200049d0:	13071c63          	bne	a4,a6,20004b08 <__adddf3+0x31c>
200049d4:	00c5e7b3          	or	a5,a1,a2
200049d8:	52078863          	beqz	a5,20004f08 <__adddf3+0x71c>
200049dc:	0165d993          	srli	s3,a1,0x16
200049e0:	0019f993          	andi	s3,s3,1
200049e4:	0019c993          	xori	s3,s3,1
200049e8:	00499993          	slli	s3,s3,0x4
200049ec:	00058793          	mv	a5,a1
200049f0:	1180006f          	j	20004b08 <__adddf3+0x31c>
200049f4:	fff70693          	addi	a3,a4,-1
200049f8:	e80688e3          	beqz	a3,20004888 <__adddf3+0x9c>
200049fc:	03071e63          	bne	a4,a6,20004a38 <__adddf3+0x24c>
20004a00:	00c5e7b3          	or	a5,a1,a2
20004a04:	fd5ff06f          	j	200049d8 <__adddf3+0x1ec>
20004a08:	03089263          	bne	a7,a6,20004a2c <__adddf3+0x240>
20004a0c:	00c5e7b3          	or	a5,a1,a2
20004a10:	04078ee3          	beqz	a5,2000526c <__adddf3+0xa80>
20004a14:	0165d993          	srli	s3,a1,0x16
20004a18:	0019f993          	andi	s3,s3,1
20004a1c:	0019c993          	xori	s3,s3,1
20004a20:	00499993          	slli	s3,s3,0x4
20004a24:	00058793          	mv	a5,a1
20004a28:	1a80006f          	j	20004bd0 <__adddf3+0x3e4>
20004a2c:	008006b7          	lui	a3,0x800
20004a30:	00d7e7b3          	or	a5,a5,a3
20004a34:	00070693          	mv	a3,a4
20004a38:	03800713          	li	a4,56
20004a3c:	06d74c63          	blt	a4,a3,20004ab4 <__adddf3+0x2c8>
20004a40:	01f00713          	li	a4,31
20004a44:	02000313          	li	t1,32
20004a48:	02d74e63          	blt	a4,a3,20004a84 <__adddf3+0x298>
20004a4c:	40d30333          	sub	t1,t1,a3
20004a50:	00679733          	sll	a4,a5,t1
20004a54:	00d55833          	srl	a6,a0,a3
20004a58:	00651333          	sll	t1,a0,t1
20004a5c:	01076733          	or	a4,a4,a6
20004a60:	00603333          	snez	t1,t1
20004a64:	00676733          	or	a4,a4,t1
20004a68:	00d7d6b3          	srl	a3,a5,a3
20004a6c:	00c70633          	add	a2,a4,a2
20004a70:	00e63733          	sltu	a4,a2,a4
20004a74:	00b686b3          	add	a3,a3,a1
20004a78:	00e687b3          	add	a5,a3,a4
20004a7c:	00088713          	mv	a4,a7
20004a80:	ec1ff06f          	j	20004940 <__adddf3+0x154>
20004a84:	fe068713          	addi	a4,a3,-32 # 7fffe0 <_start-0x1f800020>
20004a88:	00e7d733          	srl	a4,a5,a4
20004a8c:	00000813          	li	a6,0
20004a90:	00668863          	beq	a3,t1,20004aa0 <__adddf3+0x2b4>
20004a94:	04000813          	li	a6,64
20004a98:	40d80833          	sub	a6,a6,a3
20004a9c:	01079833          	sll	a6,a5,a6
20004aa0:	00a86833          	or	a6,a6,a0
20004aa4:	01003833          	snez	a6,a6
20004aa8:	01076733          	or	a4,a4,a6
20004aac:	00000693          	li	a3,0
20004ab0:	fbdff06f          	j	20004a6c <__adddf3+0x280>
20004ab4:	00a7e733          	or	a4,a5,a0
20004ab8:	00e03733          	snez	a4,a4
20004abc:	ff1ff06f          	j	20004aac <__adddf3+0x2c0>
20004ac0:	00198713          	addi	a4,s3,1
20004ac4:	7fe77693          	andi	a3,a4,2046
20004ac8:	10069863          	bnez	a3,20004bd8 <__adddf3+0x3ec>
20004acc:	00a7e733          	or	a4,a5,a0
20004ad0:	0a099863          	bnez	s3,20004b80 <__adddf3+0x394>
20004ad4:	68070863          	beqz	a4,20005164 <__adddf3+0x978>
20004ad8:	00c5e733          	or	a4,a1,a2
20004adc:	68070c63          	beqz	a4,20005174 <__adddf3+0x988>
20004ae0:	00c50633          	add	a2,a0,a2
20004ae4:	00b785b3          	add	a1,a5,a1
20004ae8:	00a63533          	sltu	a0,a2,a0
20004aec:	00a587b3          	add	a5,a1,a0
20004af0:	00879713          	slli	a4,a5,0x8
20004af4:	56075a63          	bgez	a4,20005068 <__adddf3+0x87c>
20004af8:	ff800737          	lui	a4,0xff800
20004afc:	fff70713          	addi	a4,a4,-1 # ff7fffff <__stack_top+0xdf7f60fb>
20004b00:	00e7f7b3          	and	a5,a5,a4
20004b04:	00100713          	li	a4,1
20004b08:	01d79693          	slli	a3,a5,0x1d
20004b0c:	00365613          	srli	a2,a2,0x3
20004b10:	00c6e633          	or	a2,a3,a2
20004b14:	7ff00693          	li	a3,2047
20004b18:	0037d793          	srli	a5,a5,0x3
20004b1c:	00d71e63          	bne	a4,a3,20004b38 <__adddf3+0x34c>
20004b20:	00f66633          	or	a2,a2,a5
20004b24:	00000793          	li	a5,0
20004b28:	00060863          	beqz	a2,20004b38 <__adddf3+0x34c>
20004b2c:	000807b7          	lui	a5,0x80
20004b30:	00000613          	li	a2,0
20004b34:	00000493          	li	s1,0
20004b38:	7ff77713          	andi	a4,a4,2047
20004b3c:	00c79793          	slli	a5,a5,0xc
20004b40:	01471713          	slli	a4,a4,0x14
20004b44:	00c7d793          	srli	a5,a5,0xc
20004b48:	00f76733          	or	a4,a4,a5
20004b4c:	01f49493          	slli	s1,s1,0x1f
20004b50:	00060513          	mv	a0,a2
20004b54:	009765b3          	or	a1,a4,s1
20004b58:	00098463          	beqz	s3,20004b60 <__adddf3+0x374>
20004b5c:	0019a073          	csrs	fflags,s3
20004b60:	01c12083          	lw	ra,28(sp)
20004b64:	01812403          	lw	s0,24(sp)
20004b68:	01412483          	lw	s1,20(sp)
20004b6c:	01012903          	lw	s2,16(sp)
20004b70:	00c12983          	lw	s3,12(sp)
20004b74:	00812a03          	lw	s4,8(sp)
20004b78:	02010113          	addi	sp,sp,32
20004b7c:	00008067          	ret
20004b80:	03099a63          	bne	s3,a6,20004bb4 <__adddf3+0x3c8>
20004b84:	02070863          	beqz	a4,20004bb4 <__adddf3+0x3c8>
20004b88:	0167d993          	srli	s3,a5,0x16
20004b8c:	0019f993          	andi	s3,s3,1
20004b90:	0019c993          	xori	s3,s3,1
20004b94:	00499993          	slli	s3,s3,0x4
20004b98:	03089663          	bne	a7,a6,20004bc4 <__adddf3+0x3d8>
20004b9c:	00c5e6b3          	or	a3,a1,a2
20004ba0:	02068063          	beqz	a3,20004bc0 <__adddf3+0x3d4>
20004ba4:	00959693          	slli	a3,a1,0x9
20004ba8:	0006cc63          	bltz	a3,20004bc0 <__adddf3+0x3d4>
20004bac:	01000993          	li	s3,16
20004bb0:	0100006f          	j	20004bc0 <__adddf3+0x3d4>
20004bb4:	7ff00693          	li	a3,2047
20004bb8:	00000993          	li	s3,0
20004bbc:	fed880e3          	beq	a7,a3,20004b9c <__adddf3+0x3b0>
20004bc0:	e60702e3          	beqz	a4,20004a24 <__adddf3+0x238>
20004bc4:	00c5e5b3          	or	a1,a1,a2
20004bc8:	40059063          	bnez	a1,20004fc8 <__adddf3+0x7dc>
20004bcc:	00050613          	mv	a2,a0
20004bd0:	7ff00713          	li	a4,2047
20004bd4:	f35ff06f          	j	20004b08 <__adddf3+0x31c>
20004bd8:	03070863          	beq	a4,a6,20004c08 <__adddf3+0x41c>
20004bdc:	00c50633          	add	a2,a0,a2
20004be0:	00b785b3          	add	a1,a5,a1
20004be4:	00a63533          	sltu	a0,a2,a0
20004be8:	00a585b3          	add	a1,a1,a0
20004bec:	01f59793          	slli	a5,a1,0x1f
20004bf0:	00165613          	srli	a2,a2,0x1
20004bf4:	00c7e633          	or	a2,a5,a2
20004bf8:	0015d793          	srli	a5,a1,0x1
20004bfc:	00000693          	li	a3,0
20004c00:	00000993          	li	s3,0
20004c04:	4c80006f          	j	200050cc <__adddf3+0x8e0>
20004c08:	62090e63          	beqz	s2,20005244 <__adddf3+0xa58>
20004c0c:	00300793          	li	a5,3
20004c10:	08f91a63          	bne	s2,a5,20004ca4 <__adddf3+0x4b8>
20004c14:	62048863          	beqz	s1,20005244 <__adddf3+0xa58>
20004c18:	00000693          	li	a3,0
20004c1c:	fff00793          	li	a5,-1
20004c20:	7fe00713          	li	a4,2046
20004c24:	00078613          	mv	a2,a5
20004c28:	00500993          	li	s3,5
20004c2c:	00300593          	li	a1,3
20004c30:	58b90863          	beq	s2,a1,200051c0 <__adddf3+0x9d4>
20004c34:	02091063          	bnez	s2,20004c54 <__adddf3+0x468>
20004c38:	00f67593          	andi	a1,a2,15
20004c3c:	00400513          	li	a0,4
20004c40:	00a58a63          	beq	a1,a0,20004c54 <__adddf3+0x468>
20004c44:	00a605b3          	add	a1,a2,a0
20004c48:	00c5b533          	sltu	a0,a1,a2
20004c4c:	00a787b3          	add	a5,a5,a0
20004c50:	00058613          	mv	a2,a1
20004c54:	00068863          	beqz	a3,20004c64 <__adddf3+0x478>
20004c58:	0019f693          	andi	a3,s3,1
20004c5c:	00169693          	slli	a3,a3,0x1
20004c60:	00d9e9b3          	or	s3,s3,a3
20004c64:	00879693          	slli	a3,a5,0x8
20004c68:	ea06d0e3          	bgez	a3,20004b08 <__adddf3+0x31c>
20004c6c:	00170713          	addi	a4,a4,1
20004c70:	7ff00693          	li	a3,2047
20004c74:	58d70a63          	beq	a4,a3,20005208 <__adddf3+0xa1c>
20004c78:	ff8006b7          	lui	a3,0xff800
20004c7c:	fff68693          	addi	a3,a3,-1 # ff7fffff <__stack_top+0xdf7f60fb>
20004c80:	00d7f7b3          	and	a5,a5,a3
20004c84:	e85ff06f          	j	20004b08 <__adddf3+0x31c>
20004c88:	5a090e63          	beqz	s2,20005244 <__adddf3+0xa58>
20004c8c:	00300793          	li	a5,3
20004c90:	00f91a63          	bne	s2,a5,20004ca4 <__adddf3+0x4b8>
20004c94:	5a048863          	beqz	s1,20005244 <__adddf3+0xa58>
20004c98:	fff00793          	li	a5,-1
20004c9c:	00000693          	li	a3,0
20004ca0:	f81ff06f          	j	20004c20 <__adddf3+0x434>
20004ca4:	00200793          	li	a5,2
20004ca8:	54f91663          	bne	s2,a5,200051f4 <__adddf3+0xa08>
20004cac:	58049c63          	bnez	s1,20005244 <__adddf3+0xa58>
20004cb0:	fff00793          	li	a5,-1
20004cb4:	7fe00713          	li	a4,2046
20004cb8:	00078613          	mv	a2,a5
20004cbc:	00500993          	li	s3,5
20004cc0:	00048693          	mv	a3,s1
20004cc4:	00000493          	li	s1,0
20004cc8:	f8dff06f          	j	20004c54 <__adddf3+0x468>
20004ccc:	0ee05663          	blez	a4,20004db8 <__adddf3+0x5cc>
20004cd0:	08089c63          	bnez	a7,20004d68 <__adddf3+0x57c>
20004cd4:	00c5e6b3          	or	a3,a1,a2
20004cd8:	b8068ce3          	beqz	a3,20004870 <__adddf3+0x84>
20004cdc:	fff70693          	addi	a3,a4,-1
20004ce0:	00069e63          	bnez	a3,20004cfc <__adddf3+0x510>
20004ce4:	40c50633          	sub	a2,a0,a2
20004ce8:	40b785b3          	sub	a1,a5,a1
20004cec:	00c53533          	sltu	a0,a0,a2
20004cf0:	40a587b3          	sub	a5,a1,a0
20004cf4:	00100713          	li	a4,1
20004cf8:	0500006f          	j	20004d48 <__adddf3+0x55c>
20004cfc:	bb0704e3          	beq	a4,a6,200048a4 <__adddf3+0xb8>
20004d00:	03800713          	li	a4,56
20004d04:	0ad74463          	blt	a4,a3,20004dac <__adddf3+0x5c0>
20004d08:	01f00713          	li	a4,31
20004d0c:	02000893          	li	a7,32
20004d10:	06d74663          	blt	a4,a3,20004d7c <__adddf3+0x590>
20004d14:	40d888b3          	sub	a7,a7,a3
20004d18:	01159733          	sll	a4,a1,a7
20004d1c:	00d65833          	srl	a6,a2,a3
20004d20:	011618b3          	sll	a7,a2,a7
20004d24:	01076733          	or	a4,a4,a6
20004d28:	011038b3          	snez	a7,a7
20004d2c:	01176733          	or	a4,a4,a7
20004d30:	00d5d6b3          	srl	a3,a1,a3
20004d34:	40e50633          	sub	a2,a0,a4
20004d38:	40d786b3          	sub	a3,a5,a3
20004d3c:	00c53533          	sltu	a0,a0,a2
20004d40:	40a687b3          	sub	a5,a3,a0
20004d44:	00098713          	mv	a4,s3
20004d48:	00879693          	slli	a3,a5,0x8
20004d4c:	ea06d8e3          	bgez	a3,20004bfc <__adddf3+0x410>
20004d50:	00800437          	lui	s0,0x800
20004d54:	fff40413          	addi	s0,s0,-1 # 7fffff <_start-0x1f800001>
20004d58:	0087f433          	and	s0,a5,s0
20004d5c:	00060a13          	mv	s4,a2
20004d60:	00070993          	mv	s3,a4
20004d64:	2a40006f          	j	20005008 <__adddf3+0x81c>
20004d68:	b70980e3          	beq	s3,a6,200048c8 <__adddf3+0xdc>
20004d6c:	008006b7          	lui	a3,0x800
20004d70:	00d5e5b3          	or	a1,a1,a3
20004d74:	00070693          	mv	a3,a4
20004d78:	f89ff06f          	j	20004d00 <__adddf3+0x514>
20004d7c:	fe068713          	addi	a4,a3,-32 # 7fffe0 <_start-0x1f800020>
20004d80:	00e5d733          	srl	a4,a1,a4
20004d84:	00000813          	li	a6,0
20004d88:	01168863          	beq	a3,a7,20004d98 <__adddf3+0x5ac>
20004d8c:	04000813          	li	a6,64
20004d90:	40d80833          	sub	a6,a6,a3
20004d94:	01059833          	sll	a6,a1,a6
20004d98:	00c86833          	or	a6,a6,a2
20004d9c:	01003833          	snez	a6,a6
20004da0:	01076733          	or	a4,a4,a6
20004da4:	00000693          	li	a3,0
20004da8:	f8dff06f          	j	20004d34 <__adddf3+0x548>
20004dac:	00c5e733          	or	a4,a1,a2
20004db0:	00e03733          	snez	a4,a4
20004db4:	ff1ff06f          	j	20004da4 <__adddf3+0x5b8>
20004db8:	12070263          	beqz	a4,20004edc <__adddf3+0x6f0>
20004dbc:	41388733          	sub	a4,a7,s3
20004dc0:	0a099663          	bnez	s3,20004e6c <__adddf3+0x680>
20004dc4:	00a7e333          	or	t1,a5,a0
20004dc8:	02031463          	bnez	t1,20004df0 <__adddf3+0x604>
20004dcc:	01071e63          	bne	a4,a6,20004de8 <__adddf3+0x5fc>
20004dd0:	00c5e7b3          	or	a5,a1,a2
20004dd4:	48078663          	beqz	a5,20005260 <__adddf3+0xa74>
20004dd8:	0165d993          	srli	s3,a1,0x16
20004ddc:	0019f993          	andi	s3,s3,1
20004de0:	0019c993          	xori	s3,s3,1
20004de4:	00499993          	slli	s3,s3,0x4
20004de8:	00068493          	mv	s1,a3
20004dec:	c01ff06f          	j	200049ec <__adddf3+0x200>
20004df0:	fff70313          	addi	t1,a4,-1
20004df4:	02031063          	bnez	t1,20004e14 <__adddf3+0x628>
20004df8:	40a60533          	sub	a0,a2,a0
20004dfc:	00a63733          	sltu	a4,a2,a0
20004e00:	40f585b3          	sub	a1,a1,a5
20004e04:	00050613          	mv	a2,a0
20004e08:	40e587b3          	sub	a5,a1,a4
20004e0c:	00068493          	mv	s1,a3
20004e10:	ee5ff06f          	j	20004cf4 <__adddf3+0x508>
20004e14:	fb070ee3          	beq	a4,a6,20004dd0 <__adddf3+0x5e4>
20004e18:	03800713          	li	a4,56
20004e1c:	0a674a63          	blt	a4,t1,20004ed0 <__adddf3+0x6e4>
20004e20:	01f00713          	li	a4,31
20004e24:	02000e13          	li	t3,32
20004e28:	06674c63          	blt	a4,t1,20004ea0 <__adddf3+0x6b4>
20004e2c:	406e0e33          	sub	t3,t3,t1
20004e30:	01c79733          	sll	a4,a5,t3
20004e34:	00655833          	srl	a6,a0,t1
20004e38:	01c51e33          	sll	t3,a0,t3
20004e3c:	01076733          	or	a4,a4,a6
20004e40:	01c03e33          	snez	t3,t3
20004e44:	01c76733          	or	a4,a4,t3
20004e48:	0067d333          	srl	t1,a5,t1
20004e4c:	40e60733          	sub	a4,a2,a4
20004e50:	00e637b3          	sltu	a5,a2,a4
20004e54:	40658333          	sub	t1,a1,t1
20004e58:	00070613          	mv	a2,a4
20004e5c:	40f307b3          	sub	a5,t1,a5
20004e60:	00088713          	mv	a4,a7
20004e64:	00068493          	mv	s1,a3
20004e68:	ee1ff06f          	j	20004d48 <__adddf3+0x55c>
20004e6c:	03089263          	bne	a7,a6,20004e90 <__adddf3+0x6a4>
20004e70:	00c5e7b3          	or	a5,a1,a2
20004e74:	3e078a63          	beqz	a5,20005268 <__adddf3+0xa7c>
20004e78:	0165d993          	srli	s3,a1,0x16
20004e7c:	0019f993          	andi	s3,s3,1
20004e80:	0019c993          	xori	s3,s3,1
20004e84:	00499993          	slli	s3,s3,0x4
20004e88:	00068493          	mv	s1,a3
20004e8c:	b99ff06f          	j	20004a24 <__adddf3+0x238>
20004e90:	00800837          	lui	a6,0x800
20004e94:	0107e7b3          	or	a5,a5,a6
20004e98:	00070313          	mv	t1,a4
20004e9c:	f7dff06f          	j	20004e18 <__adddf3+0x62c>
20004ea0:	fe030713          	addi	a4,t1,-32 # ffffe0 <_start-0x1f000020>
20004ea4:	00e7d733          	srl	a4,a5,a4
20004ea8:	00000813          	li	a6,0
20004eac:	01c30863          	beq	t1,t3,20004ebc <__adddf3+0x6d0>
20004eb0:	04000813          	li	a6,64
20004eb4:	40680833          	sub	a6,a6,t1
20004eb8:	01079833          	sll	a6,a5,a6
20004ebc:	00a86833          	or	a6,a6,a0
20004ec0:	01003833          	snez	a6,a6
20004ec4:	01076733          	or	a4,a4,a6
20004ec8:	00000313          	li	t1,0
20004ecc:	f81ff06f          	j	20004e4c <__adddf3+0x660>
20004ed0:	00a7e733          	or	a4,a5,a0
20004ed4:	00e03733          	snez	a4,a4
20004ed8:	ff1ff06f          	j	20004ec8 <__adddf3+0x6dc>
20004edc:	00198313          	addi	t1,s3,1
20004ee0:	7fe37313          	andi	t1,t1,2046
20004ee4:	0e031a63          	bnez	t1,20004fd8 <__adddf3+0x7ec>
20004ee8:	00a7ee33          	or	t3,a5,a0
20004eec:	00c5e333          	or	t1,a1,a2
20004ef0:	06099863          	bnez	s3,20004f60 <__adddf3+0x774>
20004ef4:	000e1e63          	bnez	t3,20004f10 <__adddf3+0x724>
20004ef8:	26031a63          	bnez	t1,2000516c <__adddf3+0x980>
20004efc:	ffe90793          	addi	a5,s2,-2
20004f00:	0017b493          	seqz	s1,a5
20004f04:	00000793          	li	a5,0
20004f08:	00000613          	li	a2,0
20004f0c:	bfdff06f          	j	20004b08 <__adddf3+0x31c>
20004f10:	26030263          	beqz	t1,20005174 <__adddf3+0x988>
20004f14:	40c508b3          	sub	a7,a0,a2
20004f18:	01153333          	sltu	t1,a0,a7
20004f1c:	40b78833          	sub	a6,a5,a1
20004f20:	40680833          	sub	a6,a6,t1
20004f24:	00881313          	slli	t1,a6,0x8
20004f28:	02035063          	bgez	t1,20004f48 <__adddf3+0x75c>
20004f2c:	40a60533          	sub	a0,a2,a0
20004f30:	00a63733          	sltu	a4,a2,a0
20004f34:	40f585b3          	sub	a1,a1,a5
20004f38:	00050613          	mv	a2,a0
20004f3c:	40e587b3          	sub	a5,a1,a4
20004f40:	00068493          	mv	s1,a3
20004f44:	1240006f          	j	20005068 <__adddf3+0x87c>
20004f48:	0108e633          	or	a2,a7,a6
20004f4c:	22061863          	bnez	a2,2000517c <__adddf3+0x990>
20004f50:	ffe90793          	addi	a5,s2,-2
20004f54:	0017b493          	seqz	s1,a5
20004f58:	00000793          	li	a5,0
20004f5c:	badff06f          	j	20004b08 <__adddf3+0x31c>
20004f60:	03099a63          	bne	s3,a6,20004f94 <__adddf3+0x7a8>
20004f64:	320e0063          	beqz	t3,20005284 <__adddf3+0xa98>
20004f68:	0167d993          	srli	s3,a5,0x16
20004f6c:	0019f993          	andi	s3,s3,1
20004f70:	0019c993          	xori	s3,s3,1
20004f74:	00499993          	slli	s3,s3,0x4
20004f78:	05089663          	bne	a7,a6,20004fc4 <__adddf3+0x7d8>
20004f7c:	02030063          	beqz	t1,20004f9c <__adddf3+0x7b0>
20004f80:	00959713          	slli	a4,a1,0x9
20004f84:	00074c63          	bltz	a4,20004f9c <__adddf3+0x7b0>
20004f88:	01000993          	li	s3,16
20004f8c:	ee0e0ee3          	beqz	t3,20004e88 <__adddf3+0x69c>
20004f90:	0380006f          	j	20004fc8 <__adddf3+0x7dc>
20004f94:	00000993          	li	s3,0
20004f98:	ff0882e3          	beq	a7,a6,20004f7c <__adddf3+0x790>
20004f9c:	020e1463          	bnez	t3,20004fc4 <__adddf3+0x7d8>
20004fa0:	ee0314e3          	bnez	t1,20004e88 <__adddf3+0x69c>
20004fa4:	00000493          	li	s1,0
20004fa8:	00000613          	li	a2,0
20004fac:	004007b7          	lui	a5,0x400
20004fb0:	7ff00713          	li	a4,2047
20004fb4:	01000993          	li	s3,16
20004fb8:	b51ff06f          	j	20004b08 <__adddf3+0x31c>
20004fbc:	00000993          	li	s3,0
20004fc0:	fbdff06f          	j	20004f7c <__adddf3+0x790>
20004fc4:	c00304e3          	beqz	t1,20004bcc <__adddf3+0x3e0>
20004fc8:	00000493          	li	s1,0
20004fcc:	004007b7          	lui	a5,0x400
20004fd0:	00000613          	li	a2,0
20004fd4:	bfdff06f          	j	20004bd0 <__adddf3+0x3e4>
20004fd8:	40c50833          	sub	a6,a0,a2
20004fdc:	010538b3          	sltu	a7,a0,a6
20004fe0:	40b78433          	sub	s0,a5,a1
20004fe4:	41140433          	sub	s0,s0,a7
20004fe8:	00841893          	slli	a7,s0,0x8
20004fec:	00080a13          	mv	s4,a6
20004ff0:	0e08da63          	bgez	a7,200050e4 <__adddf3+0x8f8>
20004ff4:	40a60a33          	sub	s4,a2,a0
20004ff8:	40f58433          	sub	s0,a1,a5
20004ffc:	01463633          	sltu	a2,a2,s4
20005000:	40c40433          	sub	s0,s0,a2
20005004:	00068493          	mv	s1,a3
20005008:	0e040a63          	beqz	s0,200050fc <__adddf3+0x910>
2000500c:	00040513          	mv	a0,s0
20005010:	055010ef          	jal	20006864 <__clzsi2>
20005014:	ff850713          	addi	a4,a0,-8 # 40012ff8 <__stack_top+0x200090f4>
20005018:	02000793          	li	a5,32
2000501c:	40e787b3          	sub	a5,a5,a4
20005020:	00e41433          	sll	s0,s0,a4
20005024:	00fa57b3          	srl	a5,s4,a5
20005028:	0087e7b3          	or	a5,a5,s0
2000502c:	00ea1433          	sll	s0,s4,a4
20005030:	11374e63          	blt	a4,s3,2000514c <__adddf3+0x960>
20005034:	41370733          	sub	a4,a4,s3
20005038:	00170593          	addi	a1,a4,1
2000503c:	01f00613          	li	a2,31
20005040:	02000693          	li	a3,32
20005044:	0cb64c63          	blt	a2,a1,2000511c <__adddf3+0x930>
20005048:	40b686b3          	sub	a3,a3,a1
2000504c:	00d79633          	sll	a2,a5,a3
20005050:	00b45733          	srl	a4,s0,a1
20005054:	00d416b3          	sll	a3,s0,a3
20005058:	00e66633          	or	a2,a2,a4
2000505c:	00d036b3          	snez	a3,a3
20005060:	00d66633          	or	a2,a2,a3
20005064:	00b7d7b3          	srl	a5,a5,a1
20005068:	00c7e733          	or	a4,a5,a2
2000506c:	20070663          	beqz	a4,20005278 <__adddf3+0xa8c>
20005070:	01f65713          	srli	a4,a2,0x1f
20005074:	00179693          	slli	a3,a5,0x1
20005078:	00e686b3          	add	a3,a3,a4
2000507c:	00161713          	slli	a4,a2,0x1
20005080:	00777593          	andi	a1,a4,7
20005084:	00000993          	li	s3,0
20005088:	02058a63          	beqz	a1,200050bc <__adddf3+0x8d0>
2000508c:	00200593          	li	a1,2
20005090:	10b90a63          	beq	s2,a1,200051a4 <__adddf3+0x9b8>
20005094:	00300593          	li	a1,3
20005098:	0eb90863          	beq	s2,a1,20005188 <__adddf3+0x99c>
2000509c:	00100993          	li	s3,1
200050a0:	00091e63          	bnez	s2,200050bc <__adddf3+0x8d0>
200050a4:	00f77593          	andi	a1,a4,15
200050a8:	00400513          	li	a0,4
200050ac:	00a58863          	beq	a1,a0,200050bc <__adddf3+0x8d0>
200050b0:	ffc73713          	sltiu	a4,a4,-4
200050b4:	00173713          	seqz	a4,a4
200050b8:	00e686b3          	add	a3,a3,a4
200050bc:	0186d693          	srli	a3,a3,0x18
200050c0:	0016f693          	andi	a3,a3,1
200050c4:	0016c693          	xori	a3,a3,1
200050c8:	00000713          	li	a4,0
200050cc:	00767593          	andi	a1,a2,7
200050d0:	b80582e3          	beqz	a1,20004c54 <__adddf3+0x468>
200050d4:	00200593          	li	a1,2
200050d8:	0eb90a63          	beq	s2,a1,200051cc <__adddf3+0x9e0>
200050dc:	00100993          	li	s3,1
200050e0:	b4dff06f          	j	20004c2c <__adddf3+0x440>
200050e4:	00886633          	or	a2,a6,s0
200050e8:	f20610e3          	bnez	a2,20005008 <__adddf3+0x81c>
200050ec:	ffe90793          	addi	a5,s2,-2
200050f0:	0017b493          	seqz	s1,a5
200050f4:	00000793          	li	a5,0
200050f8:	f80ff06f          	j	20004878 <__adddf3+0x8c>
200050fc:	000a0513          	mv	a0,s4
20005100:	764010ef          	jal	20006864 <__clzsi2>
20005104:	01850713          	addi	a4,a0,24
20005108:	01f00793          	li	a5,31
2000510c:	f0e7d6e3          	bge	a5,a4,20005018 <__adddf3+0x82c>
20005110:	ff850793          	addi	a5,a0,-8
20005114:	00fa17b3          	sll	a5,s4,a5
20005118:	f19ff06f          	j	20005030 <__adddf3+0x844>
2000511c:	fe170713          	addi	a4,a4,-31
20005120:	00e7d733          	srl	a4,a5,a4
20005124:	00000613          	li	a2,0
20005128:	00d58863          	beq	a1,a3,20005138 <__adddf3+0x94c>
2000512c:	04000613          	li	a2,64
20005130:	40b60633          	sub	a2,a2,a1
20005134:	00c79633          	sll	a2,a5,a2
20005138:	00c46633          	or	a2,s0,a2
2000513c:	00c03633          	snez	a2,a2
20005140:	00c76633          	or	a2,a4,a2
20005144:	00000793          	li	a5,0
20005148:	f21ff06f          	j	20005068 <__adddf3+0x87c>
2000514c:	ff8006b7          	lui	a3,0xff800
20005150:	fff68693          	addi	a3,a3,-1 # ff7fffff <__stack_top+0xdf7f60fb>
20005154:	40e98733          	sub	a4,s3,a4
20005158:	00d7f7b3          	and	a5,a5,a3
2000515c:	00040613          	mv	a2,s0
20005160:	a9dff06f          	j	20004bfc <__adddf3+0x410>
20005164:	00058793          	mv	a5,a1
20005168:	f01ff06f          	j	20005068 <__adddf3+0x87c>
2000516c:	00058793          	mv	a5,a1
20005170:	dd1ff06f          	j	20004f40 <__adddf3+0x754>
20005174:	00050613          	mv	a2,a0
20005178:	ef1ff06f          	j	20005068 <__adddf3+0x87c>
2000517c:	00080793          	mv	a5,a6
20005180:	00088613          	mv	a2,a7
20005184:	ee5ff06f          	j	20005068 <__adddf3+0x87c>
20005188:	00048993          	mv	s3,s1
2000518c:	f20498e3          	bnez	s1,200050bc <__adddf3+0x8d0>
20005190:	ff873713          	sltiu	a4,a4,-8
20005194:	00173713          	seqz	a4,a4
20005198:	00e686b3          	add	a3,a3,a4
2000519c:	00100993          	li	s3,1
200051a0:	f1dff06f          	j	200050bc <__adddf3+0x8d0>
200051a4:	00100993          	li	s3,1
200051a8:	f0048ae3          	beqz	s1,200050bc <__adddf3+0x8d0>
200051ac:	ff873713          	sltiu	a4,a4,-8
200051b0:	00173713          	seqz	a4,a4
200051b4:	00e686b3          	add	a3,a3,a4
200051b8:	00048993          	mv	s3,s1
200051bc:	f01ff06f          	j	200050bc <__adddf3+0x8d0>
200051c0:	a8049ae3          	bnez	s1,20004c54 <__adddf3+0x468>
200051c4:	00860593          	addi	a1,a2,8 # 10008 <_start-0x1ffefff8>
200051c8:	a81ff06f          	j	20004c48 <__adddf3+0x45c>
200051cc:	00048593          	mv	a1,s1
200051d0:	00100993          	li	s3,1
200051d4:	00068493          	mv	s1,a3
200051d8:	ae0584e3          	beqz	a1,20004cc0 <__adddf3+0x4d4>
200051dc:	00860513          	addi	a0,a2,8
200051e0:	00c53833          	sltu	a6,a0,a2
200051e4:	010787b3          	add	a5,a5,a6
200051e8:	00050613          	mv	a2,a0
200051ec:	00058493          	mv	s1,a1
200051f0:	a65ff06f          	j	20004c54 <__adddf3+0x468>
200051f4:	fff00793          	li	a5,-1
200051f8:	7fe00713          	li	a4,2046
200051fc:	00078613          	mv	a2,a5
20005200:	00500993          	li	s3,5
20005204:	a61ff06f          	j	20004c64 <__adddf3+0x478>
20005208:	00000613          	li	a2,0
2000520c:	02090663          	beqz	s2,20005238 <__adddf3+0xa4c>
20005210:	00300793          	li	a5,3
20005214:	00f91a63          	bne	s2,a5,20005228 <__adddf3+0xa3c>
20005218:	02048063          	beqz	s1,20005238 <__adddf3+0xa4c>
2000521c:	fff00613          	li	a2,-1
20005220:	7fe00713          	li	a4,2046
20005224:	0140006f          	j	20005238 <__adddf3+0xa4c>
20005228:	ffe90793          	addi	a5,s2,-2
2000522c:	fe0798e3          	bnez	a5,2000521c <__adddf3+0xa30>
20005230:	0014f793          	andi	a5,s1,1
20005234:	fe0784e3          	beqz	a5,2000521c <__adddf3+0xa30>
20005238:	0059e993          	ori	s3,s3,5
2000523c:	00060793          	mv	a5,a2
20005240:	8c9ff06f          	j	20004b08 <__adddf3+0x31c>
20005244:	00000793          	li	a5,0
20005248:	00000613          	li	a2,0
2000524c:	00500993          	li	s3,5
20005250:	8b9ff06f          	j	20004b08 <__adddf3+0x31c>
20005254:	00000793          	li	a5,0
20005258:	00098713          	mv	a4,s3
2000525c:	e1cff06f          	j	20004878 <__adddf3+0x8c>
20005260:	00068493          	mv	s1,a3
20005264:	ca5ff06f          	j	20004f08 <__adddf3+0x71c>
20005268:	00068493          	mv	s1,a3
2000526c:	00000613          	li	a2,0
20005270:	00088713          	mv	a4,a7
20005274:	e04ff06f          	j	20004878 <__adddf3+0x8c>
20005278:	00000793          	li	a5,0
2000527c:	00000613          	li	a2,0
20005280:	df8ff06f          	j	20004878 <__adddf3+0x8c>
20005284:	d3388ce3          	beq	a7,s3,20004fbc <__adddf3+0x7d0>
20005288:	00000993          	li	s3,0
2000528c:	d15ff06f          	j	20004fa0 <__adddf3+0x7b4>

20005290 <__muldf3>:
20005290:	fd010113          	addi	sp,sp,-48
20005294:	02812423          	sw	s0,40(sp)
20005298:	01512a23          	sw	s5,20(sp)
2000529c:	01812423          	sw	s8,8(sp)
200052a0:	02112623          	sw	ra,44(sp)
200052a4:	02912223          	sw	s1,36(sp)
200052a8:	03212023          	sw	s2,32(sp)
200052ac:	01312e23          	sw	s3,28(sp)
200052b0:	01412c23          	sw	s4,24(sp)
200052b4:	01612823          	sw	s6,16(sp)
200052b8:	01712623          	sw	s7,12(sp)
200052bc:	01912223          	sw	s9,4(sp)
200052c0:	00050413          	mv	s0,a0
200052c4:	00060c13          	mv	s8,a2
200052c8:	00068a93          	mv	s5,a3
200052cc:	002024f3          	frrm	s1
200052d0:	0145db93          	srli	s7,a1,0x14
200052d4:	00c59913          	slli	s2,a1,0xc
200052d8:	7ffbfb93          	andi	s7,s7,2047
200052dc:	00c95913          	srli	s2,s2,0xc
200052e0:	01f5db13          	srli	s6,a1,0x1f
200052e4:	020b8a63          	beqz	s7,20005318 <__muldf3+0x88>
200052e8:	7ff00793          	li	a5,2047
200052ec:	08fb8c63          	beq	s7,a5,20005384 <__muldf3+0xf4>
200052f0:	00391913          	slli	s2,s2,0x3
200052f4:	01d55793          	srli	a5,a0,0x1d
200052f8:	0127e7b3          	or	a5,a5,s2
200052fc:	00800937          	lui	s2,0x800
20005300:	0127e933          	or	s2,a5,s2
20005304:	00351a13          	slli	s4,a0,0x3
20005308:	c01b8b93          	addi	s7,s7,-1023
2000530c:	00000c93          	li	s9,0
20005310:	00000993          	li	s3,0
20005314:	08c0006f          	j	200053a0 <__muldf3+0x110>
20005318:	00a96a33          	or	s4,s2,a0
2000531c:	120a0063          	beqz	s4,2000543c <__muldf3+0x1ac>
20005320:	04090263          	beqz	s2,20005364 <__muldf3+0xd4>
20005324:	00090513          	mv	a0,s2
20005328:	53c010ef          	jal	20006864 <__clzsi2>
2000532c:	00050713          	mv	a4,a0
20005330:	ff550693          	addi	a3,a0,-11
20005334:	01d00793          	li	a5,29
20005338:	ff870613          	addi	a2,a4,-8
2000533c:	40d787b3          	sub	a5,a5,a3
20005340:	00c91933          	sll	s2,s2,a2
20005344:	00f457b3          	srl	a5,s0,a5
20005348:	0127e7b3          	or	a5,a5,s2
2000534c:	00c41933          	sll	s2,s0,a2
20005350:	c0d00b93          	li	s7,-1011
20005354:	00090a13          	mv	s4,s2
20005358:	40eb8bb3          	sub	s7,s7,a4
2000535c:	00078913          	mv	s2,a5
20005360:	fadff06f          	j	2000530c <__muldf3+0x7c>
20005364:	500010ef          	jal	20006864 <__clzsi2>
20005368:	01550693          	addi	a3,a0,21
2000536c:	01c00793          	li	a5,28
20005370:	02050713          	addi	a4,a0,32
20005374:	fcd7d0e3          	bge	a5,a3,20005334 <__muldf3+0xa4>
20005378:	ff850793          	addi	a5,a0,-8
2000537c:	00f417b3          	sll	a5,s0,a5
20005380:	fd1ff06f          	j	20005350 <__muldf3+0xc0>
20005384:	00a96a33          	or	s4,s2,a0
20005388:	0c0a0263          	beqz	s4,2000544c <__muldf3+0x1bc>
2000538c:	000809b7          	lui	s3,0x80
20005390:	013939b3          	sltu	s3,s2,s3
20005394:	00499993          	slli	s3,s3,0x4
20005398:	00050a13          	mv	s4,a0
2000539c:	00300c93          	li	s9,3
200053a0:	014ad713          	srli	a4,s5,0x14
200053a4:	00ca9413          	slli	s0,s5,0xc
200053a8:	7ff77713          	andi	a4,a4,2047
200053ac:	000c0793          	mv	a5,s8
200053b0:	00c45413          	srli	s0,s0,0xc
200053b4:	01fada93          	srli	s5,s5,0x1f
200053b8:	0a070063          	beqz	a4,20005458 <__muldf3+0x1c8>
200053bc:	7ff00693          	li	a3,2047
200053c0:	10d70463          	beq	a4,a3,200054c8 <__muldf3+0x238>
200053c4:	00341413          	slli	s0,s0,0x3
200053c8:	01dc5793          	srli	a5,s8,0x1d
200053cc:	0087e7b3          	or	a5,a5,s0
200053d0:	00800437          	lui	s0,0x800
200053d4:	0087e433          	or	s0,a5,s0
200053d8:	c0170713          	addi	a4,a4,-1023
200053dc:	003c1793          	slli	a5,s8,0x3
200053e0:	00000693          	li	a3,0
200053e4:	00eb8bb3          	add	s7,s7,a4
200053e8:	002c9713          	slli	a4,s9,0x2
200053ec:	00d76733          	or	a4,a4,a3
200053f0:	00a00613          	li	a2,10
200053f4:	001b8813          	addi	a6,s7,1
200053f8:	12e64c63          	blt	a2,a4,20005530 <__muldf3+0x2a0>
200053fc:	00200513          	li	a0,2
20005400:	015b45b3          	xor	a1,s6,s5
20005404:	00100613          	li	a2,1
20005408:	10e54263          	blt	a0,a4,2000550c <__muldf3+0x27c>
2000540c:	fff70713          	addi	a4,a4,-1
20005410:	14e66063          	bltu	a2,a4,20005550 <__muldf3+0x2c0>
20005414:	00068c93          	mv	s9,a3
20005418:	00200713          	li	a4,2
2000541c:	5eec8463          	beq	s9,a4,20005a04 <__muldf3+0x774>
20005420:	00300713          	li	a4,3
20005424:	5eec8863          	beq	s9,a4,20005a14 <__muldf3+0x784>
20005428:	00100713          	li	a4,1
2000542c:	2cec9e63          	bne	s9,a4,20005708 <__muldf3+0x478>
20005430:	00000713          	li	a4,0
20005434:	00000513          	li	a0,0
20005438:	5980006f          	j	200059d0 <__muldf3+0x740>
2000543c:	00000913          	li	s2,0
20005440:	00000b93          	li	s7,0
20005444:	00100c93          	li	s9,1
20005448:	ec9ff06f          	j	20005310 <__muldf3+0x80>
2000544c:	00000913          	li	s2,0
20005450:	00200c93          	li	s9,2
20005454:	ebdff06f          	j	20005310 <__muldf3+0x80>
20005458:	018467b3          	or	a5,s0,s8
2000545c:	08078263          	beqz	a5,200054e0 <__muldf3+0x250>
20005460:	04040263          	beqz	s0,200054a4 <__muldf3+0x214>
20005464:	00040513          	mv	a0,s0
20005468:	3fc010ef          	jal	20006864 <__clzsi2>
2000546c:	00050793          	mv	a5,a0
20005470:	ff550713          	addi	a4,a0,-11
20005474:	01d00693          	li	a3,29
20005478:	ff878613          	addi	a2,a5,-8 # 3ffff8 <_start-0x1fc00008>
2000547c:	40e686b3          	sub	a3,a3,a4
20005480:	00c41433          	sll	s0,s0,a2
20005484:	00dc56b3          	srl	a3,s8,a3
20005488:	0086e6b3          	or	a3,a3,s0
2000548c:	00cc1433          	sll	s0,s8,a2
20005490:	c0d00713          	li	a4,-1011
20005494:	40f70733          	sub	a4,a4,a5
20005498:	00040793          	mv	a5,s0
2000549c:	00068413          	mv	s0,a3
200054a0:	f41ff06f          	j	200053e0 <__muldf3+0x150>
200054a4:	000c0513          	mv	a0,s8
200054a8:	3bc010ef          	jal	20006864 <__clzsi2>
200054ac:	01550713          	addi	a4,a0,21
200054b0:	01c00693          	li	a3,28
200054b4:	02050793          	addi	a5,a0,32
200054b8:	fae6dee3          	bge	a3,a4,20005474 <__muldf3+0x1e4>
200054bc:	ff850693          	addi	a3,a0,-8
200054c0:	00dc16b3          	sll	a3,s8,a3
200054c4:	fcdff06f          	j	20005490 <__muldf3+0x200>
200054c8:	01846c33          	or	s8,s0,s8
200054cc:	020c0263          	beqz	s8,200054f0 <__muldf3+0x260>
200054d0:	000806b7          	lui	a3,0x80
200054d4:	02d46663          	bltu	s0,a3,20005500 <__muldf3+0x270>
200054d8:	00300693          	li	a3,3
200054dc:	f09ff06f          	j	200053e4 <__muldf3+0x154>
200054e0:	00000413          	li	s0,0
200054e4:	00000713          	li	a4,0
200054e8:	00100693          	li	a3,1
200054ec:	ef9ff06f          	j	200053e4 <__muldf3+0x154>
200054f0:	00000413          	li	s0,0
200054f4:	00000793          	li	a5,0
200054f8:	00200693          	li	a3,2
200054fc:	ee9ff06f          	j	200053e4 <__muldf3+0x154>
20005500:	00300693          	li	a3,3
20005504:	01000993          	li	s3,16
20005508:	eddff06f          	j	200053e4 <__muldf3+0x154>
2000550c:	00e61733          	sll	a4,a2,a4
20005510:	53077513          	andi	a0,a4,1328
20005514:	02051863          	bnez	a0,20005544 <__muldf3+0x2b4>
20005518:	24077613          	andi	a2,a4,576
2000551c:	4c061a63          	bnez	a2,200059f0 <__muldf3+0x760>
20005520:	08877713          	andi	a4,a4,136
20005524:	02070663          	beqz	a4,20005550 <__muldf3+0x2c0>
20005528:	000a8593          	mv	a1,s5
2000552c:	ee9ff06f          	j	20005414 <__muldf3+0x184>
20005530:	00f00613          	li	a2,15
20005534:	4ec70063          	beq	a4,a2,20005a14 <__muldf3+0x784>
20005538:	00b00613          	li	a2,11
2000553c:	000b0593          	mv	a1,s6
20005540:	fec704e3          	beq	a4,a2,20005528 <__muldf3+0x298>
20005544:	00090413          	mv	s0,s2
20005548:	000a0793          	mv	a5,s4
2000554c:	ecdff06f          	j	20005418 <__muldf3+0x188>
20005550:	010a5313          	srli	t1,s4,0x10
20005554:	0107d893          	srli	a7,a5,0x10
20005558:	010a1a13          	slli	s4,s4,0x10
2000555c:	01079793          	slli	a5,a5,0x10
20005560:	010a5a13          	srli	s4,s4,0x10
20005564:	0107d793          	srli	a5,a5,0x10
20005568:	03478633          	mul	a2,a5,s4
2000556c:	02f306b3          	mul	a3,t1,a5
20005570:	01065513          	srli	a0,a2,0x10
20005574:	03488733          	mul	a4,a7,s4
20005578:	00d70733          	add	a4,a4,a3
2000557c:	00e50533          	add	a0,a0,a4
20005580:	03130fb3          	mul	t6,t1,a7
20005584:	00d57663          	bgeu	a0,a3,20005590 <__muldf3+0x300>
20005588:	00010737          	lui	a4,0x10
2000558c:	00ef8fb3          	add	t6,t6,a4
20005590:	01061613          	slli	a2,a2,0x10
20005594:	01065613          	srli	a2,a2,0x10
20005598:	01055713          	srli	a4,a0,0x10
2000559c:	01051513          	slli	a0,a0,0x10
200055a0:	00c50533          	add	a0,a0,a2
200055a4:	01045613          	srli	a2,s0,0x10
200055a8:	01041413          	slli	s0,s0,0x10
200055ac:	01045413          	srli	s0,s0,0x10
200055b0:	028a0e33          	mul	t3,s4,s0
200055b4:	02830eb3          	mul	t4,t1,s0
200055b8:	010e5693          	srli	a3,t3,0x10
200055bc:	03460a33          	mul	s4,a2,s4
200055c0:	01da0a33          	add	s4,s4,t4
200055c4:	014686b3          	add	a3,a3,s4
200055c8:	02c30333          	mul	t1,t1,a2
200055cc:	01d6f663          	bgeu	a3,t4,200055d8 <__muldf3+0x348>
200055d0:	00010eb7          	lui	t4,0x10
200055d4:	01d30333          	add	t1,t1,t4
200055d8:	0106df13          	srli	t5,a3,0x10
200055dc:	006f0f33          	add	t5,t5,t1
200055e0:	01095313          	srli	t1,s2,0x10
200055e4:	01091913          	slli	s2,s2,0x10
200055e8:	01095913          	srli	s2,s2,0x10
200055ec:	010e1e13          	slli	t3,t3,0x10
200055f0:	03278eb3          	mul	t4,a5,s2
200055f4:	010e5e13          	srli	t3,t3,0x10
200055f8:	01069693          	slli	a3,a3,0x10
200055fc:	01c686b3          	add	a3,a3,t3
20005600:	00d70733          	add	a4,a4,a3
20005604:	02f307b3          	mul	a5,t1,a5
20005608:	010ede13          	srli	t3,t4,0x10
2000560c:	026882b3          	mul	t0,a7,t1
20005610:	032888b3          	mul	a7,a7,s2
20005614:	00f888b3          	add	a7,a7,a5
20005618:	011e08b3          	add	a7,t3,a7
2000561c:	00f8f663          	bgeu	a7,a5,20005628 <__muldf3+0x398>
20005620:	000107b7          	lui	a5,0x10
20005624:	00f282b3          	add	t0,t0,a5
20005628:	032407b3          	mul	a5,s0,s2
2000562c:	010e9e93          	slli	t4,t4,0x10
20005630:	0108de13          	srli	t3,a7,0x10
20005634:	010ede93          	srli	t4,t4,0x10
20005638:	01089893          	slli	a7,a7,0x10
2000563c:	01d888b3          	add	a7,a7,t4
20005640:	005e0e33          	add	t3,t3,t0
20005644:	02830433          	mul	s0,t1,s0
20005648:	0107de93          	srli	t4,a5,0x10
2000564c:	02660333          	mul	t1,a2,t1
20005650:	03260633          	mul	a2,a2,s2
20005654:	00860633          	add	a2,a2,s0
20005658:	00ce8eb3          	add	t4,t4,a2
2000565c:	008ef663          	bgeu	t4,s0,20005668 <__muldf3+0x3d8>
20005660:	00010637          	lui	a2,0x10
20005664:	00c30333          	add	t1,t1,a2
20005668:	01079793          	slli	a5,a5,0x10
2000566c:	010e9613          	slli	a2,t4,0x10
20005670:	0107d793          	srli	a5,a5,0x10
20005674:	01f70733          	add	a4,a4,t6
20005678:	00f60633          	add	a2,a2,a5
2000567c:	01e60f33          	add	t5,a2,t5
20005680:	00d737b3          	sltu	a5,a4,a3
20005684:	00ff07b3          	add	a5,t5,a5
20005688:	011708b3          	add	a7,a4,a7
2000568c:	01c78e33          	add	t3,a5,t3
20005690:	00e8b6b3          	sltu	a3,a7,a4
20005694:	00de06b3          	add	a3,t3,a3
20005698:	00cf3633          	sltu	a2,t5,a2
2000569c:	01e7bf33          	sltu	t5,a5,t5
200056a0:	00fe3733          	sltu	a4,t3,a5
200056a4:	01e66633          	or	a2,a2,t5
200056a8:	01c6be33          	sltu	t3,a3,t3
200056ac:	010ede93          	srli	t4,t4,0x10
200056b0:	00989793          	slli	a5,a7,0x9
200056b4:	01d60633          	add	a2,a2,t4
200056b8:	01c76733          	or	a4,a4,t3
200056bc:	00c70733          	add	a4,a4,a2
200056c0:	00a7e7b3          	or	a5,a5,a0
200056c4:	00670733          	add	a4,a4,t1
200056c8:	00f037b3          	snez	a5,a5
200056cc:	0178d893          	srli	a7,a7,0x17
200056d0:	00971713          	slli	a4,a4,0x9
200056d4:	0176d413          	srli	s0,a3,0x17
200056d8:	0117e7b3          	or	a5,a5,a7
200056dc:	00969693          	slli	a3,a3,0x9
200056e0:	00d7e7b3          	or	a5,a5,a3
200056e4:	00771693          	slli	a3,a4,0x7
200056e8:	00876433          	or	s0,a4,s0
200056ec:	0606d263          	bgez	a3,20005750 <__muldf3+0x4c0>
200056f0:	0017d713          	srli	a4,a5,0x1
200056f4:	0017f793          	andi	a5,a5,1
200056f8:	00f76733          	or	a4,a4,a5
200056fc:	01f41793          	slli	a5,s0,0x1f
20005700:	00f767b3          	or	a5,a4,a5
20005704:	00145413          	srli	s0,s0,0x1
20005708:	3ff80693          	addi	a3,a6,1023 # 8003ff <_start-0x1f7ffc01>
2000570c:	12d05263          	blez	a3,20005830 <__muldf3+0x5a0>
20005710:	0077f713          	andi	a4,a5,7
20005714:	04070a63          	beqz	a4,20005768 <__muldf3+0x4d8>
20005718:	00200713          	li	a4,2
2000571c:	0019e993          	ori	s3,s3,1
20005720:	04e48263          	beq	s1,a4,20005764 <__muldf3+0x4d4>
20005724:	00300713          	li	a4,3
20005728:	02e48863          	beq	s1,a4,20005758 <__muldf3+0x4c8>
2000572c:	02049e63          	bnez	s1,20005768 <__muldf3+0x4d8>
20005730:	00f7f713          	andi	a4,a5,15
20005734:	00400613          	li	a2,4
20005738:	02c70863          	beq	a4,a2,20005768 <__muldf3+0x4d8>
2000573c:	00c78733          	add	a4,a5,a2
20005740:	00f73633          	sltu	a2,a4,a5
20005744:	00c40433          	add	s0,s0,a2
20005748:	00070793          	mv	a5,a4
2000574c:	01c0006f          	j	20005768 <__muldf3+0x4d8>
20005750:	000b8813          	mv	a6,s7
20005754:	fb5ff06f          	j	20005708 <__muldf3+0x478>
20005758:	00059863          	bnez	a1,20005768 <__muldf3+0x4d8>
2000575c:	00878713          	addi	a4,a5,8 # 10008 <_start-0x1ffefff8>
20005760:	fe1ff06f          	j	20005740 <__muldf3+0x4b0>
20005764:	fe059ce3          	bnez	a1,2000575c <__muldf3+0x4cc>
20005768:	00741713          	slli	a4,s0,0x7
2000576c:	00075a63          	bgez	a4,20005780 <__muldf3+0x4f0>
20005770:	ff000737          	lui	a4,0xff000
20005774:	fff70713          	addi	a4,a4,-1 # feffffff <__stack_top+0xdeff60fb>
20005778:	00e47433          	and	s0,s0,a4
2000577c:	40080693          	addi	a3,a6,1024
20005780:	7fe00713          	li	a4,2046
20005784:	06d74663          	blt	a4,a3,200057f0 <__muldf3+0x560>
20005788:	0037d793          	srli	a5,a5,0x3
2000578c:	01d41513          	slli	a0,s0,0x1d
20005790:	00f56533          	or	a0,a0,a5
20005794:	00345713          	srli	a4,s0,0x3
20005798:	00c71713          	slli	a4,a4,0xc
2000579c:	01469693          	slli	a3,a3,0x14
200057a0:	00c75713          	srli	a4,a4,0xc
200057a4:	01f59593          	slli	a1,a1,0x1f
200057a8:	00e6e6b3          	or	a3,a3,a4
200057ac:	00b6e7b3          	or	a5,a3,a1
200057b0:	00078593          	mv	a1,a5
200057b4:	00098463          	beqz	s3,200057bc <__muldf3+0x52c>
200057b8:	0019a073          	csrs	fflags,s3
200057bc:	02c12083          	lw	ra,44(sp)
200057c0:	02812403          	lw	s0,40(sp)
200057c4:	02412483          	lw	s1,36(sp)
200057c8:	02012903          	lw	s2,32(sp)
200057cc:	01c12983          	lw	s3,28(sp)
200057d0:	01812a03          	lw	s4,24(sp)
200057d4:	01412a83          	lw	s5,20(sp)
200057d8:	01012b03          	lw	s6,16(sp)
200057dc:	00c12b83          	lw	s7,12(sp)
200057e0:	00812c03          	lw	s8,8(sp)
200057e4:	00412c83          	lw	s9,4(sp)
200057e8:	03010113          	addi	sp,sp,48
200057ec:	00008067          	ret
200057f0:	00200793          	li	a5,2
200057f4:	02f48a63          	beq	s1,a5,20005828 <__muldf3+0x598>
200057f8:	00300793          	li	a5,3
200057fc:	00f48a63          	beq	s1,a5,20005810 <__muldf3+0x580>
20005800:	00049a63          	bnez	s1,20005814 <__muldf3+0x584>
20005804:	00000513          	li	a0,0
20005808:	7ff00693          	li	a3,2047
2000580c:	0100006f          	j	2000581c <__muldf3+0x58c>
20005810:	fe058ae3          	beqz	a1,20005804 <__muldf3+0x574>
20005814:	fff00513          	li	a0,-1
20005818:	00070693          	mv	a3,a4
2000581c:	0059e993          	ori	s3,s3,5
20005820:	00050713          	mv	a4,a0
20005824:	f75ff06f          	j	20005798 <__muldf3+0x508>
20005828:	fc059ee3          	bnez	a1,20005804 <__muldf3+0x574>
2000582c:	fe9ff06f          	j	20005814 <__muldf3+0x584>
20005830:	0c069263          	bnez	a3,200058f4 <__muldf3+0x664>
20005834:	0077f693          	andi	a3,a5,7
20005838:	00040713          	mv	a4,s0
2000583c:	04068463          	beqz	a3,20005884 <__muldf3+0x5f4>
20005840:	00200693          	li	a3,2
20005844:	0019e993          	ori	s3,s3,1
20005848:	02d48c63          	beq	s1,a3,20005880 <__muldf3+0x5f0>
2000584c:	00300693          	li	a3,3
20005850:	02d48263          	beq	s1,a3,20005874 <__muldf3+0x5e4>
20005854:	02049863          	bnez	s1,20005884 <__muldf3+0x5f4>
20005858:	00f7f693          	andi	a3,a5,15
2000585c:	00400613          	li	a2,4
20005860:	02c68263          	beq	a3,a2,20005884 <__muldf3+0x5f4>
20005864:	ffc7b713          	sltiu	a4,a5,-4
20005868:	00173713          	seqz	a4,a4
2000586c:	00870733          	add	a4,a4,s0
20005870:	0140006f          	j	20005884 <__muldf3+0x5f4>
20005874:	00059863          	bnez	a1,20005884 <__muldf3+0x5f4>
20005878:	ff87b713          	sltiu	a4,a5,-8
2000587c:	fedff06f          	j	20005868 <__muldf3+0x5d8>
20005880:	fe059ce3          	bnez	a1,20005878 <__muldf3+0x5e8>
20005884:	01875613          	srli	a2,a4,0x18
20005888:	00167613          	andi	a2,a2,1
2000588c:	00164613          	xori	a2,a2,1
20005890:	00100713          	li	a4,1
20005894:	41e80813          	addi	a6,a6,1054
20005898:	00e7d6b3          	srl	a3,a5,a4
2000589c:	010797b3          	sll	a5,a5,a6
200058a0:	00f037b3          	snez	a5,a5
200058a4:	01041833          	sll	a6,s0,a6
200058a8:	0107e7b3          	or	a5,a5,a6
200058ac:	00f6e7b3          	or	a5,a3,a5
200058b0:	00e45733          	srl	a4,s0,a4
200058b4:	0077f693          	andi	a3,a5,7
200058b8:	08068e63          	beqz	a3,20005954 <__muldf3+0x6c4>
200058bc:	00200693          	li	a3,2
200058c0:	0019e993          	ori	s3,s3,1
200058c4:	08d48663          	beq	s1,a3,20005950 <__muldf3+0x6c0>
200058c8:	00300693          	li	a3,3
200058cc:	06d48c63          	beq	s1,a3,20005944 <__muldf3+0x6b4>
200058d0:	08049263          	bnez	s1,20005954 <__muldf3+0x6c4>
200058d4:	00f7f693          	andi	a3,a5,15
200058d8:	00400513          	li	a0,4
200058dc:	06a68c63          	beq	a3,a0,20005954 <__muldf3+0x6c4>
200058e0:	00a786b3          	add	a3,a5,a0
200058e4:	00f6b533          	sltu	a0,a3,a5
200058e8:	00a70733          	add	a4,a4,a0
200058ec:	00068793          	mv	a5,a3
200058f0:	0640006f          	j	20005954 <__muldf3+0x6c4>
200058f4:	fc900713          	li	a4,-55
200058f8:	0ae6c063          	blt	a3,a4,20005998 <__muldf3+0x708>
200058fc:	fe200713          	li	a4,-30
20005900:	00e6c863          	blt	a3,a4,20005910 <__muldf3+0x680>
20005904:	00100613          	li	a2,1
20005908:	40d60733          	sub	a4,a2,a3
2000590c:	f89ff06f          	j	20005894 <__muldf3+0x604>
20005910:	fe100513          	li	a0,-31
20005914:	40d50733          	sub	a4,a0,a3
20005918:	00e45733          	srl	a4,s0,a4
2000591c:	00000613          	li	a2,0
20005920:	00a68663          	beq	a3,a0,2000592c <__muldf3+0x69c>
20005924:	43e80813          	addi	a6,a6,1086
20005928:	01041633          	sll	a2,s0,a6
2000592c:	00c7e633          	or	a2,a5,a2
20005930:	00c03633          	snez	a2,a2
20005934:	00c767b3          	or	a5,a4,a2
20005938:	00100613          	li	a2,1
2000593c:	00000713          	li	a4,0
20005940:	f75ff06f          	j	200058b4 <__muldf3+0x624>
20005944:	00059863          	bnez	a1,20005954 <__muldf3+0x6c4>
20005948:	00878693          	addi	a3,a5,8
2000594c:	f99ff06f          	j	200058e4 <__muldf3+0x654>
20005950:	fe059ce3          	bnez	a1,20005948 <__muldf3+0x6b8>
20005954:	00871693          	slli	a3,a4,0x8
20005958:	0206d463          	bgez	a3,20005980 <__muldf3+0x6f0>
2000595c:	0019e993          	ori	s3,s3,1
20005960:	00000713          	li	a4,0
20005964:	00000513          	li	a0,0
20005968:	00100693          	li	a3,1
2000596c:	e20606e3          	beqz	a2,20005798 <__muldf3+0x508>
20005970:	0019f793          	andi	a5,s3,1
20005974:	00179793          	slli	a5,a5,0x1
20005978:	00f9e9b3          	or	s3,s3,a5
2000597c:	e1dff06f          	j	20005798 <__muldf3+0x508>
20005980:	01d71513          	slli	a0,a4,0x1d
20005984:	0037d793          	srli	a5,a5,0x3
20005988:	00f56533          	or	a0,a0,a5
2000598c:	00375713          	srli	a4,a4,0x3
20005990:	00000693          	li	a3,0
20005994:	fd9ff06f          	j	2000596c <__muldf3+0x6dc>
20005998:	00f46533          	or	a0,s0,a5
2000599c:	02050663          	beqz	a0,200059c8 <__muldf3+0x738>
200059a0:	00200793          	li	a5,2
200059a4:	0019e993          	ori	s3,s3,1
200059a8:	04f48063          	beq	s1,a5,200059e8 <__muldf3+0x758>
200059ac:	00300793          	li	a5,3
200059b0:	02f48463          	beq	s1,a5,200059d8 <__muldf3+0x748>
200059b4:	009034b3          	snez	s1,s1
200059b8:	409004b3          	neg	s1,s1
200059bc:	ffc4f493          	andi	s1,s1,-4
200059c0:	00548493          	addi	s1,s1,5
200059c4:	0034d513          	srli	a0,s1,0x3
200059c8:	0029e993          	ori	s3,s3,2
200059cc:	00000713          	li	a4,0
200059d0:	00000693          	li	a3,0
200059d4:	dc5ff06f          	j	20005798 <__muldf3+0x508>
200059d8:	fff58493          	addi	s1,a1,-1
200059dc:	0084f493          	andi	s1,s1,8
200059e0:	00148493          	addi	s1,s1,1
200059e4:	fe1ff06f          	j	200059c4 <__muldf3+0x734>
200059e8:	00359493          	slli	s1,a1,0x3
200059ec:	ff5ff06f          	j	200059e0 <__muldf3+0x750>
200059f0:	00080737          	lui	a4,0x80
200059f4:	7ff00693          	li	a3,2047
200059f8:	00000593          	li	a1,0
200059fc:	01000993          	li	s3,16
20005a00:	d99ff06f          	j	20005798 <__muldf3+0x508>
20005a04:	00000713          	li	a4,0
20005a08:	00000513          	li	a0,0
20005a0c:	7ff00693          	li	a3,2047
20005a10:	d89ff06f          	j	20005798 <__muldf3+0x508>
20005a14:	00080737          	lui	a4,0x80
20005a18:	00000513          	li	a0,0
20005a1c:	7ff00693          	li	a3,2047
20005a20:	00000593          	li	a1,0
20005a24:	d75ff06f          	j	20005798 <__muldf3+0x508>

20005a28 <__subdf3>:
20005a28:	fe010113          	addi	sp,sp,-32
20005a2c:	00112e23          	sw	ra,28(sp)
20005a30:	00812c23          	sw	s0,24(sp)
20005a34:	00912a23          	sw	s1,20(sp)
20005a38:	01212823          	sw	s2,16(sp)
20005a3c:	01312623          	sw	s3,12(sp)
20005a40:	01412423          	sw	s4,8(sp)
20005a44:	00202973          	frrm	s2
20005a48:	00100737          	lui	a4,0x100
20005a4c:	fff70713          	addi	a4,a4,-1 # fffff <_start-0x1ff00001>
20005a50:	00b777b3          	and	a5,a4,a1
20005a54:	0145d993          	srli	s3,a1,0x14
20005a58:	00d77733          	and	a4,a4,a3
20005a5c:	01f5d493          	srli	s1,a1,0x1f
20005a60:	00379793          	slli	a5,a5,0x3
20005a64:	01d55593          	srli	a1,a0,0x1d
20005a68:	0146d893          	srli	a7,a3,0x14
20005a6c:	00371713          	slli	a4,a4,0x3
20005a70:	00f5e7b3          	or	a5,a1,a5
20005a74:	01d65593          	srli	a1,a2,0x1d
20005a78:	00e5e5b3          	or	a1,a1,a4
20005a7c:	7ff8f893          	andi	a7,a7,2047
20005a80:	7ff00713          	li	a4,2047
20005a84:	7ff9f993          	andi	s3,s3,2047
20005a88:	00351513          	slli	a0,a0,0x3
20005a8c:	01f6d693          	srli	a3,a3,0x1f
20005a90:	00361613          	slli	a2,a2,0x3
20005a94:	00e89663          	bne	a7,a4,20005aa0 <__subdf3+0x78>
20005a98:	00c5e733          	or	a4,a1,a2
20005a9c:	00071463          	bnez	a4,20005aa4 <__subdf3+0x7c>
20005aa0:	0016c693          	xori	a3,a3,1
20005aa4:	41198733          	sub	a4,s3,a7
20005aa8:	7ff00813          	li	a6,2047
20005aac:	46969863          	bne	a3,s1,20005f1c <__subdf3+0x4f4>
20005ab0:	14e05c63          	blez	a4,20005c08 <__subdf3+0x1e0>
20005ab4:	06089063          	bnez	a7,20005b14 <__subdf3+0xec>
20005ab8:	00c5e6b3          	or	a3,a1,a2
20005abc:	00069a63          	bnez	a3,20005ad0 <__subdf3+0xa8>
20005ac0:	00050613          	mv	a2,a0
20005ac4:	03070863          	beq	a4,a6,20005af4 <__subdf3+0xcc>
20005ac8:	00000993          	li	s3,0
20005acc:	28c0006f          	j	20005d58 <__subdf3+0x330>
20005ad0:	fff70693          	addi	a3,a4,-1
20005ad4:	00069e63          	bnez	a3,20005af0 <__subdf3+0xc8>
20005ad8:	00c50633          	add	a2,a0,a2
20005adc:	00b785b3          	add	a1,a5,a1
20005ae0:	00a63533          	sltu	a0,a2,a0
20005ae4:	00a587b3          	add	a5,a1,a0
20005ae8:	00100713          	li	a4,1
20005aec:	0a40006f          	j	20005b90 <__subdf3+0x168>
20005af0:	05071c63          	bne	a4,a6,20005b48 <__subdf3+0x120>
20005af4:	00a7e633          	or	a2,a5,a0
20005af8:	040606e3          	beqz	a2,20006344 <__subdf3+0x91c>
20005afc:	0167d993          	srli	s3,a5,0x16
20005b00:	0019f993          	andi	s3,s3,1
20005b04:	0019c993          	xori	s3,s3,1
20005b08:	00499993          	slli	s3,s3,0x4
20005b0c:	00050613          	mv	a2,a0
20005b10:	2480006f          	j	20005d58 <__subdf3+0x330>
20005b14:	03099463          	bne	s3,a6,20005b3c <__subdf3+0x114>
20005b18:	00a7e633          	or	a2,a5,a0
20005b1c:	180604e3          	beqz	a2,200064a4 <__subdf3+0xa7c>
20005b20:	0167d693          	srli	a3,a5,0x16
20005b24:	0016f693          	andi	a3,a3,1
20005b28:	0016c693          	xori	a3,a3,1
20005b2c:	00098713          	mv	a4,s3
20005b30:	00050613          	mv	a2,a0
20005b34:	00469993          	slli	s3,a3,0x4
20005b38:	2200006f          	j	20005d58 <__subdf3+0x330>
20005b3c:	008006b7          	lui	a3,0x800
20005b40:	00d5e5b3          	or	a1,a1,a3
20005b44:	00070693          	mv	a3,a4
20005b48:	03800713          	li	a4,56
20005b4c:	0ad74863          	blt	a4,a3,20005bfc <__subdf3+0x1d4>
20005b50:	01f00713          	li	a4,31
20005b54:	02000893          	li	a7,32
20005b58:	06d74a63          	blt	a4,a3,20005bcc <__subdf3+0x1a4>
20005b5c:	40d888b3          	sub	a7,a7,a3
20005b60:	01159733          	sll	a4,a1,a7
20005b64:	00d65833          	srl	a6,a2,a3
20005b68:	011618b3          	sll	a7,a2,a7
20005b6c:	01076733          	or	a4,a4,a6
20005b70:	011038b3          	snez	a7,a7
20005b74:	01176733          	or	a4,a4,a7
20005b78:	00d5d6b3          	srl	a3,a1,a3
20005b7c:	00a70633          	add	a2,a4,a0
20005b80:	00e63733          	sltu	a4,a2,a4
20005b84:	00f686b3          	add	a3,a3,a5
20005b88:	00e687b3          	add	a5,a3,a4
20005b8c:	00098713          	mv	a4,s3
20005b90:	00879693          	slli	a3,a5,0x8
20005b94:	2a06dc63          	bgez	a3,20005e4c <__subdf3+0x424>
20005b98:	00170713          	addi	a4,a4,1
20005b9c:	7ff00693          	li	a3,2047
20005ba0:	32d70c63          	beq	a4,a3,20005ed8 <__subdf3+0x4b0>
20005ba4:	ff8006b7          	lui	a3,0xff800
20005ba8:	fff68693          	addi	a3,a3,-1 # ff7fffff <__stack_top+0xdf7f60fb>
20005bac:	00d7f7b3          	and	a5,a5,a3
20005bb0:	00165693          	srli	a3,a2,0x1
20005bb4:	00167613          	andi	a2,a2,1
20005bb8:	00c6e6b3          	or	a3,a3,a2
20005bbc:	01f79613          	slli	a2,a5,0x1f
20005bc0:	00d66633          	or	a2,a2,a3
20005bc4:	0017d793          	srli	a5,a5,0x1
20005bc8:	2840006f          	j	20005e4c <__subdf3+0x424>
20005bcc:	fe068713          	addi	a4,a3,-32
20005bd0:	00e5d733          	srl	a4,a1,a4
20005bd4:	00000813          	li	a6,0
20005bd8:	01168863          	beq	a3,a7,20005be8 <__subdf3+0x1c0>
20005bdc:	04000813          	li	a6,64
20005be0:	40d80833          	sub	a6,a6,a3
20005be4:	01059833          	sll	a6,a1,a6
20005be8:	00c86833          	or	a6,a6,a2
20005bec:	01003833          	snez	a6,a6
20005bf0:	01076733          	or	a4,a4,a6
20005bf4:	00000693          	li	a3,0
20005bf8:	f85ff06f          	j	20005b7c <__subdf3+0x154>
20005bfc:	00c5e733          	or	a4,a1,a2
20005c00:	00e03733          	snez	a4,a4
20005c04:	ff1ff06f          	j	20005bf4 <__subdf3+0x1cc>
20005c08:	10070463          	beqz	a4,20005d10 <__subdf3+0x2e8>
20005c0c:	41388733          	sub	a4,a7,s3
20005c10:	04099463          	bnez	s3,20005c58 <__subdf3+0x230>
20005c14:	00a7e6b3          	or	a3,a5,a0
20005c18:	02069663          	bnez	a3,20005c44 <__subdf3+0x21c>
20005c1c:	00058793          	mv	a5,a1
20005c20:	13071c63          	bne	a4,a6,20005d58 <__subdf3+0x330>
20005c24:	00c5e7b3          	or	a5,a1,a2
20005c28:	52078863          	beqz	a5,20006158 <__subdf3+0x730>
20005c2c:	0165d993          	srli	s3,a1,0x16
20005c30:	0019f993          	andi	s3,s3,1
20005c34:	0019c993          	xori	s3,s3,1
20005c38:	00499993          	slli	s3,s3,0x4
20005c3c:	00058793          	mv	a5,a1
20005c40:	1180006f          	j	20005d58 <__subdf3+0x330>
20005c44:	fff70693          	addi	a3,a4,-1
20005c48:	e80688e3          	beqz	a3,20005ad8 <__subdf3+0xb0>
20005c4c:	03071e63          	bne	a4,a6,20005c88 <__subdf3+0x260>
20005c50:	00c5e7b3          	or	a5,a1,a2
20005c54:	fd5ff06f          	j	20005c28 <__subdf3+0x200>
20005c58:	03089263          	bne	a7,a6,20005c7c <__subdf3+0x254>
20005c5c:	00c5e7b3          	or	a5,a1,a2
20005c60:	04078ee3          	beqz	a5,200064bc <__subdf3+0xa94>
20005c64:	0165d993          	srli	s3,a1,0x16
20005c68:	0019f993          	andi	s3,s3,1
20005c6c:	0019c993          	xori	s3,s3,1
20005c70:	00499993          	slli	s3,s3,0x4
20005c74:	00058793          	mv	a5,a1
20005c78:	1a80006f          	j	20005e20 <__subdf3+0x3f8>
20005c7c:	008006b7          	lui	a3,0x800
20005c80:	00d7e7b3          	or	a5,a5,a3
20005c84:	00070693          	mv	a3,a4
20005c88:	03800713          	li	a4,56
20005c8c:	06d74c63          	blt	a4,a3,20005d04 <__subdf3+0x2dc>
20005c90:	01f00713          	li	a4,31
20005c94:	02000313          	li	t1,32
20005c98:	02d74e63          	blt	a4,a3,20005cd4 <__subdf3+0x2ac>
20005c9c:	40d30333          	sub	t1,t1,a3
20005ca0:	00679733          	sll	a4,a5,t1
20005ca4:	00d55833          	srl	a6,a0,a3
20005ca8:	00651333          	sll	t1,a0,t1
20005cac:	01076733          	or	a4,a4,a6
20005cb0:	00603333          	snez	t1,t1
20005cb4:	00676733          	or	a4,a4,t1
20005cb8:	00d7d6b3          	srl	a3,a5,a3
20005cbc:	00c70633          	add	a2,a4,a2
20005cc0:	00e63733          	sltu	a4,a2,a4
20005cc4:	00b686b3          	add	a3,a3,a1
20005cc8:	00e687b3          	add	a5,a3,a4
20005ccc:	00088713          	mv	a4,a7
20005cd0:	ec1ff06f          	j	20005b90 <__subdf3+0x168>
20005cd4:	fe068713          	addi	a4,a3,-32 # 7fffe0 <_start-0x1f800020>
20005cd8:	00e7d733          	srl	a4,a5,a4
20005cdc:	00000813          	li	a6,0
20005ce0:	00668863          	beq	a3,t1,20005cf0 <__subdf3+0x2c8>
20005ce4:	04000813          	li	a6,64
20005ce8:	40d80833          	sub	a6,a6,a3
20005cec:	01079833          	sll	a6,a5,a6
20005cf0:	00a86833          	or	a6,a6,a0
20005cf4:	01003833          	snez	a6,a6
20005cf8:	01076733          	or	a4,a4,a6
20005cfc:	00000693          	li	a3,0
20005d00:	fbdff06f          	j	20005cbc <__subdf3+0x294>
20005d04:	00a7e733          	or	a4,a5,a0
20005d08:	00e03733          	snez	a4,a4
20005d0c:	ff1ff06f          	j	20005cfc <__subdf3+0x2d4>
20005d10:	00198713          	addi	a4,s3,1 # 80001 <_start-0x1ff7ffff>
20005d14:	7fe77693          	andi	a3,a4,2046
20005d18:	10069863          	bnez	a3,20005e28 <__subdf3+0x400>
20005d1c:	00a7e733          	or	a4,a5,a0
20005d20:	0a099863          	bnez	s3,20005dd0 <__subdf3+0x3a8>
20005d24:	68070863          	beqz	a4,200063b4 <__subdf3+0x98c>
20005d28:	00c5e733          	or	a4,a1,a2
20005d2c:	68070c63          	beqz	a4,200063c4 <__subdf3+0x99c>
20005d30:	00c50633          	add	a2,a0,a2
20005d34:	00b785b3          	add	a1,a5,a1
20005d38:	00a63533          	sltu	a0,a2,a0
20005d3c:	00a587b3          	add	a5,a1,a0
20005d40:	00879713          	slli	a4,a5,0x8
20005d44:	56075a63          	bgez	a4,200062b8 <__subdf3+0x890>
20005d48:	ff800737          	lui	a4,0xff800
20005d4c:	fff70713          	addi	a4,a4,-1 # ff7fffff <__stack_top+0xdf7f60fb>
20005d50:	00e7f7b3          	and	a5,a5,a4
20005d54:	00100713          	li	a4,1
20005d58:	01d79693          	slli	a3,a5,0x1d
20005d5c:	00365613          	srli	a2,a2,0x3
20005d60:	00c6e633          	or	a2,a3,a2
20005d64:	7ff00693          	li	a3,2047
20005d68:	0037d793          	srli	a5,a5,0x3
20005d6c:	00d71e63          	bne	a4,a3,20005d88 <__subdf3+0x360>
20005d70:	00f66633          	or	a2,a2,a5
20005d74:	00000793          	li	a5,0
20005d78:	00060863          	beqz	a2,20005d88 <__subdf3+0x360>
20005d7c:	000807b7          	lui	a5,0x80
20005d80:	00000613          	li	a2,0
20005d84:	00000493          	li	s1,0
20005d88:	7ff77713          	andi	a4,a4,2047
20005d8c:	00c79793          	slli	a5,a5,0xc
20005d90:	01471713          	slli	a4,a4,0x14
20005d94:	00c7d793          	srli	a5,a5,0xc
20005d98:	00f76733          	or	a4,a4,a5
20005d9c:	01f49493          	slli	s1,s1,0x1f
20005da0:	00060513          	mv	a0,a2
20005da4:	009765b3          	or	a1,a4,s1
20005da8:	00098463          	beqz	s3,20005db0 <__subdf3+0x388>
20005dac:	0019a073          	csrs	fflags,s3
20005db0:	01c12083          	lw	ra,28(sp)
20005db4:	01812403          	lw	s0,24(sp)
20005db8:	01412483          	lw	s1,20(sp)
20005dbc:	01012903          	lw	s2,16(sp)
20005dc0:	00c12983          	lw	s3,12(sp)
20005dc4:	00812a03          	lw	s4,8(sp)
20005dc8:	02010113          	addi	sp,sp,32
20005dcc:	00008067          	ret
20005dd0:	03099a63          	bne	s3,a6,20005e04 <__subdf3+0x3dc>
20005dd4:	02070863          	beqz	a4,20005e04 <__subdf3+0x3dc>
20005dd8:	0167d993          	srli	s3,a5,0x16
20005ddc:	0019f993          	andi	s3,s3,1
20005de0:	0019c993          	xori	s3,s3,1
20005de4:	00499993          	slli	s3,s3,0x4
20005de8:	03089663          	bne	a7,a6,20005e14 <__subdf3+0x3ec>
20005dec:	00c5e6b3          	or	a3,a1,a2
20005df0:	02068063          	beqz	a3,20005e10 <__subdf3+0x3e8>
20005df4:	00959693          	slli	a3,a1,0x9
20005df8:	0006cc63          	bltz	a3,20005e10 <__subdf3+0x3e8>
20005dfc:	01000993          	li	s3,16
20005e00:	0100006f          	j	20005e10 <__subdf3+0x3e8>
20005e04:	7ff00693          	li	a3,2047
20005e08:	00000993          	li	s3,0
20005e0c:	fed880e3          	beq	a7,a3,20005dec <__subdf3+0x3c4>
20005e10:	e60702e3          	beqz	a4,20005c74 <__subdf3+0x24c>
20005e14:	00c5e5b3          	or	a1,a1,a2
20005e18:	40059063          	bnez	a1,20006218 <__subdf3+0x7f0>
20005e1c:	00050613          	mv	a2,a0
20005e20:	7ff00713          	li	a4,2047
20005e24:	f35ff06f          	j	20005d58 <__subdf3+0x330>
20005e28:	03070863          	beq	a4,a6,20005e58 <__subdf3+0x430>
20005e2c:	00c50633          	add	a2,a0,a2
20005e30:	00b785b3          	add	a1,a5,a1
20005e34:	00a63533          	sltu	a0,a2,a0
20005e38:	00a585b3          	add	a1,a1,a0
20005e3c:	01f59793          	slli	a5,a1,0x1f
20005e40:	00165613          	srli	a2,a2,0x1
20005e44:	00c7e633          	or	a2,a5,a2
20005e48:	0015d793          	srli	a5,a1,0x1
20005e4c:	00000693          	li	a3,0
20005e50:	00000993          	li	s3,0
20005e54:	4c80006f          	j	2000631c <__subdf3+0x8f4>
20005e58:	62090e63          	beqz	s2,20006494 <__subdf3+0xa6c>
20005e5c:	00300793          	li	a5,3
20005e60:	08f91a63          	bne	s2,a5,20005ef4 <__subdf3+0x4cc>
20005e64:	62048863          	beqz	s1,20006494 <__subdf3+0xa6c>
20005e68:	00000693          	li	a3,0
20005e6c:	fff00793          	li	a5,-1
20005e70:	7fe00713          	li	a4,2046
20005e74:	00078613          	mv	a2,a5
20005e78:	00500993          	li	s3,5
20005e7c:	00300593          	li	a1,3
20005e80:	58b90863          	beq	s2,a1,20006410 <__subdf3+0x9e8>
20005e84:	02091063          	bnez	s2,20005ea4 <__subdf3+0x47c>
20005e88:	00f67593          	andi	a1,a2,15
20005e8c:	00400513          	li	a0,4
20005e90:	00a58a63          	beq	a1,a0,20005ea4 <__subdf3+0x47c>
20005e94:	00a605b3          	add	a1,a2,a0
20005e98:	00c5b533          	sltu	a0,a1,a2
20005e9c:	00a787b3          	add	a5,a5,a0
20005ea0:	00058613          	mv	a2,a1
20005ea4:	00068863          	beqz	a3,20005eb4 <__subdf3+0x48c>
20005ea8:	0019f693          	andi	a3,s3,1
20005eac:	00169693          	slli	a3,a3,0x1
20005eb0:	00d9e9b3          	or	s3,s3,a3
20005eb4:	00879693          	slli	a3,a5,0x8
20005eb8:	ea06d0e3          	bgez	a3,20005d58 <__subdf3+0x330>
20005ebc:	00170713          	addi	a4,a4,1
20005ec0:	7ff00693          	li	a3,2047
20005ec4:	58d70a63          	beq	a4,a3,20006458 <__subdf3+0xa30>
20005ec8:	ff8006b7          	lui	a3,0xff800
20005ecc:	fff68693          	addi	a3,a3,-1 # ff7fffff <__stack_top+0xdf7f60fb>
20005ed0:	00d7f7b3          	and	a5,a5,a3
20005ed4:	e85ff06f          	j	20005d58 <__subdf3+0x330>
20005ed8:	5a090e63          	beqz	s2,20006494 <__subdf3+0xa6c>
20005edc:	00300793          	li	a5,3
20005ee0:	00f91a63          	bne	s2,a5,20005ef4 <__subdf3+0x4cc>
20005ee4:	5a048863          	beqz	s1,20006494 <__subdf3+0xa6c>
20005ee8:	fff00793          	li	a5,-1
20005eec:	00000693          	li	a3,0
20005ef0:	f81ff06f          	j	20005e70 <__subdf3+0x448>
20005ef4:	00200793          	li	a5,2
20005ef8:	54f91663          	bne	s2,a5,20006444 <__subdf3+0xa1c>
20005efc:	58049c63          	bnez	s1,20006494 <__subdf3+0xa6c>
20005f00:	fff00793          	li	a5,-1
20005f04:	7fe00713          	li	a4,2046
20005f08:	00078613          	mv	a2,a5
20005f0c:	00500993          	li	s3,5
20005f10:	00048693          	mv	a3,s1
20005f14:	00000493          	li	s1,0
20005f18:	f8dff06f          	j	20005ea4 <__subdf3+0x47c>
20005f1c:	0ee05663          	blez	a4,20006008 <__subdf3+0x5e0>
20005f20:	08089c63          	bnez	a7,20005fb8 <__subdf3+0x590>
20005f24:	00c5e6b3          	or	a3,a1,a2
20005f28:	b8068ce3          	beqz	a3,20005ac0 <__subdf3+0x98>
20005f2c:	fff70693          	addi	a3,a4,-1
20005f30:	00069e63          	bnez	a3,20005f4c <__subdf3+0x524>
20005f34:	40c50633          	sub	a2,a0,a2
20005f38:	40b785b3          	sub	a1,a5,a1
20005f3c:	00c53533          	sltu	a0,a0,a2
20005f40:	40a587b3          	sub	a5,a1,a0
20005f44:	00100713          	li	a4,1
20005f48:	0500006f          	j	20005f98 <__subdf3+0x570>
20005f4c:	bb0704e3          	beq	a4,a6,20005af4 <__subdf3+0xcc>
20005f50:	03800713          	li	a4,56
20005f54:	0ad74463          	blt	a4,a3,20005ffc <__subdf3+0x5d4>
20005f58:	01f00713          	li	a4,31
20005f5c:	02000893          	li	a7,32
20005f60:	06d74663          	blt	a4,a3,20005fcc <__subdf3+0x5a4>
20005f64:	40d888b3          	sub	a7,a7,a3
20005f68:	01159733          	sll	a4,a1,a7
20005f6c:	00d65833          	srl	a6,a2,a3
20005f70:	011618b3          	sll	a7,a2,a7
20005f74:	01076733          	or	a4,a4,a6
20005f78:	011038b3          	snez	a7,a7
20005f7c:	01176733          	or	a4,a4,a7
20005f80:	00d5d6b3          	srl	a3,a1,a3
20005f84:	40e50633          	sub	a2,a0,a4
20005f88:	40d786b3          	sub	a3,a5,a3
20005f8c:	00c53533          	sltu	a0,a0,a2
20005f90:	40a687b3          	sub	a5,a3,a0
20005f94:	00098713          	mv	a4,s3
20005f98:	00879693          	slli	a3,a5,0x8
20005f9c:	ea06d8e3          	bgez	a3,20005e4c <__subdf3+0x424>
20005fa0:	00800437          	lui	s0,0x800
20005fa4:	fff40413          	addi	s0,s0,-1 # 7fffff <_start-0x1f800001>
20005fa8:	0087f433          	and	s0,a5,s0
20005fac:	00060a13          	mv	s4,a2
20005fb0:	00070993          	mv	s3,a4
20005fb4:	2a40006f          	j	20006258 <__subdf3+0x830>
20005fb8:	b70980e3          	beq	s3,a6,20005b18 <__subdf3+0xf0>
20005fbc:	008006b7          	lui	a3,0x800
20005fc0:	00d5e5b3          	or	a1,a1,a3
20005fc4:	00070693          	mv	a3,a4
20005fc8:	f89ff06f          	j	20005f50 <__subdf3+0x528>
20005fcc:	fe068713          	addi	a4,a3,-32 # 7fffe0 <_start-0x1f800020>
20005fd0:	00e5d733          	srl	a4,a1,a4
20005fd4:	00000813          	li	a6,0
20005fd8:	01168863          	beq	a3,a7,20005fe8 <__subdf3+0x5c0>
20005fdc:	04000813          	li	a6,64
20005fe0:	40d80833          	sub	a6,a6,a3
20005fe4:	01059833          	sll	a6,a1,a6
20005fe8:	00c86833          	or	a6,a6,a2
20005fec:	01003833          	snez	a6,a6
20005ff0:	01076733          	or	a4,a4,a6
20005ff4:	00000693          	li	a3,0
20005ff8:	f8dff06f          	j	20005f84 <__subdf3+0x55c>
20005ffc:	00c5e733          	or	a4,a1,a2
20006000:	00e03733          	snez	a4,a4
20006004:	ff1ff06f          	j	20005ff4 <__subdf3+0x5cc>
20006008:	12070263          	beqz	a4,2000612c <__subdf3+0x704>
2000600c:	41388733          	sub	a4,a7,s3
20006010:	0a099663          	bnez	s3,200060bc <__subdf3+0x694>
20006014:	00a7e333          	or	t1,a5,a0
20006018:	02031463          	bnez	t1,20006040 <__subdf3+0x618>
2000601c:	01071e63          	bne	a4,a6,20006038 <__subdf3+0x610>
20006020:	00c5e7b3          	or	a5,a1,a2
20006024:	48078663          	beqz	a5,200064b0 <__subdf3+0xa88>
20006028:	0165d993          	srli	s3,a1,0x16
2000602c:	0019f993          	andi	s3,s3,1
20006030:	0019c993          	xori	s3,s3,1
20006034:	00499993          	slli	s3,s3,0x4
20006038:	00068493          	mv	s1,a3
2000603c:	c01ff06f          	j	20005c3c <__subdf3+0x214>
20006040:	fff70313          	addi	t1,a4,-1
20006044:	02031063          	bnez	t1,20006064 <__subdf3+0x63c>
20006048:	40a60533          	sub	a0,a2,a0
2000604c:	00a63733          	sltu	a4,a2,a0
20006050:	40f585b3          	sub	a1,a1,a5
20006054:	00050613          	mv	a2,a0
20006058:	40e587b3          	sub	a5,a1,a4
2000605c:	00068493          	mv	s1,a3
20006060:	ee5ff06f          	j	20005f44 <__subdf3+0x51c>
20006064:	fb070ee3          	beq	a4,a6,20006020 <__subdf3+0x5f8>
20006068:	03800713          	li	a4,56
2000606c:	0a674a63          	blt	a4,t1,20006120 <__subdf3+0x6f8>
20006070:	01f00713          	li	a4,31
20006074:	02000e13          	li	t3,32
20006078:	06674c63          	blt	a4,t1,200060f0 <__subdf3+0x6c8>
2000607c:	406e0e33          	sub	t3,t3,t1
20006080:	01c79733          	sll	a4,a5,t3
20006084:	00655833          	srl	a6,a0,t1
20006088:	01c51e33          	sll	t3,a0,t3
2000608c:	01076733          	or	a4,a4,a6
20006090:	01c03e33          	snez	t3,t3
20006094:	01c76733          	or	a4,a4,t3
20006098:	0067d333          	srl	t1,a5,t1
2000609c:	40e60733          	sub	a4,a2,a4
200060a0:	00e637b3          	sltu	a5,a2,a4
200060a4:	40658333          	sub	t1,a1,t1
200060a8:	00070613          	mv	a2,a4
200060ac:	40f307b3          	sub	a5,t1,a5
200060b0:	00088713          	mv	a4,a7
200060b4:	00068493          	mv	s1,a3
200060b8:	ee1ff06f          	j	20005f98 <__subdf3+0x570>
200060bc:	03089263          	bne	a7,a6,200060e0 <__subdf3+0x6b8>
200060c0:	00c5e7b3          	or	a5,a1,a2
200060c4:	3e078a63          	beqz	a5,200064b8 <__subdf3+0xa90>
200060c8:	0165d993          	srli	s3,a1,0x16
200060cc:	0019f993          	andi	s3,s3,1
200060d0:	0019c993          	xori	s3,s3,1
200060d4:	00499993          	slli	s3,s3,0x4
200060d8:	00068493          	mv	s1,a3
200060dc:	b99ff06f          	j	20005c74 <__subdf3+0x24c>
200060e0:	00800837          	lui	a6,0x800
200060e4:	0107e7b3          	or	a5,a5,a6
200060e8:	00070313          	mv	t1,a4
200060ec:	f7dff06f          	j	20006068 <__subdf3+0x640>
200060f0:	fe030713          	addi	a4,t1,-32
200060f4:	00e7d733          	srl	a4,a5,a4
200060f8:	00000813          	li	a6,0
200060fc:	01c30863          	beq	t1,t3,2000610c <__subdf3+0x6e4>
20006100:	04000813          	li	a6,64
20006104:	40680833          	sub	a6,a6,t1
20006108:	01079833          	sll	a6,a5,a6
2000610c:	00a86833          	or	a6,a6,a0
20006110:	01003833          	snez	a6,a6
20006114:	01076733          	or	a4,a4,a6
20006118:	00000313          	li	t1,0
2000611c:	f81ff06f          	j	2000609c <__subdf3+0x674>
20006120:	00a7e733          	or	a4,a5,a0
20006124:	00e03733          	snez	a4,a4
20006128:	ff1ff06f          	j	20006118 <__subdf3+0x6f0>
2000612c:	00198313          	addi	t1,s3,1
20006130:	7fe37313          	andi	t1,t1,2046
20006134:	0e031a63          	bnez	t1,20006228 <__subdf3+0x800>
20006138:	00c5e333          	or	t1,a1,a2
2000613c:	00a7ee33          	or	t3,a5,a0
20006140:	06099863          	bnez	s3,200061b0 <__subdf3+0x788>
20006144:	000e1e63          	bnez	t3,20006160 <__subdf3+0x738>
20006148:	26031a63          	bnez	t1,200063bc <__subdf3+0x994>
2000614c:	ffe90793          	addi	a5,s2,-2 # 7ffffe <_start-0x1f800002>
20006150:	0017b493          	seqz	s1,a5
20006154:	00000793          	li	a5,0
20006158:	00000613          	li	a2,0
2000615c:	bfdff06f          	j	20005d58 <__subdf3+0x330>
20006160:	26030263          	beqz	t1,200063c4 <__subdf3+0x99c>
20006164:	40c508b3          	sub	a7,a0,a2
20006168:	01153333          	sltu	t1,a0,a7
2000616c:	40b78833          	sub	a6,a5,a1
20006170:	40680833          	sub	a6,a6,t1
20006174:	00881313          	slli	t1,a6,0x8
20006178:	02035063          	bgez	t1,20006198 <__subdf3+0x770>
2000617c:	40a60533          	sub	a0,a2,a0
20006180:	00a63733          	sltu	a4,a2,a0
20006184:	40f585b3          	sub	a1,a1,a5
20006188:	00050613          	mv	a2,a0
2000618c:	40e587b3          	sub	a5,a1,a4
20006190:	00068493          	mv	s1,a3
20006194:	1240006f          	j	200062b8 <__subdf3+0x890>
20006198:	0108e633          	or	a2,a7,a6
2000619c:	22061863          	bnez	a2,200063cc <__subdf3+0x9a4>
200061a0:	ffe90793          	addi	a5,s2,-2
200061a4:	0017b493          	seqz	s1,a5
200061a8:	00000793          	li	a5,0
200061ac:	badff06f          	j	20005d58 <__subdf3+0x330>
200061b0:	03099a63          	bne	s3,a6,200061e4 <__subdf3+0x7bc>
200061b4:	320e0063          	beqz	t3,200064d4 <__subdf3+0xaac>
200061b8:	0167d993          	srli	s3,a5,0x16
200061bc:	0019f993          	andi	s3,s3,1
200061c0:	0019c993          	xori	s3,s3,1
200061c4:	00499993          	slli	s3,s3,0x4
200061c8:	05089663          	bne	a7,a6,20006214 <__subdf3+0x7ec>
200061cc:	02030063          	beqz	t1,200061ec <__subdf3+0x7c4>
200061d0:	00959713          	slli	a4,a1,0x9
200061d4:	00074c63          	bltz	a4,200061ec <__subdf3+0x7c4>
200061d8:	01000993          	li	s3,16
200061dc:	ee0e0ee3          	beqz	t3,200060d8 <__subdf3+0x6b0>
200061e0:	0380006f          	j	20006218 <__subdf3+0x7f0>
200061e4:	00000993          	li	s3,0
200061e8:	ff0882e3          	beq	a7,a6,200061cc <__subdf3+0x7a4>
200061ec:	020e1463          	bnez	t3,20006214 <__subdf3+0x7ec>
200061f0:	ee0314e3          	bnez	t1,200060d8 <__subdf3+0x6b0>
200061f4:	00000493          	li	s1,0
200061f8:	00000613          	li	a2,0
200061fc:	004007b7          	lui	a5,0x400
20006200:	7ff00713          	li	a4,2047
20006204:	01000993          	li	s3,16
20006208:	b51ff06f          	j	20005d58 <__subdf3+0x330>
2000620c:	00000993          	li	s3,0
20006210:	fbdff06f          	j	200061cc <__subdf3+0x7a4>
20006214:	c00304e3          	beqz	t1,20005e1c <__subdf3+0x3f4>
20006218:	00000493          	li	s1,0
2000621c:	004007b7          	lui	a5,0x400
20006220:	00000613          	li	a2,0
20006224:	bfdff06f          	j	20005e20 <__subdf3+0x3f8>
20006228:	40c50833          	sub	a6,a0,a2
2000622c:	010538b3          	sltu	a7,a0,a6
20006230:	40b78433          	sub	s0,a5,a1
20006234:	41140433          	sub	s0,s0,a7
20006238:	00841893          	slli	a7,s0,0x8
2000623c:	00080a13          	mv	s4,a6
20006240:	0e08da63          	bgez	a7,20006334 <__subdf3+0x90c>
20006244:	40a60a33          	sub	s4,a2,a0
20006248:	40f58433          	sub	s0,a1,a5
2000624c:	01463633          	sltu	a2,a2,s4
20006250:	40c40433          	sub	s0,s0,a2
20006254:	00068493          	mv	s1,a3
20006258:	0e040a63          	beqz	s0,2000634c <__subdf3+0x924>
2000625c:	00040513          	mv	a0,s0
20006260:	604000ef          	jal	20006864 <__clzsi2>
20006264:	ff850713          	addi	a4,a0,-8
20006268:	02000793          	li	a5,32
2000626c:	40e787b3          	sub	a5,a5,a4
20006270:	00e41433          	sll	s0,s0,a4
20006274:	00fa57b3          	srl	a5,s4,a5
20006278:	0087e7b3          	or	a5,a5,s0
2000627c:	00ea1433          	sll	s0,s4,a4
20006280:	11374e63          	blt	a4,s3,2000639c <__subdf3+0x974>
20006284:	41370733          	sub	a4,a4,s3
20006288:	00170593          	addi	a1,a4,1
2000628c:	01f00613          	li	a2,31
20006290:	02000693          	li	a3,32
20006294:	0cb64c63          	blt	a2,a1,2000636c <__subdf3+0x944>
20006298:	40b686b3          	sub	a3,a3,a1
2000629c:	00d79633          	sll	a2,a5,a3
200062a0:	00b45733          	srl	a4,s0,a1
200062a4:	00d416b3          	sll	a3,s0,a3
200062a8:	00e66633          	or	a2,a2,a4
200062ac:	00d036b3          	snez	a3,a3
200062b0:	00d66633          	or	a2,a2,a3
200062b4:	00b7d7b3          	srl	a5,a5,a1
200062b8:	00c7e733          	or	a4,a5,a2
200062bc:	20070663          	beqz	a4,200064c8 <__subdf3+0xaa0>
200062c0:	01f65713          	srli	a4,a2,0x1f
200062c4:	00179693          	slli	a3,a5,0x1
200062c8:	00e686b3          	add	a3,a3,a4
200062cc:	00161713          	slli	a4,a2,0x1
200062d0:	00777593          	andi	a1,a4,7
200062d4:	00000993          	li	s3,0
200062d8:	02058a63          	beqz	a1,2000630c <__subdf3+0x8e4>
200062dc:	00200593          	li	a1,2
200062e0:	10b90a63          	beq	s2,a1,200063f4 <__subdf3+0x9cc>
200062e4:	00300593          	li	a1,3
200062e8:	0eb90863          	beq	s2,a1,200063d8 <__subdf3+0x9b0>
200062ec:	00100993          	li	s3,1
200062f0:	00091e63          	bnez	s2,2000630c <__subdf3+0x8e4>
200062f4:	00f77593          	andi	a1,a4,15
200062f8:	00400513          	li	a0,4
200062fc:	00a58863          	beq	a1,a0,2000630c <__subdf3+0x8e4>
20006300:	ffc73713          	sltiu	a4,a4,-4
20006304:	00173713          	seqz	a4,a4
20006308:	00e686b3          	add	a3,a3,a4
2000630c:	0186d693          	srli	a3,a3,0x18
20006310:	0016f693          	andi	a3,a3,1
20006314:	0016c693          	xori	a3,a3,1
20006318:	00000713          	li	a4,0
2000631c:	00767593          	andi	a1,a2,7
20006320:	b80582e3          	beqz	a1,20005ea4 <__subdf3+0x47c>
20006324:	00200593          	li	a1,2
20006328:	0eb90a63          	beq	s2,a1,2000641c <__subdf3+0x9f4>
2000632c:	00100993          	li	s3,1
20006330:	b4dff06f          	j	20005e7c <__subdf3+0x454>
20006334:	00886633          	or	a2,a6,s0
20006338:	f20610e3          	bnez	a2,20006258 <__subdf3+0x830>
2000633c:	ffe90793          	addi	a5,s2,-2
20006340:	0017b493          	seqz	s1,a5
20006344:	00000793          	li	a5,0
20006348:	f80ff06f          	j	20005ac8 <__subdf3+0xa0>
2000634c:	000a0513          	mv	a0,s4
20006350:	514000ef          	jal	20006864 <__clzsi2>
20006354:	01850713          	addi	a4,a0,24
20006358:	01f00793          	li	a5,31
2000635c:	f0e7d6e3          	bge	a5,a4,20006268 <__subdf3+0x840>
20006360:	ff850793          	addi	a5,a0,-8
20006364:	00fa17b3          	sll	a5,s4,a5
20006368:	f19ff06f          	j	20006280 <__subdf3+0x858>
2000636c:	fe170713          	addi	a4,a4,-31
20006370:	00e7d733          	srl	a4,a5,a4
20006374:	00000613          	li	a2,0
20006378:	00d58863          	beq	a1,a3,20006388 <__subdf3+0x960>
2000637c:	04000613          	li	a2,64
20006380:	40b60633          	sub	a2,a2,a1
20006384:	00c79633          	sll	a2,a5,a2
20006388:	00c46633          	or	a2,s0,a2
2000638c:	00c03633          	snez	a2,a2
20006390:	00c76633          	or	a2,a4,a2
20006394:	00000793          	li	a5,0
20006398:	f21ff06f          	j	200062b8 <__subdf3+0x890>
2000639c:	ff8006b7          	lui	a3,0xff800
200063a0:	fff68693          	addi	a3,a3,-1 # ff7fffff <__stack_top+0xdf7f60fb>
200063a4:	40e98733          	sub	a4,s3,a4
200063a8:	00d7f7b3          	and	a5,a5,a3
200063ac:	00040613          	mv	a2,s0
200063b0:	a9dff06f          	j	20005e4c <__subdf3+0x424>
200063b4:	00058793          	mv	a5,a1
200063b8:	f01ff06f          	j	200062b8 <__subdf3+0x890>
200063bc:	00058793          	mv	a5,a1
200063c0:	dd1ff06f          	j	20006190 <__subdf3+0x768>
200063c4:	00050613          	mv	a2,a0
200063c8:	ef1ff06f          	j	200062b8 <__subdf3+0x890>
200063cc:	00080793          	mv	a5,a6
200063d0:	00088613          	mv	a2,a7
200063d4:	ee5ff06f          	j	200062b8 <__subdf3+0x890>
200063d8:	00048993          	mv	s3,s1
200063dc:	f20498e3          	bnez	s1,2000630c <__subdf3+0x8e4>
200063e0:	ff873713          	sltiu	a4,a4,-8
200063e4:	00173713          	seqz	a4,a4
200063e8:	00e686b3          	add	a3,a3,a4
200063ec:	00100993          	li	s3,1
200063f0:	f1dff06f          	j	2000630c <__subdf3+0x8e4>
200063f4:	00100993          	li	s3,1
200063f8:	f0048ae3          	beqz	s1,2000630c <__subdf3+0x8e4>
200063fc:	ff873713          	sltiu	a4,a4,-8
20006400:	00173713          	seqz	a4,a4
20006404:	00e686b3          	add	a3,a3,a4
20006408:	00048993          	mv	s3,s1
2000640c:	f01ff06f          	j	2000630c <__subdf3+0x8e4>
20006410:	a8049ae3          	bnez	s1,20005ea4 <__subdf3+0x47c>
20006414:	00860593          	addi	a1,a2,8 # 10008 <_start-0x1ffefff8>
20006418:	a81ff06f          	j	20005e98 <__subdf3+0x470>
2000641c:	00048593          	mv	a1,s1
20006420:	00100993          	li	s3,1
20006424:	00068493          	mv	s1,a3
20006428:	ae0584e3          	beqz	a1,20005f10 <__subdf3+0x4e8>
2000642c:	00860513          	addi	a0,a2,8
20006430:	00c53833          	sltu	a6,a0,a2
20006434:	010787b3          	add	a5,a5,a6
20006438:	00050613          	mv	a2,a0
2000643c:	00058493          	mv	s1,a1
20006440:	a65ff06f          	j	20005ea4 <__subdf3+0x47c>
20006444:	fff00793          	li	a5,-1
20006448:	7fe00713          	li	a4,2046
2000644c:	00078613          	mv	a2,a5
20006450:	00500993          	li	s3,5
20006454:	a61ff06f          	j	20005eb4 <__subdf3+0x48c>
20006458:	00000613          	li	a2,0
2000645c:	02090663          	beqz	s2,20006488 <__subdf3+0xa60>
20006460:	00300793          	li	a5,3
20006464:	00f91a63          	bne	s2,a5,20006478 <__subdf3+0xa50>
20006468:	02048063          	beqz	s1,20006488 <__subdf3+0xa60>
2000646c:	fff00613          	li	a2,-1
20006470:	7fe00713          	li	a4,2046
20006474:	0140006f          	j	20006488 <__subdf3+0xa60>
20006478:	ffe90793          	addi	a5,s2,-2
2000647c:	fe0798e3          	bnez	a5,2000646c <__subdf3+0xa44>
20006480:	0014f793          	andi	a5,s1,1
20006484:	fe0784e3          	beqz	a5,2000646c <__subdf3+0xa44>
20006488:	0059e993          	ori	s3,s3,5
2000648c:	00060793          	mv	a5,a2
20006490:	8c9ff06f          	j	20005d58 <__subdf3+0x330>
20006494:	00000793          	li	a5,0
20006498:	00000613          	li	a2,0
2000649c:	00500993          	li	s3,5
200064a0:	8b9ff06f          	j	20005d58 <__subdf3+0x330>
200064a4:	00000793          	li	a5,0
200064a8:	00098713          	mv	a4,s3
200064ac:	e1cff06f          	j	20005ac8 <__subdf3+0xa0>
200064b0:	00068493          	mv	s1,a3
200064b4:	ca5ff06f          	j	20006158 <__subdf3+0x730>
200064b8:	00068493          	mv	s1,a3
200064bc:	00000613          	li	a2,0
200064c0:	00088713          	mv	a4,a7
200064c4:	e04ff06f          	j	20005ac8 <__subdf3+0xa0>
200064c8:	00000793          	li	a5,0
200064cc:	00000613          	li	a2,0
200064d0:	df8ff06f          	j	20005ac8 <__subdf3+0xa0>
200064d4:	d3388ce3          	beq	a7,s3,2000620c <__subdf3+0x7e4>
200064d8:	00000993          	li	s3,0
200064dc:	d15ff06f          	j	200061f0 <__subdf3+0x7c8>

200064e0 <__floatsidf>:
200064e0:	ff010113          	addi	sp,sp,-16
200064e4:	00112623          	sw	ra,12(sp)
200064e8:	00812423          	sw	s0,8(sp)
200064ec:	00912223          	sw	s1,4(sp)
200064f0:	00050793          	mv	a5,a0
200064f4:	08050063          	beqz	a0,20006574 <__floatsidf+0x94>
200064f8:	41f55713          	srai	a4,a0,0x1f
200064fc:	00a74433          	xor	s0,a4,a0
20006500:	40e40433          	sub	s0,s0,a4
20006504:	01f55493          	srli	s1,a0,0x1f
20006508:	00040513          	mv	a0,s0
2000650c:	358000ef          	jal	20006864 <__clzsi2>
20006510:	41e00793          	li	a5,1054
20006514:	00a00713          	li	a4,10
20006518:	40a787b3          	sub	a5,a5,a0
2000651c:	04a74463          	blt	a4,a0,20006564 <__floatsidf+0x84>
20006520:	00b00713          	li	a4,11
20006524:	40a70733          	sub	a4,a4,a0
20006528:	01550513          	addi	a0,a0,21
2000652c:	00e45733          	srl	a4,s0,a4
20006530:	00a41433          	sll	s0,s0,a0
20006534:	00c12083          	lw	ra,12(sp)
20006538:	00040513          	mv	a0,s0
2000653c:	00c71713          	slli	a4,a4,0xc
20006540:	00812403          	lw	s0,8(sp)
20006544:	01479793          	slli	a5,a5,0x14
20006548:	00c75713          	srli	a4,a4,0xc
2000654c:	01f49493          	slli	s1,s1,0x1f
20006550:	00e7e7b3          	or	a5,a5,a4
20006554:	0097e5b3          	or	a1,a5,s1
20006558:	00412483          	lw	s1,4(sp)
2000655c:	01010113          	addi	sp,sp,16
20006560:	00008067          	ret
20006564:	ff550513          	addi	a0,a0,-11
20006568:	00a41733          	sll	a4,s0,a0
2000656c:	00000413          	li	s0,0
20006570:	fc5ff06f          	j	20006534 <__floatsidf+0x54>
20006574:	00000493          	li	s1,0
20006578:	00000713          	li	a4,0
2000657c:	ff1ff06f          	j	2000656c <__floatsidf+0x8c>

20006580 <__truncdfsf2>:
20006580:	00202873          	frrm	a6
20006584:	00c59713          	slli	a4,a1,0xc
20006588:	0145d313          	srli	t1,a1,0x14
2000658c:	00975793          	srli	a5,a4,0x9
20006590:	7ff37313          	andi	t1,t1,2047
20006594:	01d55713          	srli	a4,a0,0x1d
20006598:	00f76733          	or	a4,a4,a5
2000659c:	00130793          	addi	a5,t1,1
200065a0:	7fe7f893          	andi	a7,a5,2046
200065a4:	01f5d613          	srli	a2,a1,0x1f
200065a8:	00351693          	slli	a3,a0,0x3
200065ac:	14088a63          	beqz	a7,20006700 <__truncdfsf2+0x180>
200065b0:	c8030e13          	addi	t3,t1,-896
200065b4:	0fe00593          	li	a1,254
200065b8:	07c5dc63          	bge	a1,t3,20006630 <__truncdfsf2+0xb0>
200065bc:	28080c63          	beqz	a6,20006854 <__truncdfsf2+0x2d4>
200065c0:	00300793          	li	a5,3
200065c4:	02f81c63          	bne	a6,a5,200065fc <__truncdfsf2+0x7c>
200065c8:	28060663          	beqz	a2,20006854 <__truncdfsf2+0x2d4>
200065cc:	fff00793          	li	a5,-1
200065d0:	00000713          	li	a4,0
200065d4:	00058e13          	mv	t3,a1
200065d8:	00500893          	li	a7,5
200065dc:	00300693          	li	a3,3
200065e0:	20d80263          	beq	a6,a3,200067e4 <__truncdfsf2+0x264>
200065e4:	18081463          	bnez	a6,2000676c <__truncdfsf2+0x1ec>
200065e8:	00f7f693          	andi	a3,a5,15
200065ec:	00400593          	li	a1,4
200065f0:	16b68e63          	beq	a3,a1,2000676c <__truncdfsf2+0x1ec>
200065f4:	00b787b3          	add	a5,a5,a1
200065f8:	1740006f          	j	2000676c <__truncdfsf2+0x1ec>
200065fc:	ffe80793          	addi	a5,a6,-2 # 7ffffe <_start-0x1f800002>
20006600:	00079463          	bnez	a5,20006608 <__truncdfsf2+0x88>
20006604:	24061863          	bnez	a2,20006854 <__truncdfsf2+0x2d4>
20006608:	fff00793          	li	a5,-1
2000660c:	00000713          	li	a4,0
20006610:	00500893          	li	a7,5
20006614:	0fe00e13          	li	t3,254
20006618:	00200693          	li	a3,2
2000661c:	0018e893          	ori	a7,a7,1
20006620:	fad81ee3          	bne	a6,a3,200065dc <__truncdfsf2+0x5c>
20006624:	00361693          	slli	a3,a2,0x3
20006628:	00d787b3          	add	a5,a5,a3
2000662c:	1400006f          	j	2000676c <__truncdfsf2+0x1ec>
20006630:	0bc04663          	bgtz	t3,200066dc <__truncdfsf2+0x15c>
20006634:	fe900593          	li	a1,-23
20006638:	00100793          	li	a5,1
2000663c:	02be4c63          	blt	t3,a1,20006674 <__truncdfsf2+0xf4>
20006640:	008007b7          	lui	a5,0x800
20006644:	00f76733          	or	a4,a4,a5
20006648:	fff00793          	li	a5,-1
2000664c:	06fe4263          	blt	t3,a5,200066b0 <__truncdfsf2+0x130>
20006650:	01e00793          	li	a5,30
20006654:	c8230593          	addi	a1,t1,-894
20006658:	41c787b3          	sub	a5,a5,t3
2000665c:	00f6d7b3          	srl	a5,a3,a5
20006660:	00b696b3          	sll	a3,a3,a1
20006664:	00d036b3          	snez	a3,a3
20006668:	00b71733          	sll	a4,a4,a1
2000666c:	00e6e6b3          	or	a3,a3,a4
20006670:	00d7e7b3          	or	a5,a5,a3
20006674:	00179713          	slli	a4,a5,0x1
20006678:	00777693          	andi	a3,a4,7
2000667c:	14068663          	beqz	a3,200067c8 <__truncdfsf2+0x248>
20006680:	00200693          	li	a3,2
20006684:	12d80863          	beq	a6,a3,200067b4 <__truncdfsf2+0x234>
20006688:	00300693          	li	a3,3
2000668c:	0ad80e63          	beq	a6,a3,20006748 <__truncdfsf2+0x1c8>
20006690:	12081463          	bnez	a6,200067b8 <__truncdfsf2+0x238>
20006694:	00f77693          	andi	a3,a4,15
20006698:	00400593          	li	a1,4
2000669c:	00b70733          	add	a4,a4,a1
200066a0:	0ab69863          	bne	a3,a1,20006750 <__truncdfsf2+0x1d0>
200066a4:	00000e13          	li	t3,0
200066a8:	00100713          	li	a4,1
200066ac:	0b40006f          	j	20006760 <__truncdfsf2+0x1e0>
200066b0:	ffe00593          	li	a1,-2
200066b4:	41c587b3          	sub	a5,a1,t3
200066b8:	00f757b3          	srl	a5,a4,a5
200066bc:	00000513          	li	a0,0
200066c0:	00be0663          	beq	t3,a1,200066cc <__truncdfsf2+0x14c>
200066c4:	ca230513          	addi	a0,t1,-862
200066c8:	00a71533          	sll	a0,a4,a0
200066cc:	00d56533          	or	a0,a0,a3
200066d0:	00a03533          	snez	a0,a0
200066d4:	00a7e7b3          	or	a5,a5,a0
200066d8:	f9dff06f          	j	20006674 <__truncdfsf2+0xf4>
200066dc:	00651793          	slli	a5,a0,0x6
200066e0:	00371713          	slli	a4,a4,0x3
200066e4:	00f037b3          	snez	a5,a5
200066e8:	00e7e7b3          	or	a5,a5,a4
200066ec:	01d6d693          	srli	a3,a3,0x1d
200066f0:	00d7e7b3          	or	a5,a5,a3
200066f4:	00000713          	li	a4,0
200066f8:	00000893          	li	a7,0
200066fc:	0680006f          	j	20006764 <__truncdfsf2+0x1e4>
20006700:	00d767b3          	or	a5,a4,a3
20006704:	00031863          	bnez	t1,20006714 <__truncdfsf2+0x194>
20006708:	08078263          	beqz	a5,2000678c <__truncdfsf2+0x20c>
2000670c:	00100793          	li	a5,1
20006710:	f65ff06f          	j	20006674 <__truncdfsf2+0xf4>
20006714:	14078463          	beqz	a5,2000685c <__truncdfsf2+0x2dc>
20006718:	7ff00793          	li	a5,2047
2000671c:	00f31863          	bne	t1,a5,2000672c <__truncdfsf2+0x1ac>
20006720:	01675793          	srli	a5,a4,0x16
20006724:	0017c793          	xori	a5,a5,1
20006728:	00479893          	slli	a7,a5,0x4
2000672c:	004007b7          	lui	a5,0x400
20006730:	00f767b3          	or	a5,a4,a5
20006734:	12078463          	beqz	a5,2000685c <__truncdfsf2+0x2dc>
20006738:	00000613          	li	a2,0
2000673c:	0ff00313          	li	t1,255
20006740:	004007b7          	lui	a5,0x400
20006744:	0480006f          	j	2000678c <__truncdfsf2+0x20c>
20006748:	08061663          	bnez	a2,200067d4 <__truncdfsf2+0x254>
2000674c:	00870713          	addi	a4,a4,8
20006750:	01b75713          	srli	a4,a4,0x1b
20006754:	00177713          	andi	a4,a4,1
20006758:	00174713          	xori	a4,a4,1
2000675c:	00000e13          	li	t3,0
20006760:	00100893          	li	a7,1
20006764:	0077f693          	andi	a3,a5,7
20006768:	ea0698e3          	bnez	a3,20006618 <__truncdfsf2+0x98>
2000676c:	00070863          	beqz	a4,2000677c <__truncdfsf2+0x1fc>
20006770:	0018f713          	andi	a4,a7,1
20006774:	00171713          	slli	a4,a4,0x1
20006778:	00e8e8b3          	or	a7,a7,a4
2000677c:	00579713          	slli	a4,a5,0x5
20006780:	06074863          	bltz	a4,200067f0 <__truncdfsf2+0x270>
20006784:	0037d793          	srli	a5,a5,0x3
20006788:	000e0313          	mv	t1,t3
2000678c:	00979793          	slli	a5,a5,0x9
20006790:	0097d793          	srli	a5,a5,0x9
20006794:	01731593          	slli	a1,t1,0x17
20006798:	00f5e5b3          	or	a1,a1,a5
2000679c:	01f61793          	slli	a5,a2,0x1f
200067a0:	00f5e5b3          	or	a1,a1,a5
200067a4:	00088463          	beqz	a7,200067ac <__truncdfsf2+0x22c>
200067a8:	0018a073          	csrs	fflags,a7
200067ac:	f0058553          	fmv.w.x	fa0,a1
200067b0:	00008067          	ret
200067b4:	f8061ce3          	bnez	a2,2000674c <__truncdfsf2+0x1cc>
200067b8:	00100713          	li	a4,1
200067bc:	00000e13          	li	t3,0
200067c0:	00070893          	mv	a7,a4
200067c4:	fa1ff06f          	j	20006764 <__truncdfsf2+0x1e4>
200067c8:	00000e13          	li	t3,0
200067cc:	00100713          	li	a4,1
200067d0:	f29ff06f          	j	200066f8 <__truncdfsf2+0x178>
200067d4:	00060713          	mv	a4,a2
200067d8:	00060893          	mv	a7,a2
200067dc:	00000e13          	li	t3,0
200067e0:	f85ff06f          	j	20006764 <__truncdfsf2+0x1e4>
200067e4:	f80614e3          	bnez	a2,2000676c <__truncdfsf2+0x1ec>
200067e8:	00878793          	addi	a5,a5,8 # 400008 <_start-0x1fbffff8>
200067ec:	f81ff06f          	j	2000676c <__truncdfsf2+0x1ec>
200067f0:	001e0313          	addi	t1,t3,1 # 1000001 <_start-0x1effffff>
200067f4:	0ff00713          	li	a4,255
200067f8:	00e30c63          	beq	t1,a4,20006810 <__truncdfsf2+0x290>
200067fc:	1f800737          	lui	a4,0x1f800
20006800:	0037d793          	srli	a5,a5,0x3
20006804:	fff70713          	addi	a4,a4,-1 # 1f7fffff <_start-0x800001>
20006808:	00e7f7b3          	and	a5,a5,a4
2000680c:	f81ff06f          	j	2000678c <__truncdfsf2+0x20c>
20006810:	00000793          	li	a5,0
20006814:	02080463          	beqz	a6,2000683c <__truncdfsf2+0x2bc>
20006818:	00300713          	li	a4,3
2000681c:	00e81a63          	bne	a6,a4,20006830 <__truncdfsf2+0x2b0>
20006820:	00060e63          	beqz	a2,2000683c <__truncdfsf2+0x2bc>
20006824:	fff00793          	li	a5,-1
20006828:	0fe00313          	li	t1,254
2000682c:	0100006f          	j	2000683c <__truncdfsf2+0x2bc>
20006830:	ffe80713          	addi	a4,a6,-2
20006834:	fe0718e3          	bnez	a4,20006824 <__truncdfsf2+0x2a4>
20006838:	fe0606e3          	beqz	a2,20006824 <__truncdfsf2+0x2a4>
2000683c:	0ff00713          	li	a4,255
20006840:	0058e893          	ori	a7,a7,5
20006844:	0037d793          	srli	a5,a5,0x3
20006848:	eee306e3          	beq	t1,a4,20006734 <__truncdfsf2+0x1b4>
2000684c:	0fe00313          	li	t1,254
20006850:	f3dff06f          	j	2000678c <__truncdfsf2+0x20c>
20006854:	00000793          	li	a5,0
20006858:	00500893          	li	a7,5
2000685c:	0ff00313          	li	t1,255
20006860:	f2dff06f          	j	2000678c <__truncdfsf2+0x20c>

20006864 <__clzsi2>:
20006864:	000107b7          	lui	a5,0x10
20006868:	02f57a63          	bgeu	a0,a5,2000689c <__clzsi2+0x38>
2000686c:	10053793          	sltiu	a5,a0,256
20006870:	0017b793          	seqz	a5,a5
20006874:	00379793          	slli	a5,a5,0x3
20006878:	20009737          	lui	a4,0x20009
2000687c:	00f55533          	srl	a0,a0,a5
20006880:	cd870713          	addi	a4,a4,-808 # 20008cd8 <__clz_tab>
20006884:	00a70733          	add	a4,a4,a0
20006888:	00074503          	lbu	a0,0(a4)
2000688c:	02000693          	li	a3,32
20006890:	40f686b3          	sub	a3,a3,a5
20006894:	40a68533          	sub	a0,a3,a0
20006898:	00008067          	ret
2000689c:	01000737          	lui	a4,0x1000
200068a0:	01800793          	li	a5,24
200068a4:	fce57ae3          	bgeu	a0,a4,20006878 <__clzsi2+0x14>
200068a8:	01000793          	li	a5,16
200068ac:	fcdff06f          	j	20006878 <__clzsi2+0x14>

200068b0 <_iprintf_r>:
200068b0:	fc010113          	addi	sp,sp,-64
200068b4:	02c12423          	sw	a2,40(sp)
200068b8:	02d12623          	sw	a3,44(sp)
200068bc:	02e12823          	sw	a4,48(sp)
200068c0:	02f12a23          	sw	a5,52(sp)
200068c4:	03012c23          	sw	a6,56(sp)
200068c8:	03112e23          	sw	a7,60(sp)
200068cc:	00058613          	mv	a2,a1
200068d0:	00852583          	lw	a1,8(a0)
200068d4:	02810693          	addi	a3,sp,40
200068d8:	00112e23          	sw	ra,28(sp)
200068dc:	00d12623          	sw	a3,12(sp)
200068e0:	6b8000ef          	jal	20006f98 <_vfiprintf_r>
200068e4:	01c12083          	lw	ra,28(sp)
200068e8:	04010113          	addi	sp,sp,64
200068ec:	00008067          	ret

200068f0 <iprintf>:
200068f0:	fc010113          	addi	sp,sp,-64
200068f4:	02f12a23          	sw	a5,52(sp)
200068f8:	200097b7          	lui	a5,0x20009
200068fc:	17c7a783          	lw	a5,380(a5) # 2000917c <_impure_ptr>
20006900:	02c12423          	sw	a2,40(sp)
20006904:	02d12623          	sw	a3,44(sp)
20006908:	02b12223          	sw	a1,36(sp)
2000690c:	02e12823          	sw	a4,48(sp)
20006910:	03012c23          	sw	a6,56(sp)
20006914:	03112e23          	sw	a7,60(sp)
20006918:	0087a583          	lw	a1,8(a5)
2000691c:	02410693          	addi	a3,sp,36
20006920:	00050613          	mv	a2,a0
20006924:	00078513          	mv	a0,a5
20006928:	00112e23          	sw	ra,28(sp)
2000692c:	00d12623          	sw	a3,12(sp)
20006930:	668000ef          	jal	20006f98 <_vfiprintf_r>
20006934:	01c12083          	lw	ra,28(sp)
20006938:	04010113          	addi	sp,sp,64
2000693c:	00008067          	ret

20006940 <setvbuf>:
20006940:	fd010113          	addi	sp,sp,-48
20006944:	200097b7          	lui	a5,0x20009
20006948:	01312e23          	sw	s3,28(sp)
2000694c:	17c7a983          	lw	s3,380(a5) # 2000917c <_impure_ptr>
20006950:	02812423          	sw	s0,40(sp)
20006954:	02912223          	sw	s1,36(sp)
20006958:	03212023          	sw	s2,32(sp)
2000695c:	01412c23          	sw	s4,24(sp)
20006960:	02112623          	sw	ra,44(sp)
20006964:	01512a23          	sw	s5,20(sp)
20006968:	00050413          	mv	s0,a0
2000696c:	00058913          	mv	s2,a1
20006970:	00060a13          	mv	s4,a2
20006974:	00068493          	mv	s1,a3
20006978:	00098a63          	beqz	s3,2000698c <setvbuf+0x4c>
2000697c:	0209a783          	lw	a5,32(s3)
20006980:	00079663          	bnez	a5,2000698c <setvbuf+0x4c>
20006984:	00098513          	mv	a0,s3
20006988:	3d0010ef          	jal	20007d58 <__sinit>
2000698c:	00200793          	li	a5,2
20006990:	00fa0863          	beq	s4,a5,200069a0 <setvbuf+0x60>
20006994:	002a3793          	sltiu	a5,s4,2
20006998:	18078a63          	beqz	a5,20006b2c <setvbuf+0x1ec>
2000699c:	1804c863          	bltz	s1,20006b2c <setvbuf+0x1ec>
200069a0:	00040593          	mv	a1,s0
200069a4:	00098513          	mv	a0,s3
200069a8:	08c010ef          	jal	20007a34 <_fflush_r>
200069ac:	03442583          	lw	a1,52(s0)
200069b0:	00058c63          	beqz	a1,200069c8 <setvbuf+0x88>
200069b4:	04440793          	addi	a5,s0,68
200069b8:	00f58663          	beq	a1,a5,200069c4 <setvbuf+0x84>
200069bc:	00098513          	mv	a0,s3
200069c0:	180000ef          	jal	20006b40 <_free_r>
200069c4:	02042a23          	sw	zero,52(s0)
200069c8:	00c45783          	lhu	a5,12(s0)
200069cc:	00042c23          	sw	zero,24(s0)
200069d0:	00042223          	sw	zero,4(s0)
200069d4:	0807f793          	andi	a5,a5,128
200069d8:	00078863          	beqz	a5,200069e8 <setvbuf+0xa8>
200069dc:	01042583          	lw	a1,16(s0)
200069e0:	00098513          	mv	a0,s3
200069e4:	15c000ef          	jal	20006b40 <_free_r>
200069e8:	00c45783          	lhu	a5,12(s0)
200069ec:	fffff737          	lui	a4,0xfffff
200069f0:	35c70713          	addi	a4,a4,860 # fffff35c <__stack_top+0xdfff5458>
200069f4:	00e7f7b3          	and	a5,a5,a4
200069f8:	00f41623          	sh	a5,12(s0)
200069fc:	00200793          	li	a5,2
20006a00:	10fa0a63          	beq	s4,a5,20006b14 <setvbuf+0x1d4>
20006a04:	00c10693          	addi	a3,sp,12
20006a08:	00810613          	addi	a2,sp,8
20006a0c:	00040593          	mv	a1,s0
20006a10:	00098513          	mv	a0,s3
20006a14:	0ad010ef          	jal	200082c0 <__swhatbuf_r>
20006a18:	00c45783          	lhu	a5,12(s0)
20006a1c:	00a7e7b3          	or	a5,a5,a0
20006a20:	00f41623          	sh	a5,12(s0)
20006a24:	06049863          	bnez	s1,20006a94 <setvbuf+0x154>
20006a28:	00812483          	lw	s1,8(sp)
20006a2c:	00048513          	mv	a0,s1
20006a30:	20c000ef          	jal	20006c3c <malloc>
20006a34:	00050913          	mv	s2,a0
20006a38:	00048a93          	mv	s5,s1
20006a3c:	0c051263          	bnez	a0,20006b00 <setvbuf+0x1c0>
20006a40:	00812a83          	lw	s5,8(sp)
20006a44:	0a9a9663          	bne	s5,s1,20006af0 <setvbuf+0x1b0>
20006a48:	fff00513          	li	a0,-1
20006a4c:	00c45783          	lhu	a5,12(s0)
20006a50:	00042423          	sw	zero,8(s0)
20006a54:	0027e793          	ori	a5,a5,2
20006a58:	00f41623          	sh	a5,12(s0)
20006a5c:	04740793          	addi	a5,s0,71
20006a60:	00f42023          	sw	a5,0(s0)
20006a64:	00f42823          	sw	a5,16(s0)
20006a68:	00100793          	li	a5,1
20006a6c:	00f42a23          	sw	a5,20(s0)
20006a70:	02c12083          	lw	ra,44(sp)
20006a74:	02812403          	lw	s0,40(sp)
20006a78:	02412483          	lw	s1,36(sp)
20006a7c:	02012903          	lw	s2,32(sp)
20006a80:	01c12983          	lw	s3,28(sp)
20006a84:	01812a03          	lw	s4,24(sp)
20006a88:	01412a83          	lw	s5,20(sp)
20006a8c:	03010113          	addi	sp,sp,48
20006a90:	00008067          	ret
20006a94:	f8090ce3          	beqz	s2,20006a2c <setvbuf+0xec>
20006a98:	0209a783          	lw	a5,32(s3)
20006a9c:	00079663          	bnez	a5,20006aa8 <setvbuf+0x168>
20006aa0:	00098513          	mv	a0,s3
20006aa4:	2b4010ef          	jal	20007d58 <__sinit>
20006aa8:	00100793          	li	a5,1
20006aac:	00fa1863          	bne	s4,a5,20006abc <setvbuf+0x17c>
20006ab0:	00c45783          	lhu	a5,12(s0)
20006ab4:	0147e7b3          	or	a5,a5,s4
20006ab8:	00f41623          	sh	a5,12(s0)
20006abc:	00c41783          	lh	a5,12(s0)
20006ac0:	01242023          	sw	s2,0(s0)
20006ac4:	01242823          	sw	s2,16(s0)
20006ac8:	00942a23          	sw	s1,20(s0)
20006acc:	0087f713          	andi	a4,a5,8
20006ad0:	04070a63          	beqz	a4,20006b24 <setvbuf+0x1e4>
20006ad4:	0017f793          	andi	a5,a5,1
20006ad8:	04078263          	beqz	a5,20006b1c <setvbuf+0x1dc>
20006adc:	409004b3          	neg	s1,s1
20006ae0:	00042423          	sw	zero,8(s0)
20006ae4:	00942c23          	sw	s1,24(s0)
20006ae8:	00000513          	li	a0,0
20006aec:	f85ff06f          	j	20006a70 <setvbuf+0x130>
20006af0:	000a8513          	mv	a0,s5
20006af4:	148000ef          	jal	20006c3c <malloc>
20006af8:	00050913          	mv	s2,a0
20006afc:	f40506e3          	beqz	a0,20006a48 <setvbuf+0x108>
20006b00:	00c45783          	lhu	a5,12(s0)
20006b04:	000a8493          	mv	s1,s5
20006b08:	0807e793          	ori	a5,a5,128
20006b0c:	00f41623          	sh	a5,12(s0)
20006b10:	f89ff06f          	j	20006a98 <setvbuf+0x158>
20006b14:	00000513          	li	a0,0
20006b18:	f35ff06f          	j	20006a4c <setvbuf+0x10c>
20006b1c:	00942423          	sw	s1,8(s0)
20006b20:	fc9ff06f          	j	20006ae8 <setvbuf+0x1a8>
20006b24:	00042423          	sw	zero,8(s0)
20006b28:	fc1ff06f          	j	20006ae8 <setvbuf+0x1a8>
20006b2c:	fff00513          	li	a0,-1
20006b30:	f41ff06f          	j	20006a70 <setvbuf+0x130>

20006b34 <__errno>:
20006b34:	200097b7          	lui	a5,0x20009
20006b38:	17c7a503          	lw	a0,380(a5) # 2000917c <_impure_ptr>
20006b3c:	00008067          	ret

20006b40 <_free_r>:
20006b40:	0e058c63          	beqz	a1,20006c38 <_free_r+0xf8>
20006b44:	ffc5a783          	lw	a5,-4(a1)
20006b48:	fe010113          	addi	sp,sp,-32
20006b4c:	00812c23          	sw	s0,24(sp)
20006b50:	00112e23          	sw	ra,28(sp)
20006b54:	ffc58413          	addi	s0,a1,-4
20006b58:	0007d463          	bgez	a5,20006b60 <_free_r+0x20>
20006b5c:	00f40433          	add	s0,s0,a5
20006b60:	00a12623          	sw	a0,12(sp)
20006b64:	340000ef          	jal	20006ea4 <__malloc_lock>
20006b68:	20009737          	lui	a4,0x20009
20006b6c:	2f872783          	lw	a5,760(a4) # 200092f8 <__malloc_free_list>
20006b70:	00c12503          	lw	a0,12(sp)
20006b74:	00079e63          	bnez	a5,20006b90 <_free_r+0x50>
20006b78:	00042223          	sw	zero,4(s0)
20006b7c:	2e872c23          	sw	s0,760(a4)
20006b80:	01812403          	lw	s0,24(sp)
20006b84:	01c12083          	lw	ra,28(sp)
20006b88:	02010113          	addi	sp,sp,32
20006b8c:	31c0006f          	j	20006ea8 <__malloc_unlock>
20006b90:	02f47463          	bgeu	s0,a5,20006bb8 <_free_r+0x78>
20006b94:	00042603          	lw	a2,0(s0)
20006b98:	00c406b3          	add	a3,s0,a2
20006b9c:	00d79a63          	bne	a5,a3,20006bb0 <_free_r+0x70>
20006ba0:	0007a683          	lw	a3,0(a5)
20006ba4:	0047a783          	lw	a5,4(a5)
20006ba8:	00c686b3          	add	a3,a3,a2
20006bac:	00d42023          	sw	a3,0(s0)
20006bb0:	00f42223          	sw	a5,4(s0)
20006bb4:	fc9ff06f          	j	20006b7c <_free_r+0x3c>
20006bb8:	00078713          	mv	a4,a5
20006bbc:	0047a783          	lw	a5,4(a5)
20006bc0:	00078463          	beqz	a5,20006bc8 <_free_r+0x88>
20006bc4:	fef47ae3          	bgeu	s0,a5,20006bb8 <_free_r+0x78>
20006bc8:	00072683          	lw	a3,0(a4)
20006bcc:	00d70633          	add	a2,a4,a3
20006bd0:	02861863          	bne	a2,s0,20006c00 <_free_r+0xc0>
20006bd4:	00042603          	lw	a2,0(s0)
20006bd8:	00c686b3          	add	a3,a3,a2
20006bdc:	00d72023          	sw	a3,0(a4)
20006be0:	00d70633          	add	a2,a4,a3
20006be4:	f8c79ee3          	bne	a5,a2,20006b80 <_free_r+0x40>
20006be8:	0007a603          	lw	a2,0(a5)
20006bec:	0047a783          	lw	a5,4(a5)
20006bf0:	00d606b3          	add	a3,a2,a3
20006bf4:	00d72023          	sw	a3,0(a4)
20006bf8:	00f72223          	sw	a5,4(a4)
20006bfc:	f85ff06f          	j	20006b80 <_free_r+0x40>
20006c00:	00c47863          	bgeu	s0,a2,20006c10 <_free_r+0xd0>
20006c04:	00c00793          	li	a5,12
20006c08:	00f52023          	sw	a5,0(a0)
20006c0c:	f75ff06f          	j	20006b80 <_free_r+0x40>
20006c10:	00042603          	lw	a2,0(s0)
20006c14:	00c406b3          	add	a3,s0,a2
20006c18:	00d79a63          	bne	a5,a3,20006c2c <_free_r+0xec>
20006c1c:	0007a683          	lw	a3,0(a5)
20006c20:	0047a783          	lw	a5,4(a5)
20006c24:	00c686b3          	add	a3,a3,a2
20006c28:	00d42023          	sw	a3,0(s0)
20006c2c:	00f42223          	sw	a5,4(s0)
20006c30:	00872223          	sw	s0,4(a4)
20006c34:	f4dff06f          	j	20006b80 <_free_r+0x40>
20006c38:	00008067          	ret

20006c3c <malloc>:
20006c3c:	200097b7          	lui	a5,0x20009
20006c40:	00050593          	mv	a1,a0
20006c44:	17c7a503          	lw	a0,380(a5) # 2000917c <_impure_ptr>
20006c48:	09c0006f          	j	20006ce4 <_malloc_r>

20006c4c <free>:
20006c4c:	200097b7          	lui	a5,0x20009
20006c50:	00050593          	mv	a1,a0
20006c54:	17c7a503          	lw	a0,380(a5) # 2000917c <_impure_ptr>
20006c58:	ee9ff06f          	j	20006b40 <_free_r>

20006c5c <sbrk_aligned>:
20006c5c:	ff010113          	addi	sp,sp,-16
20006c60:	00812423          	sw	s0,8(sp)
20006c64:	20009437          	lui	s0,0x20009
20006c68:	2f442783          	lw	a5,756(s0) # 200092f4 <__malloc_sbrk_start>
20006c6c:	00912223          	sw	s1,4(sp)
20006c70:	01212023          	sw	s2,0(sp)
20006c74:	00112623          	sw	ra,12(sp)
20006c78:	00050913          	mv	s2,a0
20006c7c:	00058493          	mv	s1,a1
20006c80:	00079863          	bnez	a5,20006c90 <sbrk_aligned+0x34>
20006c84:	00000593          	li	a1,0
20006c88:	629010ef          	jal	20008ab0 <_sbrk_r>
20006c8c:	2ea42a23          	sw	a0,756(s0)
20006c90:	00048593          	mv	a1,s1
20006c94:	00090513          	mv	a0,s2
20006c98:	619010ef          	jal	20008ab0 <_sbrk_r>
20006c9c:	fff00493          	li	s1,-1
20006ca0:	02951263          	bne	a0,s1,20006cc4 <sbrk_aligned+0x68>
20006ca4:	fff00413          	li	s0,-1
20006ca8:	00c12083          	lw	ra,12(sp)
20006cac:	00040513          	mv	a0,s0
20006cb0:	00812403          	lw	s0,8(sp)
20006cb4:	00412483          	lw	s1,4(sp)
20006cb8:	00012903          	lw	s2,0(sp)
20006cbc:	01010113          	addi	sp,sp,16
20006cc0:	00008067          	ret
20006cc4:	00350413          	addi	s0,a0,3
20006cc8:	ffc47413          	andi	s0,s0,-4
20006ccc:	fc850ee3          	beq	a0,s0,20006ca8 <sbrk_aligned+0x4c>
20006cd0:	40a405b3          	sub	a1,s0,a0
20006cd4:	00090513          	mv	a0,s2
20006cd8:	5d9010ef          	jal	20008ab0 <_sbrk_r>
20006cdc:	fc9516e3          	bne	a0,s1,20006ca8 <sbrk_aligned+0x4c>
20006ce0:	fc5ff06f          	j	20006ca4 <sbrk_aligned+0x48>

20006ce4 <_malloc_r>:
20006ce4:	fe010113          	addi	sp,sp,-32
20006ce8:	00912a23          	sw	s1,20(sp)
20006cec:	00358493          	addi	s1,a1,3
20006cf0:	ffc4f493          	andi	s1,s1,-4
20006cf4:	00112e23          	sw	ra,28(sp)
20006cf8:	00812c23          	sw	s0,24(sp)
20006cfc:	01212823          	sw	s2,16(sp)
20006d00:	01312623          	sw	s3,12(sp)
20006d04:	01412423          	sw	s4,8(sp)
20006d08:	00848493          	addi	s1,s1,8
20006d0c:	00c00793          	li	a5,12
20006d10:	00f4f463          	bgeu	s1,a5,20006d18 <_malloc_r+0x34>
20006d14:	00078493          	mv	s1,a5
20006d18:	0004c463          	bltz	s1,20006d20 <_malloc_r+0x3c>
20006d1c:	02b4f863          	bgeu	s1,a1,20006d4c <_malloc_r+0x68>
20006d20:	00c00793          	li	a5,12
20006d24:	00f52023          	sw	a5,0(a0)
20006d28:	00000513          	li	a0,0
20006d2c:	01c12083          	lw	ra,28(sp)
20006d30:	01812403          	lw	s0,24(sp)
20006d34:	01412483          	lw	s1,20(sp)
20006d38:	01012903          	lw	s2,16(sp)
20006d3c:	00c12983          	lw	s3,12(sp)
20006d40:	00812a03          	lw	s4,8(sp)
20006d44:	02010113          	addi	sp,sp,32
20006d48:	00008067          	ret
20006d4c:	00050913          	mv	s2,a0
20006d50:	200099b7          	lui	s3,0x20009
20006d54:	150000ef          	jal	20006ea4 <__malloc_lock>
20006d58:	2f89a783          	lw	a5,760(s3) # 200092f8 <__malloc_free_list>
20006d5c:	00078413          	mv	s0,a5
20006d60:	08041063          	bnez	s0,20006de0 <_malloc_r+0xfc>
20006d64:	00048593          	mv	a1,s1
20006d68:	00090513          	mv	a0,s2
20006d6c:	ef1ff0ef          	jal	20006c5c <sbrk_aligned>
20006d70:	fff00793          	li	a5,-1
20006d74:	00050413          	mv	s0,a0
20006d78:	12f51263          	bne	a0,a5,20006e9c <_malloc_r+0x1b8>
20006d7c:	2f89a403          	lw	s0,760(s3)
20006d80:	00040793          	mv	a5,s0
20006d84:	0e079263          	bnez	a5,20006e68 <_malloc_r+0x184>
20006d88:	10040063          	beqz	s0,20006e88 <_malloc_r+0x1a4>
20006d8c:	00042a03          	lw	s4,0(s0)
20006d90:	00000593          	li	a1,0
20006d94:	00090513          	mv	a0,s2
20006d98:	01440a33          	add	s4,s0,s4
20006d9c:	515010ef          	jal	20008ab0 <_sbrk_r>
20006da0:	0eaa1463          	bne	s4,a0,20006e88 <_malloc_r+0x1a4>
20006da4:	00042783          	lw	a5,0(s0)
20006da8:	00090513          	mv	a0,s2
20006dac:	40f484b3          	sub	s1,s1,a5
20006db0:	00048593          	mv	a1,s1
20006db4:	ea9ff0ef          	jal	20006c5c <sbrk_aligned>
20006db8:	fff00793          	li	a5,-1
20006dbc:	0cf50663          	beq	a0,a5,20006e88 <_malloc_r+0x1a4>
20006dc0:	00042783          	lw	a5,0(s0)
20006dc4:	009787b3          	add	a5,a5,s1
20006dc8:	00f42023          	sw	a5,0(s0)
20006dcc:	2f89a783          	lw	a5,760(s3)
20006dd0:	0047a703          	lw	a4,4(a5)
20006dd4:	0a071063          	bnez	a4,20006e74 <_malloc_r+0x190>
20006dd8:	2e09ac23          	sw	zero,760(s3)
20006ddc:	0340006f          	j	20006e10 <_malloc_r+0x12c>
20006de0:	00042683          	lw	a3,0(s0)
20006de4:	409686b3          	sub	a3,a3,s1
20006de8:	0606ca63          	bltz	a3,20006e5c <_malloc_r+0x178>
20006dec:	00b00713          	li	a4,11
20006df0:	04d77a63          	bgeu	a4,a3,20006e44 <_malloc_r+0x160>
20006df4:	00942023          	sw	s1,0(s0)
20006df8:	00940733          	add	a4,s0,s1
20006dfc:	04879063          	bne	a5,s0,20006e3c <_malloc_r+0x158>
20006e00:	2ee9ac23          	sw	a4,760(s3)
20006e04:	00442783          	lw	a5,4(s0)
20006e08:	00d72023          	sw	a3,0(a4)
20006e0c:	00f72223          	sw	a5,4(a4)
20006e10:	00090513          	mv	a0,s2
20006e14:	094000ef          	jal	20006ea8 <__malloc_unlock>
20006e18:	00b40513          	addi	a0,s0,11
20006e1c:	00440793          	addi	a5,s0,4
20006e20:	ff857513          	andi	a0,a0,-8
20006e24:	40f50733          	sub	a4,a0,a5
20006e28:	f0f502e3          	beq	a0,a5,20006d2c <_malloc_r+0x48>
20006e2c:	00e40433          	add	s0,s0,a4
20006e30:	40a787b3          	sub	a5,a5,a0
20006e34:	00f42023          	sw	a5,0(s0)
20006e38:	ef5ff06f          	j	20006d2c <_malloc_r+0x48>
20006e3c:	00e7a223          	sw	a4,4(a5)
20006e40:	fc5ff06f          	j	20006e04 <_malloc_r+0x120>
20006e44:	00442703          	lw	a4,4(s0)
20006e48:	00879663          	bne	a5,s0,20006e54 <_malloc_r+0x170>
20006e4c:	2ee9ac23          	sw	a4,760(s3)
20006e50:	fc1ff06f          	j	20006e10 <_malloc_r+0x12c>
20006e54:	00e7a223          	sw	a4,4(a5)
20006e58:	fb9ff06f          	j	20006e10 <_malloc_r+0x12c>
20006e5c:	00040793          	mv	a5,s0
20006e60:	00442403          	lw	s0,4(s0)
20006e64:	efdff06f          	j	20006d60 <_malloc_r+0x7c>
20006e68:	00078413          	mv	s0,a5
20006e6c:	0047a783          	lw	a5,4(a5)
20006e70:	f15ff06f          	j	20006d84 <_malloc_r+0xa0>
20006e74:	00078713          	mv	a4,a5
20006e78:	0047a783          	lw	a5,4(a5)
20006e7c:	fe879ce3          	bne	a5,s0,20006e74 <_malloc_r+0x190>
20006e80:	00072223          	sw	zero,4(a4)
20006e84:	f8dff06f          	j	20006e10 <_malloc_r+0x12c>
20006e88:	00c00793          	li	a5,12
20006e8c:	00f92023          	sw	a5,0(s2)
20006e90:	00090513          	mv	a0,s2
20006e94:	014000ef          	jal	20006ea8 <__malloc_unlock>
20006e98:	e91ff06f          	j	20006d28 <_malloc_r+0x44>
20006e9c:	00952023          	sw	s1,0(a0)
20006ea0:	f71ff06f          	j	20006e10 <_malloc_r+0x12c>

20006ea4 <__malloc_lock>:
20006ea4:	00008067          	ret

20006ea8 <__malloc_unlock>:
20006ea8:	00008067          	ret

20006eac <__sfputc_r>:
20006eac:	00862783          	lw	a5,8(a2)
20006eb0:	fff78793          	addi	a5,a5,-1
20006eb4:	00f62423          	sw	a5,8(a2)
20006eb8:	0007dc63          	bgez	a5,20006ed0 <__sfputc_r+0x24>
20006ebc:	01862703          	lw	a4,24(a2)
20006ec0:	00e7c663          	blt	a5,a4,20006ecc <__sfputc_r+0x20>
20006ec4:	ff658793          	addi	a5,a1,-10
20006ec8:	00079463          	bnez	a5,20006ed0 <__sfputc_r+0x24>
20006ecc:	6880106f          	j	20008554 <__swbuf_r>
20006ed0:	00062783          	lw	a5,0(a2)
20006ed4:	00058513          	mv	a0,a1
20006ed8:	00178713          	addi	a4,a5,1
20006edc:	00e62023          	sw	a4,0(a2)
20006ee0:	00b78023          	sb	a1,0(a5)
20006ee4:	00008067          	ret

20006ee8 <__sfputs_r>:
20006ee8:	fe010113          	addi	sp,sp,-32
20006eec:	00812c23          	sw	s0,24(sp)
20006ef0:	00912a23          	sw	s1,20(sp)
20006ef4:	01212823          	sw	s2,16(sp)
20006ef8:	01312623          	sw	s3,12(sp)
20006efc:	01412423          	sw	s4,8(sp)
20006f00:	00112e23          	sw	ra,28(sp)
20006f04:	00050993          	mv	s3,a0
20006f08:	00058a13          	mv	s4,a1
20006f0c:	00060413          	mv	s0,a2
20006f10:	00d604b3          	add	s1,a2,a3
20006f14:	fff00913          	li	s2,-1
20006f18:	00941663          	bne	s0,s1,20006f24 <__sfputs_r+0x3c>
20006f1c:	00000513          	li	a0,0
20006f20:	01c0006f          	j	20006f3c <__sfputs_r+0x54>
20006f24:	00044583          	lbu	a1,0(s0)
20006f28:	000a0613          	mv	a2,s4
20006f2c:	00098513          	mv	a0,s3
20006f30:	f7dff0ef          	jal	20006eac <__sfputc_r>
20006f34:	00140413          	addi	s0,s0,1
20006f38:	ff2510e3          	bne	a0,s2,20006f18 <__sfputs_r+0x30>
20006f3c:	01c12083          	lw	ra,28(sp)
20006f40:	01812403          	lw	s0,24(sp)
20006f44:	01412483          	lw	s1,20(sp)
20006f48:	01012903          	lw	s2,16(sp)
20006f4c:	00c12983          	lw	s3,12(sp)
20006f50:	00812a03          	lw	s4,8(sp)
20006f54:	02010113          	addi	sp,sp,32
20006f58:	00008067          	ret

20006f5c <__sprint_r>:
20006f5c:	00862783          	lw	a5,8(a2)
20006f60:	ff010113          	addi	sp,sp,-16
20006f64:	00812423          	sw	s0,8(sp)
20006f68:	00112623          	sw	ra,12(sp)
20006f6c:	00060413          	mv	s0,a2
20006f70:	02078063          	beqz	a5,20006f90 <__sprint_r+0x34>
20006f74:	645000ef          	jal	20007db8 <__sfvwrite_r>
20006f78:	00042423          	sw	zero,8(s0)
20006f7c:	00c12083          	lw	ra,12(sp)
20006f80:	00042223          	sw	zero,4(s0)
20006f84:	00812403          	lw	s0,8(sp)
20006f88:	01010113          	addi	sp,sp,16
20006f8c:	00008067          	ret
20006f90:	00000513          	li	a0,0
20006f94:	fe9ff06f          	j	20006f7c <__sprint_r+0x20>

20006f98 <_vfiprintf_r>:
20006f98:	f5010113          	addi	sp,sp,-176
20006f9c:	0a812423          	sw	s0,168(sp)
20006fa0:	0a912223          	sw	s1,164(sp)
20006fa4:	09312e23          	sw	s3,156(sp)
20006fa8:	09412c23          	sw	s4,152(sp)
20006fac:	0a112623          	sw	ra,172(sp)
20006fb0:	0b212023          	sw	s2,160(sp)
20006fb4:	09512a23          	sw	s5,148(sp)
20006fb8:	09612823          	sw	s6,144(sp)
20006fbc:	09712623          	sw	s7,140(sp)
20006fc0:	09812423          	sw	s8,136(sp)
20006fc4:	09912223          	sw	s9,132(sp)
20006fc8:	00050993          	mv	s3,a0
20006fcc:	00058493          	mv	s1,a1
20006fd0:	00060413          	mv	s0,a2
20006fd4:	00068a13          	mv	s4,a3
20006fd8:	00050863          	beqz	a0,20006fe8 <_vfiprintf_r+0x50>
20006fdc:	02052783          	lw	a5,32(a0)
20006fe0:	00079463          	bnez	a5,20006fe8 <_vfiprintf_r+0x50>
20006fe4:	575000ef          	jal	20007d58 <__sinit>
20006fe8:	00c4d783          	lhu	a5,12(s1)
20006fec:	0087f793          	andi	a5,a5,8
20006ff0:	10078a63          	beqz	a5,20007104 <_vfiprintf_r+0x16c>
20006ff4:	0104a783          	lw	a5,16(s1)
20006ff8:	10078663          	beqz	a5,20007104 <_vfiprintf_r+0x16c>
20006ffc:	02000793          	li	a5,32
20007000:	02f10ca3          	sb	a5,57(sp)
20007004:	01412e23          	sw	s4,28(sp)
20007008:	03000793          	li	a5,48
2000700c:	20009a37          	lui	s4,0x20009
20007010:	02012a23          	sw	zero,52(sp)
20007014:	02f10d23          	sb	a5,58(sp)
20007018:	fff00a93          	li	s5,-1
2000701c:	dd8a0a13          	addi	s4,s4,-552 # 20008dd8 <__clz_tab+0x100>
20007020:	00100b93          	li	s7,1
20007024:	00a00b13          	li	s6,10
20007028:	00040c13          	mv	s8,s0
2000702c:	000c4783          	lbu	a5,0(s8)
20007030:	00f03cb3          	snez	s9,a5
20007034:	fdb78793          	addi	a5,a5,-37
20007038:	00f037b3          	snez	a5,a5
2000703c:	00fcfcb3          	and	s9,s9,a5
20007040:	100c9663          	bnez	s9,2000714c <_vfiprintf_r+0x1b4>
20007044:	408c06b3          	sub	a3,s8,s0
20007048:	028c0663          	beq	s8,s0,20007074 <_vfiprintf_r+0xdc>
2000704c:	00040613          	mv	a2,s0
20007050:	00048593          	mv	a1,s1
20007054:	00098513          	mv	a0,s3
20007058:	00d12623          	sw	a3,12(sp)
2000705c:	e8dff0ef          	jal	20006ee8 <__sfputs_r>
20007060:	29550063          	beq	a0,s5,200072e0 <_vfiprintf_r+0x348>
20007064:	03412783          	lw	a5,52(sp)
20007068:	00c12683          	lw	a3,12(sp)
2000706c:	00d787b3          	add	a5,a5,a3
20007070:	02f12a23          	sw	a5,52(sp)
20007074:	000c4783          	lbu	a5,0(s8)
20007078:	26078463          	beqz	a5,200072e0 <_vfiprintf_r+0x348>
2000707c:	001c0413          	addi	s0,s8,1
20007080:	02012023          	sw	zero,32(sp)
20007084:	02012623          	sw	zero,44(sp)
20007088:	03512223          	sw	s5,36(sp)
2000708c:	02012423          	sw	zero,40(sp)
20007090:	060101a3          	sb	zero,99(sp)
20007094:	06012c23          	sw	zero,120(sp)
20007098:	00044583          	lbu	a1,0(s0)
2000709c:	00500613          	li	a2,5
200070a0:	000a0513          	mv	a0,s4
200070a4:	6dc010ef          	jal	20008780 <memchr>
200070a8:	02012783          	lw	a5,32(sp)
200070ac:	00140693          	addi	a3,s0,1
200070b0:	0a051263          	bnez	a0,20007154 <_vfiprintf_r+0x1bc>
200070b4:	0107f713          	andi	a4,a5,16
200070b8:	00070663          	beqz	a4,200070c4 <_vfiprintf_r+0x12c>
200070bc:	02000713          	li	a4,32
200070c0:	06e101a3          	sb	a4,99(sp)
200070c4:	0087f713          	andi	a4,a5,8
200070c8:	00070663          	beqz	a4,200070d4 <_vfiprintf_r+0x13c>
200070cc:	02b00713          	li	a4,43
200070d0:	06e101a3          	sb	a4,99(sp)
200070d4:	00044603          	lbu	a2,0(s0)
200070d8:	02a00713          	li	a4,42
200070dc:	08e60863          	beq	a2,a4,2000716c <_vfiprintf_r+0x1d4>
200070e0:	02c12783          	lw	a5,44(sp)
200070e4:	00000693          	li	a3,0
200070e8:	00900613          	li	a2,9
200070ec:	00044703          	lbu	a4,0(s0)
200070f0:	fd070713          	addi	a4,a4,-48
200070f4:	0ee67263          	bgeu	a2,a4,200071d8 <_vfiprintf_r+0x240>
200070f8:	08068863          	beqz	a3,20007188 <_vfiprintf_r+0x1f0>
200070fc:	02f12623          	sw	a5,44(sp)
20007100:	0880006f          	j	20007188 <_vfiprintf_r+0x1f0>
20007104:	00048593          	mv	a1,s1
20007108:	00098513          	mv	a0,s3
2000710c:	558010ef          	jal	20008664 <__swsetup_r>
20007110:	ee0506e3          	beqz	a0,20006ffc <_vfiprintf_r+0x64>
20007114:	fff00513          	li	a0,-1
20007118:	0ac12083          	lw	ra,172(sp)
2000711c:	0a812403          	lw	s0,168(sp)
20007120:	0a412483          	lw	s1,164(sp)
20007124:	0a012903          	lw	s2,160(sp)
20007128:	09c12983          	lw	s3,156(sp)
2000712c:	09812a03          	lw	s4,152(sp)
20007130:	09412a83          	lw	s5,148(sp)
20007134:	09012b03          	lw	s6,144(sp)
20007138:	08c12b83          	lw	s7,140(sp)
2000713c:	08812c03          	lw	s8,136(sp)
20007140:	08412c83          	lw	s9,132(sp)
20007144:	0b010113          	addi	sp,sp,176
20007148:	00008067          	ret
2000714c:	001c0c13          	addi	s8,s8,1
20007150:	eddff06f          	j	2000702c <_vfiprintf_r+0x94>
20007154:	41450533          	sub	a0,a0,s4
20007158:	00ab9533          	sll	a0,s7,a0
2000715c:	00f56533          	or	a0,a0,a5
20007160:	02a12023          	sw	a0,32(sp)
20007164:	00068413          	mv	s0,a3
20007168:	f31ff06f          	j	20007098 <_vfiprintf_r+0x100>
2000716c:	01c12703          	lw	a4,28(sp)
20007170:	00470613          	addi	a2,a4,4
20007174:	00072703          	lw	a4,0(a4)
20007178:	00c12e23          	sw	a2,28(sp)
2000717c:	04074463          	bltz	a4,200071c4 <_vfiprintf_r+0x22c>
20007180:	02e12623          	sw	a4,44(sp)
20007184:	00068413          	mv	s0,a3
20007188:	00044703          	lbu	a4,0(s0)
2000718c:	02e00793          	li	a5,46
20007190:	06f71e63          	bne	a4,a5,2000720c <_vfiprintf_r+0x274>
20007194:	00144703          	lbu	a4,1(s0)
20007198:	02a00793          	li	a5,42
2000719c:	04f71863          	bne	a4,a5,200071ec <_vfiprintf_r+0x254>
200071a0:	01c12783          	lw	a5,28(sp)
200071a4:	00240413          	addi	s0,s0,2
200071a8:	00478713          	addi	a4,a5,4
200071ac:	0007a783          	lw	a5,0(a5)
200071b0:	00e12e23          	sw	a4,28(sp)
200071b4:	0007d463          	bgez	a5,200071bc <_vfiprintf_r+0x224>
200071b8:	fff00793          	li	a5,-1
200071bc:	02f12223          	sw	a5,36(sp)
200071c0:	04c0006f          	j	2000720c <_vfiprintf_r+0x274>
200071c4:	40e00733          	neg	a4,a4
200071c8:	0027e793          	ori	a5,a5,2
200071cc:	02e12623          	sw	a4,44(sp)
200071d0:	02f12023          	sw	a5,32(sp)
200071d4:	fb1ff06f          	j	20007184 <_vfiprintf_r+0x1ec>
200071d8:	036787b3          	mul	a5,a5,s6
200071dc:	00140413          	addi	s0,s0,1
200071e0:	00100693          	li	a3,1
200071e4:	00e787b3          	add	a5,a5,a4
200071e8:	f05ff06f          	j	200070ec <_vfiprintf_r+0x154>
200071ec:	00140413          	addi	s0,s0,1
200071f0:	02012223          	sw	zero,36(sp)
200071f4:	00000793          	li	a5,0
200071f8:	00900693          	li	a3,9
200071fc:	00044703          	lbu	a4,0(s0)
20007200:	fd070713          	addi	a4,a4,-48
20007204:	08e6f863          	bgeu	a3,a4,20007294 <_vfiprintf_r+0x2fc>
20007208:	fa0c9ae3          	bnez	s9,200071bc <_vfiprintf_r+0x224>
2000720c:	00044583          	lbu	a1,0(s0)
20007210:	20009c37          	lui	s8,0x20009
20007214:	00300613          	li	a2,3
20007218:	de0c0513          	addi	a0,s8,-544 # 20008de0 <__clz_tab+0x108>
2000721c:	564010ef          	jal	20008780 <memchr>
20007220:	02050263          	beqz	a0,20007244 <_vfiprintf_r+0x2ac>
20007224:	02012783          	lw	a5,32(sp)
20007228:	de0c0c13          	addi	s8,s8,-544
2000722c:	41850533          	sub	a0,a0,s8
20007230:	04000713          	li	a4,64
20007234:	00a71733          	sll	a4,a4,a0
20007238:	00e7e7b3          	or	a5,a5,a4
2000723c:	00140413          	addi	s0,s0,1
20007240:	02f12023          	sw	a5,32(sp)
20007244:	00044583          	lbu	a1,0(s0)
20007248:	20009537          	lui	a0,0x20009
2000724c:	00600613          	li	a2,6
20007250:	de450513          	addi	a0,a0,-540 # 20008de4 <__clz_tab+0x10c>
20007254:	02b10c23          	sb	a1,56(sp)
20007258:	528010ef          	jal	20008780 <memchr>
2000725c:	08050c63          	beqz	a0,200072f4 <_vfiprintf_r+0x35c>
20007260:	00000793          	li	a5,0
20007264:	04079a63          	bnez	a5,200072b8 <_vfiprintf_r+0x320>
20007268:	02012703          	lw	a4,32(sp)
2000726c:	01c12783          	lw	a5,28(sp)
20007270:	10077713          	andi	a4,a4,256
20007274:	02070a63          	beqz	a4,200072a8 <_vfiprintf_r+0x310>
20007278:	00478793          	addi	a5,a5,4
2000727c:	00f12e23          	sw	a5,28(sp)
20007280:	03412783          	lw	a5,52(sp)
20007284:	00140413          	addi	s0,s0,1
20007288:	012787b3          	add	a5,a5,s2
2000728c:	02f12a23          	sw	a5,52(sp)
20007290:	d99ff06f          	j	20007028 <_vfiprintf_r+0x90>
20007294:	036787b3          	mul	a5,a5,s6
20007298:	00140413          	addi	s0,s0,1
2000729c:	00100c93          	li	s9,1
200072a0:	00e787b3          	add	a5,a5,a4
200072a4:	f59ff06f          	j	200071fc <_vfiprintf_r+0x264>
200072a8:	00778793          	addi	a5,a5,7
200072ac:	ff87f793          	andi	a5,a5,-8
200072b0:	00878793          	addi	a5,a5,8
200072b4:	fc9ff06f          	j	2000727c <_vfiprintf_r+0x2e4>
200072b8:	200076b7          	lui	a3,0x20007
200072bc:	01c10713          	addi	a4,sp,28
200072c0:	ee868693          	addi	a3,a3,-280 # 20006ee8 <__sfputs_r>
200072c4:	00048613          	mv	a2,s1
200072c8:	02010593          	addi	a1,sp,32
200072cc:	00098513          	mv	a0,s3
200072d0:	00000097          	auipc	ra,0x0
200072d4:	000000e7          	jalr	zero # 0 <_start-0x20000000>
200072d8:	00050913          	mv	s2,a0
200072dc:	fb5512e3          	bne	a0,s5,20007280 <_vfiprintf_r+0x2e8>
200072e0:	00c4d783          	lhu	a5,12(s1)
200072e4:	0407f793          	andi	a5,a5,64
200072e8:	e20796e3          	bnez	a5,20007114 <_vfiprintf_r+0x17c>
200072ec:	03412503          	lw	a0,52(sp)
200072f0:	e29ff06f          	j	20007118 <_vfiprintf_r+0x180>
200072f4:	200076b7          	lui	a3,0x20007
200072f8:	01c10713          	addi	a4,sp,28
200072fc:	ee868693          	addi	a3,a3,-280 # 20006ee8 <__sfputs_r>
20007300:	00048613          	mv	a2,s1
20007304:	02010593          	addi	a1,sp,32
20007308:	00098513          	mv	a0,s3
2000730c:	1d4000ef          	jal	200074e0 <_printf_i>
20007310:	fc9ff06f          	j	200072d8 <_vfiprintf_r+0x340>

20007314 <vfiprintf>:
20007314:	200097b7          	lui	a5,0x20009
20007318:	00060693          	mv	a3,a2
2000731c:	00058613          	mv	a2,a1
20007320:	00050593          	mv	a1,a0
20007324:	17c7a503          	lw	a0,380(a5) # 2000917c <_impure_ptr>
20007328:	c71ff06f          	j	20006f98 <_vfiprintf_r>

2000732c <_printf_common>:
2000732c:	fd010113          	addi	sp,sp,-48
20007330:	01312e23          	sw	s3,28(sp)
20007334:	0105a783          	lw	a5,16(a1)
20007338:	00070993          	mv	s3,a4
2000733c:	0085a703          	lw	a4,8(a1)
20007340:	02812423          	sw	s0,40(sp)
20007344:	03212023          	sw	s2,32(sp)
20007348:	01612823          	sw	s6,16(sp)
2000734c:	01712623          	sw	s7,12(sp)
20007350:	02112623          	sw	ra,44(sp)
20007354:	02912223          	sw	s1,36(sp)
20007358:	01412c23          	sw	s4,24(sp)
2000735c:	01512a23          	sw	s5,20(sp)
20007360:	00050b13          	mv	s6,a0
20007364:	00058413          	mv	s0,a1
20007368:	00060913          	mv	s2,a2
2000736c:	00068b93          	mv	s7,a3
20007370:	00e7d463          	bge	a5,a4,20007378 <_printf_common+0x4c>
20007374:	00070793          	mv	a5,a4
20007378:	00f92023          	sw	a5,0(s2)
2000737c:	04344703          	lbu	a4,67(s0)
20007380:	00070663          	beqz	a4,2000738c <_printf_common+0x60>
20007384:	00178793          	addi	a5,a5,1
20007388:	00f92023          	sw	a5,0(s2)
2000738c:	00042783          	lw	a5,0(s0)
20007390:	0207f793          	andi	a5,a5,32
20007394:	00078863          	beqz	a5,200073a4 <_printf_common+0x78>
20007398:	00092783          	lw	a5,0(s2)
2000739c:	00278793          	addi	a5,a5,2
200073a0:	00f92023          	sw	a5,0(s2)
200073a4:	00042483          	lw	s1,0(s0)
200073a8:	0064f493          	andi	s1,s1,6
200073ac:	00049e63          	bnez	s1,200073c8 <_printf_common+0x9c>
200073b0:	01940a13          	addi	s4,s0,25
200073b4:	fff00a93          	li	s5,-1
200073b8:	00c42783          	lw	a5,12(s0)
200073bc:	00092703          	lw	a4,0(s2)
200073c0:	40e787b3          	sub	a5,a5,a4
200073c4:	08f4c463          	blt	s1,a5,2000744c <_printf_common+0x120>
200073c8:	00042783          	lw	a5,0(s0)
200073cc:	04344683          	lbu	a3,67(s0)
200073d0:	0207f793          	andi	a5,a5,32
200073d4:	00d036b3          	snez	a3,a3
200073d8:	0c079263          	bnez	a5,2000749c <_printf_common+0x170>
200073dc:	04340613          	addi	a2,s0,67
200073e0:	000b8593          	mv	a1,s7
200073e4:	000b0513          	mv	a0,s6
200073e8:	000980e7          	jalr	s3
200073ec:	fff00793          	li	a5,-1
200073f0:	06f50a63          	beq	a0,a5,20007464 <_printf_common+0x138>
200073f4:	00042783          	lw	a5,0(s0)
200073f8:	00400713          	li	a4,4
200073fc:	00000493          	li	s1,0
20007400:	0067f793          	andi	a5,a5,6
20007404:	00e79e63          	bne	a5,a4,20007420 <_printf_common+0xf4>
20007408:	00092783          	lw	a5,0(s2)
2000740c:	00c42483          	lw	s1,12(s0)
20007410:	40f484b3          	sub	s1,s1,a5
20007414:	fff4c793          	not	a5,s1
20007418:	41f7d793          	srai	a5,a5,0x1f
2000741c:	00f4f4b3          	and	s1,s1,a5
20007420:	00842783          	lw	a5,8(s0)
20007424:	01042703          	lw	a4,16(s0)
20007428:	00f75663          	bge	a4,a5,20007434 <_printf_common+0x108>
2000742c:	40e787b3          	sub	a5,a5,a4
20007430:	00f484b3          	add	s1,s1,a5
20007434:	00000913          	li	s2,0
20007438:	01a40413          	addi	s0,s0,26
2000743c:	fff00a13          	li	s4,-1
20007440:	09249063          	bne	s1,s2,200074c0 <_printf_common+0x194>
20007444:	00000513          	li	a0,0
20007448:	0200006f          	j	20007468 <_printf_common+0x13c>
2000744c:	00100693          	li	a3,1
20007450:	000a0613          	mv	a2,s4
20007454:	000b8593          	mv	a1,s7
20007458:	000b0513          	mv	a0,s6
2000745c:	000980e7          	jalr	s3
20007460:	03551a63          	bne	a0,s5,20007494 <_printf_common+0x168>
20007464:	fff00513          	li	a0,-1
20007468:	02c12083          	lw	ra,44(sp)
2000746c:	02812403          	lw	s0,40(sp)
20007470:	02412483          	lw	s1,36(sp)
20007474:	02012903          	lw	s2,32(sp)
20007478:	01c12983          	lw	s3,28(sp)
2000747c:	01812a03          	lw	s4,24(sp)
20007480:	01412a83          	lw	s5,20(sp)
20007484:	01012b03          	lw	s6,16(sp)
20007488:	00c12b83          	lw	s7,12(sp)
2000748c:	03010113          	addi	sp,sp,48
20007490:	00008067          	ret
20007494:	00148493          	addi	s1,s1,1
20007498:	f21ff06f          	j	200073b8 <_printf_common+0x8c>
2000749c:	00d40733          	add	a4,s0,a3
200074a0:	03000613          	li	a2,48
200074a4:	04c701a3          	sb	a2,67(a4)
200074a8:	04544703          	lbu	a4,69(s0)
200074ac:	00168793          	addi	a5,a3,1
200074b0:	00f407b3          	add	a5,s0,a5
200074b4:	00268693          	addi	a3,a3,2
200074b8:	04e781a3          	sb	a4,67(a5)
200074bc:	f21ff06f          	j	200073dc <_printf_common+0xb0>
200074c0:	00100693          	li	a3,1
200074c4:	00040613          	mv	a2,s0
200074c8:	000b8593          	mv	a1,s7
200074cc:	000b0513          	mv	a0,s6
200074d0:	000980e7          	jalr	s3
200074d4:	f94508e3          	beq	a0,s4,20007464 <_printf_common+0x138>
200074d8:	00190913          	addi	s2,s2,1
200074dc:	f65ff06f          	j	20007440 <_printf_common+0x114>

200074e0 <_printf_i>:
200074e0:	fc010113          	addi	sp,sp,-64
200074e4:	02812c23          	sw	s0,56(sp)
200074e8:	02912a23          	sw	s1,52(sp)
200074ec:	03412423          	sw	s4,40(sp)
200074f0:	03512223          	sw	s5,36(sp)
200074f4:	02112e23          	sw	ra,60(sp)
200074f8:	03212823          	sw	s2,48(sp)
200074fc:	03312623          	sw	s3,44(sp)
20007500:	0185c783          	lbu	a5,24(a1)
20007504:	00068493          	mv	s1,a3
20007508:	07800693          	li	a3,120
2000750c:	00050a13          	mv	s4,a0
20007510:	00058413          	mv	s0,a1
20007514:	00060a93          	mv	s5,a2
20007518:	00f6ee63          	bltu	a3,a5,20007534 <_printf_i+0x54>
2000751c:	06200693          	li	a3,98
20007520:	04358613          	addi	a2,a1,67
20007524:	00f6ec63          	bltu	a3,a5,2000753c <_printf_i+0x5c>
20007528:	28078263          	beqz	a5,200077ac <_printf_i+0x2cc>
2000752c:	05800693          	li	a3,88
20007530:	20d78e63          	beq	a5,a3,2000774c <_printf_i+0x26c>
20007534:	04240913          	addi	s2,s0,66
20007538:	0400006f          	j	20007578 <_printf_i+0x98>
2000753c:	f9d78693          	addi	a3,a5,-99
20007540:	0ff6f693          	zext.b	a3,a3
20007544:	01500593          	li	a1,21
20007548:	fed5e6e3          	bltu	a1,a3,20007534 <_printf_i+0x54>
2000754c:	200095b7          	lui	a1,0x20009
20007550:	00269693          	slli	a3,a3,0x2
20007554:	e1458593          	addi	a1,a1,-492 # 20008e14 <__clz_tab+0x13c>
20007558:	00b686b3          	add	a3,a3,a1
2000755c:	0006a683          	lw	a3,0(a3)
20007560:	00068067          	jr	a3
20007564:	00072783          	lw	a5,0(a4)
20007568:	04240913          	addi	s2,s0,66
2000756c:	00478693          	addi	a3,a5,4
20007570:	0007a783          	lw	a5,0(a5)
20007574:	00d72023          	sw	a3,0(a4)
20007578:	04f40123          	sb	a5,66(s0)
2000757c:	00100793          	li	a5,1
20007580:	2680006f          	j	200077e8 <_printf_i+0x308>
20007584:	00042783          	lw	a5,0(s0)
20007588:	00072503          	lw	a0,0(a4)
2000758c:	0807f693          	andi	a3,a5,128
20007590:	00450593          	addi	a1,a0,4
20007594:	02068663          	beqz	a3,200075c0 <_printf_i+0xe0>
20007598:	00052783          	lw	a5,0(a0)
2000759c:	00b72023          	sw	a1,0(a4)
200075a0:	200096b7          	lui	a3,0x20009
200075a4:	0007d863          	bgez	a5,200075b4 <_printf_i+0xd4>
200075a8:	02d00713          	li	a4,45
200075ac:	40f007b3          	neg	a5,a5
200075b0:	04e401a3          	sb	a4,67(s0)
200075b4:	dec68693          	addi	a3,a3,-532 # 20008dec <__clz_tab+0x114>
200075b8:	00a00713          	li	a4,10
200075bc:	0680006f          	j	20007624 <_printf_i+0x144>
200075c0:	0407f693          	andi	a3,a5,64
200075c4:	00052783          	lw	a5,0(a0)
200075c8:	00b72023          	sw	a1,0(a4)
200075cc:	fc068ae3          	beqz	a3,200075a0 <_printf_i+0xc0>
200075d0:	01079793          	slli	a5,a5,0x10
200075d4:	4107d793          	srai	a5,a5,0x10
200075d8:	fc9ff06f          	j	200075a0 <_printf_i+0xc0>
200075dc:	00042583          	lw	a1,0(s0)
200075e0:	00072683          	lw	a3,0(a4)
200075e4:	0805f513          	andi	a0,a1,128
200075e8:	0006a783          	lw	a5,0(a3)
200075ec:	00468693          	addi	a3,a3,4
200075f0:	00051a63          	bnez	a0,20007604 <_printf_i+0x124>
200075f4:	0405f593          	andi	a1,a1,64
200075f8:	00058663          	beqz	a1,20007604 <_printf_i+0x124>
200075fc:	01079793          	slli	a5,a5,0x10
20007600:	0107d793          	srli	a5,a5,0x10
20007604:	00d72023          	sw	a3,0(a4)
20007608:	01844583          	lbu	a1,24(s0)
2000760c:	200096b7          	lui	a3,0x20009
20007610:	06f00713          	li	a4,111
20007614:	dec68693          	addi	a3,a3,-532 # 20008dec <__clz_tab+0x114>
20007618:	14e59863          	bne	a1,a4,20007768 <_printf_i+0x288>
2000761c:	00800713          	li	a4,8
20007620:	040401a3          	sb	zero,67(s0)
20007624:	00442583          	lw	a1,4(s0)
20007628:	00b42423          	sw	a1,8(s0)
2000762c:	0005ce63          	bltz	a1,20007648 <_printf_i+0x168>
20007630:	00042503          	lw	a0,0(s0)
20007634:	00b7e5b3          	or	a1,a5,a1
20007638:	00060913          	mv	s2,a2
2000763c:	ffb57513          	andi	a0,a0,-5
20007640:	00a42023          	sw	a0,0(s0)
20007644:	02058463          	beqz	a1,2000766c <_printf_i+0x18c>
20007648:	00060913          	mv	s2,a2
2000764c:	02e7f5b3          	remu	a1,a5,a4
20007650:	fff90913          	addi	s2,s2,-1
20007654:	00b685b3          	add	a1,a3,a1
20007658:	0005c583          	lbu	a1,0(a1)
2000765c:	00b90023          	sb	a1,0(s2)
20007660:	00078593          	mv	a1,a5
20007664:	02e7d7b3          	divu	a5,a5,a4
20007668:	fee5f2e3          	bgeu	a1,a4,2000764c <_printf_i+0x16c>
2000766c:	00800793          	li	a5,8
20007670:	02f71463          	bne	a4,a5,20007698 <_printf_i+0x1b8>
20007674:	00042783          	lw	a5,0(s0)
20007678:	0017f793          	andi	a5,a5,1
2000767c:	00078e63          	beqz	a5,20007698 <_printf_i+0x1b8>
20007680:	00442703          	lw	a4,4(s0)
20007684:	01042783          	lw	a5,16(s0)
20007688:	00e7c863          	blt	a5,a4,20007698 <_printf_i+0x1b8>
2000768c:	03000793          	li	a5,48
20007690:	fef90fa3          	sb	a5,-1(s2)
20007694:	fff90913          	addi	s2,s2,-1
20007698:	41260633          	sub	a2,a2,s2
2000769c:	00c42823          	sw	a2,16(s0)
200076a0:	00048713          	mv	a4,s1
200076a4:	000a8693          	mv	a3,s5
200076a8:	01c10613          	addi	a2,sp,28
200076ac:	00040593          	mv	a1,s0
200076b0:	000a0513          	mv	a0,s4
200076b4:	c79ff0ef          	jal	2000732c <_printf_common>
200076b8:	fff00993          	li	s3,-1
200076bc:	13351c63          	bne	a0,s3,200077f4 <_printf_i+0x314>
200076c0:	fff00513          	li	a0,-1
200076c4:	03c12083          	lw	ra,60(sp)
200076c8:	03812403          	lw	s0,56(sp)
200076cc:	03412483          	lw	s1,52(sp)
200076d0:	03012903          	lw	s2,48(sp)
200076d4:	02c12983          	lw	s3,44(sp)
200076d8:	02812a03          	lw	s4,40(sp)
200076dc:	02412a83          	lw	s5,36(sp)
200076e0:	04010113          	addi	sp,sp,64
200076e4:	00008067          	ret
200076e8:	00042783          	lw	a5,0(s0)
200076ec:	0207e793          	ori	a5,a5,32
200076f0:	00f42023          	sw	a5,0(s0)
200076f4:	200096b7          	lui	a3,0x20009
200076f8:	07800793          	li	a5,120
200076fc:	e0068693          	addi	a3,a3,-512 # 20008e00 <__clz_tab+0x128>
20007700:	04f402a3          	sb	a5,69(s0)
20007704:	00042583          	lw	a1,0(s0)
20007708:	00072503          	lw	a0,0(a4)
2000770c:	0805f813          	andi	a6,a1,128
20007710:	00052783          	lw	a5,0(a0)
20007714:	00450513          	addi	a0,a0,4
20007718:	00081a63          	bnez	a6,2000772c <_printf_i+0x24c>
2000771c:	0405f813          	andi	a6,a1,64
20007720:	00080663          	beqz	a6,2000772c <_printf_i+0x24c>
20007724:	01079793          	slli	a5,a5,0x10
20007728:	0107d793          	srli	a5,a5,0x10
2000772c:	00a72023          	sw	a0,0(a4)
20007730:	0015f713          	andi	a4,a1,1
20007734:	00070663          	beqz	a4,20007740 <_printf_i+0x260>
20007738:	0205e593          	ori	a1,a1,32
2000773c:	00b42023          	sw	a1,0(s0)
20007740:	00078c63          	beqz	a5,20007758 <_printf_i+0x278>
20007744:	01000713          	li	a4,16
20007748:	ed9ff06f          	j	20007620 <_printf_i+0x140>
2000774c:	200096b7          	lui	a3,0x20009
20007750:	dec68693          	addi	a3,a3,-532 # 20008dec <__clz_tab+0x114>
20007754:	fadff06f          	j	20007700 <_printf_i+0x220>
20007758:	00042703          	lw	a4,0(s0)
2000775c:	fdf77713          	andi	a4,a4,-33
20007760:	00e42023          	sw	a4,0(s0)
20007764:	fe1ff06f          	j	20007744 <_printf_i+0x264>
20007768:	00a00713          	li	a4,10
2000776c:	eb5ff06f          	j	20007620 <_printf_i+0x140>
20007770:	00042683          	lw	a3,0(s0)
20007774:	00072783          	lw	a5,0(a4)
20007778:	01442583          	lw	a1,20(s0)
2000777c:	0806f813          	andi	a6,a3,128
20007780:	00478513          	addi	a0,a5,4
20007784:	00080a63          	beqz	a6,20007798 <_printf_i+0x2b8>
20007788:	00a72023          	sw	a0,0(a4)
2000778c:	0007a783          	lw	a5,0(a5)
20007790:	00b7a023          	sw	a1,0(a5)
20007794:	0180006f          	j	200077ac <_printf_i+0x2cc>
20007798:	00a72023          	sw	a0,0(a4)
2000779c:	0406f693          	andi	a3,a3,64
200077a0:	0007a783          	lw	a5,0(a5)
200077a4:	fe0686e3          	beqz	a3,20007790 <_printf_i+0x2b0>
200077a8:	00b79023          	sh	a1,0(a5)
200077ac:	00042823          	sw	zero,16(s0)
200077b0:	00060913          	mv	s2,a2
200077b4:	eedff06f          	j	200076a0 <_printf_i+0x1c0>
200077b8:	00072783          	lw	a5,0(a4)
200077bc:	00442603          	lw	a2,4(s0)
200077c0:	00000593          	li	a1,0
200077c4:	00478693          	addi	a3,a5,4
200077c8:	00d72023          	sw	a3,0(a4)
200077cc:	0007a903          	lw	s2,0(a5)
200077d0:	00090513          	mv	a0,s2
200077d4:	7ad000ef          	jal	20008780 <memchr>
200077d8:	00050663          	beqz	a0,200077e4 <_printf_i+0x304>
200077dc:	41250533          	sub	a0,a0,s2
200077e0:	00a42223          	sw	a0,4(s0)
200077e4:	00442783          	lw	a5,4(s0)
200077e8:	00f42823          	sw	a5,16(s0)
200077ec:	040401a3          	sb	zero,67(s0)
200077f0:	eb1ff06f          	j	200076a0 <_printf_i+0x1c0>
200077f4:	01042683          	lw	a3,16(s0)
200077f8:	00090613          	mv	a2,s2
200077fc:	000a8593          	mv	a1,s5
20007800:	000a0513          	mv	a0,s4
20007804:	000480e7          	jalr	s1
20007808:	eb350ce3          	beq	a0,s3,200076c0 <_printf_i+0x1e0>
2000780c:	00042783          	lw	a5,0(s0)
20007810:	0027f793          	andi	a5,a5,2
20007814:	04079663          	bnez	a5,20007860 <_printf_i+0x380>
20007818:	01c12783          	lw	a5,28(sp)
2000781c:	00c42503          	lw	a0,12(s0)
20007820:	eaf552e3          	bge	a0,a5,200076c4 <_printf_i+0x1e4>
20007824:	00078513          	mv	a0,a5
20007828:	e9dff06f          	j	200076c4 <_printf_i+0x1e4>
2000782c:	00100693          	li	a3,1
20007830:	000a8593          	mv	a1,s5
20007834:	000a0513          	mv	a0,s4
20007838:	00c12623          	sw	a2,12(sp)
2000783c:	000480e7          	jalr	s1
20007840:	e93500e3          	beq	a0,s3,200076c0 <_printf_i+0x1e0>
20007844:	00c12603          	lw	a2,12(sp)
20007848:	00190913          	addi	s2,s2,1
2000784c:	00c42783          	lw	a5,12(s0)
20007850:	01c12703          	lw	a4,28(sp)
20007854:	40e787b3          	sub	a5,a5,a4
20007858:	fcf94ae3          	blt	s2,a5,2000782c <_printf_i+0x34c>
2000785c:	fbdff06f          	j	20007818 <_printf_i+0x338>
20007860:	00000913          	li	s2,0
20007864:	01940613          	addi	a2,s0,25
20007868:	fe5ff06f          	j	2000784c <_printf_i+0x36c>

2000786c <__sflush_r>:
2000786c:	00c59783          	lh	a5,12(a1)
20007870:	fe010113          	addi	sp,sp,-32
20007874:	00812c23          	sw	s0,24(sp)
20007878:	00912a23          	sw	s1,20(sp)
2000787c:	00112e23          	sw	ra,28(sp)
20007880:	01212823          	sw	s2,16(sp)
20007884:	0087f713          	andi	a4,a5,8
20007888:	00050493          	mv	s1,a0
2000788c:	00058413          	mv	s0,a1
20007890:	12071263          	bnez	a4,200079b4 <__sflush_r+0x148>
20007894:	0045a703          	lw	a4,4(a1)
20007898:	00e04663          	bgtz	a4,200078a4 <__sflush_r+0x38>
2000789c:	0405a703          	lw	a4,64(a1)
200078a0:	10e05663          	blez	a4,200079ac <__sflush_r+0x140>
200078a4:	02c42703          	lw	a4,44(s0)
200078a8:	10070263          	beqz	a4,200079ac <__sflush_r+0x140>
200078ac:	0004a903          	lw	s2,0(s1)
200078b0:	01379693          	slli	a3,a5,0x13
200078b4:	0004a023          	sw	zero,0(s1)
200078b8:	0a06dc63          	bgez	a3,20007970 <__sflush_r+0x104>
200078bc:	05442603          	lw	a2,84(s0)
200078c0:	00c45783          	lhu	a5,12(s0)
200078c4:	0047f793          	andi	a5,a5,4
200078c8:	00078e63          	beqz	a5,200078e4 <__sflush_r+0x78>
200078cc:	00442783          	lw	a5,4(s0)
200078d0:	40f60633          	sub	a2,a2,a5
200078d4:	03442783          	lw	a5,52(s0)
200078d8:	00078663          	beqz	a5,200078e4 <__sflush_r+0x78>
200078dc:	04042783          	lw	a5,64(s0)
200078e0:	40f60633          	sub	a2,a2,a5
200078e4:	02c42783          	lw	a5,44(s0)
200078e8:	02042583          	lw	a1,32(s0)
200078ec:	00000693          	li	a3,0
200078f0:	00048513          	mv	a0,s1
200078f4:	000780e7          	jalr	a5
200078f8:	fff00713          	li	a4,-1
200078fc:	00c41783          	lh	a5,12(s0)
20007900:	02e51263          	bne	a0,a4,20007924 <__sflush_r+0xb8>
20007904:	0004a683          	lw	a3,0(s1)
20007908:	01d00713          	li	a4,29
2000790c:	0ed76c63          	bltu	a4,a3,20007a04 <__sflush_r+0x198>
20007910:	20400737          	lui	a4,0x20400
20007914:	00170713          	addi	a4,a4,1 # 20400001 <__stack_top+0x3f60fd>
20007918:	00d75733          	srl	a4,a4,a3
2000791c:	00177713          	andi	a4,a4,1
20007920:	0e070263          	beqz	a4,20007a04 <__sflush_r+0x198>
20007924:	01042703          	lw	a4,16(s0)
20007928:	00042223          	sw	zero,4(s0)
2000792c:	00e42023          	sw	a4,0(s0)
20007930:	01379713          	slli	a4,a5,0x13
20007934:	00075c63          	bgez	a4,2000794c <__sflush_r+0xe0>
20007938:	fff00793          	li	a5,-1
2000793c:	00f51663          	bne	a0,a5,20007948 <__sflush_r+0xdc>
20007940:	0004a783          	lw	a5,0(s1)
20007944:	00079463          	bnez	a5,2000794c <__sflush_r+0xe0>
20007948:	04a42a23          	sw	a0,84(s0)
2000794c:	03442583          	lw	a1,52(s0)
20007950:	0124a023          	sw	s2,0(s1)
20007954:	04058c63          	beqz	a1,200079ac <__sflush_r+0x140>
20007958:	04440793          	addi	a5,s0,68
2000795c:	00f58663          	beq	a1,a5,20007968 <__sflush_r+0xfc>
20007960:	00048513          	mv	a0,s1
20007964:	9dcff0ef          	jal	20006b40 <_free_r>
20007968:	02042a23          	sw	zero,52(s0)
2000796c:	0400006f          	j	200079ac <__sflush_r+0x140>
20007970:	02042583          	lw	a1,32(s0)
20007974:	00000613          	li	a2,0
20007978:	00100693          	li	a3,1
2000797c:	00048513          	mv	a0,s1
20007980:	000700e7          	jalr	a4
20007984:	fff00793          	li	a5,-1
20007988:	00050613          	mv	a2,a0
2000798c:	f2f51ae3          	bne	a0,a5,200078c0 <__sflush_r+0x54>
20007990:	0004a783          	lw	a5,0(s1)
20007994:	f20786e3          	beqz	a5,200078c0 <__sflush_r+0x54>
20007998:	fe378713          	addi	a4,a5,-29
2000799c:	00070663          	beqz	a4,200079a8 <__sflush_r+0x13c>
200079a0:	fea78793          	addi	a5,a5,-22
200079a4:	04079e63          	bnez	a5,20007a00 <__sflush_r+0x194>
200079a8:	0124a023          	sw	s2,0(s1)
200079ac:	00000513          	li	a0,0
200079b0:	0600006f          	j	20007a10 <__sflush_r+0x1a4>
200079b4:	0105a603          	lw	a2,16(a1)
200079b8:	fe060ae3          	beqz	a2,200079ac <__sflush_r+0x140>
200079bc:	0005a683          	lw	a3,0(a1)
200079c0:	0037f793          	andi	a5,a5,3
200079c4:	00c5a023          	sw	a2,0(a1)
200079c8:	40c68933          	sub	s2,a3,a2
200079cc:	00000713          	li	a4,0
200079d0:	00079463          	bnez	a5,200079d8 <__sflush_r+0x16c>
200079d4:	0145a703          	lw	a4,20(a1)
200079d8:	00e42423          	sw	a4,8(s0)
200079dc:	fd2058e3          	blez	s2,200079ac <__sflush_r+0x140>
200079e0:	02842783          	lw	a5,40(s0)
200079e4:	02042583          	lw	a1,32(s0)
200079e8:	00090693          	mv	a3,s2
200079ec:	00048513          	mv	a0,s1
200079f0:	00c12623          	sw	a2,12(sp)
200079f4:	000780e7          	jalr	a5
200079f8:	00c12603          	lw	a2,12(sp)
200079fc:	02a04663          	bgtz	a0,20007a28 <__sflush_r+0x1bc>
20007a00:	00c45783          	lhu	a5,12(s0)
20007a04:	0407e793          	ori	a5,a5,64
20007a08:	00f41623          	sh	a5,12(s0)
20007a0c:	fff00513          	li	a0,-1
20007a10:	01c12083          	lw	ra,28(sp)
20007a14:	01812403          	lw	s0,24(sp)
20007a18:	01412483          	lw	s1,20(sp)
20007a1c:	01012903          	lw	s2,16(sp)
20007a20:	02010113          	addi	sp,sp,32
20007a24:	00008067          	ret
20007a28:	00a60633          	add	a2,a2,a0
20007a2c:	40a90933          	sub	s2,s2,a0
20007a30:	fadff06f          	j	200079dc <__sflush_r+0x170>

20007a34 <_fflush_r>:
20007a34:	0105a783          	lw	a5,16(a1)
20007a38:	04078e63          	beqz	a5,20007a94 <_fflush_r+0x60>
20007a3c:	fe010113          	addi	sp,sp,-32
20007a40:	00812c23          	sw	s0,24(sp)
20007a44:	00112e23          	sw	ra,28(sp)
20007a48:	00050413          	mv	s0,a0
20007a4c:	00050c63          	beqz	a0,20007a64 <_fflush_r+0x30>
20007a50:	02052783          	lw	a5,32(a0)
20007a54:	00079863          	bnez	a5,20007a64 <_fflush_r+0x30>
20007a58:	00b12623          	sw	a1,12(sp)
20007a5c:	2fc000ef          	jal	20007d58 <__sinit>
20007a60:	00c12583          	lw	a1,12(sp)
20007a64:	00c59783          	lh	a5,12(a1)
20007a68:	00078c63          	beqz	a5,20007a80 <_fflush_r+0x4c>
20007a6c:	00040513          	mv	a0,s0
20007a70:	01812403          	lw	s0,24(sp)
20007a74:	01c12083          	lw	ra,28(sp)
20007a78:	02010113          	addi	sp,sp,32
20007a7c:	df1ff06f          	j	2000786c <__sflush_r>
20007a80:	01c12083          	lw	ra,28(sp)
20007a84:	01812403          	lw	s0,24(sp)
20007a88:	00000513          	li	a0,0
20007a8c:	02010113          	addi	sp,sp,32
20007a90:	00008067          	ret
20007a94:	00000513          	li	a0,0
20007a98:	00008067          	ret

20007a9c <fflush>:
20007a9c:	00050593          	mv	a1,a0
20007aa0:	02051063          	bnez	a0,20007ac0 <fflush+0x24>
20007aa4:	20009637          	lui	a2,0x20009
20007aa8:	200085b7          	lui	a1,0x20008
20007aac:	20009537          	lui	a0,0x20009
20007ab0:	17060613          	addi	a2,a2,368 # 20009170 <__sglue>
20007ab4:	a3458593          	addi	a1,a1,-1484 # 20007a34 <_fflush_r>
20007ab8:	12450513          	addi	a0,a0,292 # 20009124 <_impure_data>
20007abc:	75c0006f          	j	20008218 <_fwalk_sglue>
20007ac0:	200097b7          	lui	a5,0x20009
20007ac4:	17c7a503          	lw	a0,380(a5) # 2000917c <_impure_ptr>
20007ac8:	f6dff06f          	j	20007a34 <_fflush_r>

20007acc <__fp_lock>:
20007acc:	00000513          	li	a0,0
20007ad0:	00008067          	ret

20007ad4 <std>:
20007ad4:	ff010113          	addi	sp,sp,-16
20007ad8:	00812423          	sw	s0,8(sp)
20007adc:	00112623          	sw	ra,12(sp)
20007ae0:	00050413          	mv	s0,a0
20007ae4:	00b51623          	sh	a1,12(a0)
20007ae8:	00c51723          	sh	a2,14(a0)
20007aec:	00052023          	sw	zero,0(a0)
20007af0:	00052223          	sw	zero,4(a0)
20007af4:	00052423          	sw	zero,8(a0)
20007af8:	06052223          	sw	zero,100(a0)
20007afc:	00052823          	sw	zero,16(a0)
20007b00:	00052a23          	sw	zero,20(a0)
20007b04:	00052c23          	sw	zero,24(a0)
20007b08:	00800613          	li	a2,8
20007b0c:	00000593          	li	a1,0
20007b10:	05c50513          	addi	a0,a0,92
20007b14:	078010ef          	jal	20008b8c <memset>
20007b18:	200087b7          	lui	a5,0x20008
20007b1c:	41878793          	addi	a5,a5,1048 # 20008418 <__sread>
20007b20:	02f42223          	sw	a5,36(s0)
20007b24:	200087b7          	lui	a5,0x20008
20007b28:	47078793          	addi	a5,a5,1136 # 20008470 <__swrite>
20007b2c:	02f42423          	sw	a5,40(s0)
20007b30:	200087b7          	lui	a5,0x20008
20007b34:	4f478793          	addi	a5,a5,1268 # 200084f4 <__sseek>
20007b38:	02f42623          	sw	a5,44(s0)
20007b3c:	200087b7          	lui	a5,0x20008
20007b40:	54c78793          	addi	a5,a5,1356 # 2000854c <__sclose>
20007b44:	00c12083          	lw	ra,12(sp)
20007b48:	02842023          	sw	s0,32(s0)
20007b4c:	02f42823          	sw	a5,48(s0)
20007b50:	00812403          	lw	s0,8(sp)
20007b54:	01010113          	addi	sp,sp,16
20007b58:	00008067          	ret

20007b5c <stdio_exit_handler>:
20007b5c:	20009637          	lui	a2,0x20009
20007b60:	200085b7          	lui	a1,0x20008
20007b64:	20009537          	lui	a0,0x20009
20007b68:	17060613          	addi	a2,a2,368 # 20009170 <__sglue>
20007b6c:	a3458593          	addi	a1,a1,-1484 # 20007a34 <_fflush_r>
20007b70:	12450513          	addi	a0,a0,292 # 20009124 <_impure_data>
20007b74:	6a40006f          	j	20008218 <_fwalk_sglue>

20007b78 <cleanup_stdio>:
20007b78:	00452583          	lw	a1,4(a0)
20007b7c:	ff010113          	addi	sp,sp,-16
20007b80:	200097b7          	lui	a5,0x20009
20007b84:	00812423          	sw	s0,8(sp)
20007b88:	00112623          	sw	ra,12(sp)
20007b8c:	1a478793          	addi	a5,a5,420 # 200091a4 <__sf>
20007b90:	00050413          	mv	s0,a0
20007b94:	00f58463          	beq	a1,a5,20007b9c <cleanup_stdio+0x24>
20007b98:	e9dff0ef          	jal	20007a34 <_fflush_r>
20007b9c:	00842583          	lw	a1,8(s0)
20007ba0:	200097b7          	lui	a5,0x20009
20007ba4:	20c78793          	addi	a5,a5,524 # 2000920c <__sf+0x68>
20007ba8:	00f58663          	beq	a1,a5,20007bb4 <cleanup_stdio+0x3c>
20007bac:	00040513          	mv	a0,s0
20007bb0:	e85ff0ef          	jal	20007a34 <_fflush_r>
20007bb4:	00c42583          	lw	a1,12(s0)
20007bb8:	200097b7          	lui	a5,0x20009
20007bbc:	27478793          	addi	a5,a5,628 # 20009274 <__sf+0xd0>
20007bc0:	00f58c63          	beq	a1,a5,20007bd8 <cleanup_stdio+0x60>
20007bc4:	00040513          	mv	a0,s0
20007bc8:	00812403          	lw	s0,8(sp)
20007bcc:	00c12083          	lw	ra,12(sp)
20007bd0:	01010113          	addi	sp,sp,16
20007bd4:	e61ff06f          	j	20007a34 <_fflush_r>
20007bd8:	00c12083          	lw	ra,12(sp)
20007bdc:	00812403          	lw	s0,8(sp)
20007be0:	01010113          	addi	sp,sp,16
20007be4:	00008067          	ret

20007be8 <global_stdio_init.part.0>:
20007be8:	200087b7          	lui	a5,0x20008
20007bec:	20009537          	lui	a0,0x20009
20007bf0:	ff010113          	addi	sp,sp,-16
20007bf4:	20009737          	lui	a4,0x20009
20007bf8:	b5c78793          	addi	a5,a5,-1188 # 20007b5c <stdio_exit_handler>
20007bfc:	00000613          	li	a2,0
20007c00:	00400593          	li	a1,4
20007c04:	1a450513          	addi	a0,a0,420 # 200091a4 <__sf>
20007c08:	00112623          	sw	ra,12(sp)
20007c0c:	2ef72e23          	sw	a5,764(a4) # 200092fc <__stdio_exit_handler>
20007c10:	ec5ff0ef          	jal	20007ad4 <std>
20007c14:	20009537          	lui	a0,0x20009
20007c18:	00100613          	li	a2,1
20007c1c:	00900593          	li	a1,9
20007c20:	20c50513          	addi	a0,a0,524 # 2000920c <__sf+0x68>
20007c24:	eb1ff0ef          	jal	20007ad4 <std>
20007c28:	00c12083          	lw	ra,12(sp)
20007c2c:	20009537          	lui	a0,0x20009
20007c30:	00200613          	li	a2,2
20007c34:	01200593          	li	a1,18
20007c38:	27450513          	addi	a0,a0,628 # 20009274 <__sf+0xd0>
20007c3c:	01010113          	addi	sp,sp,16
20007c40:	e95ff06f          	j	20007ad4 <std>

20007c44 <__fp_unlock>:
20007c44:	00000513          	li	a0,0
20007c48:	00008067          	ret

20007c4c <__sfp>:
20007c4c:	200097b7          	lui	a5,0x20009
20007c50:	2fc7a783          	lw	a5,764(a5) # 200092fc <__stdio_exit_handler>
20007c54:	ff010113          	addi	sp,sp,-16
20007c58:	01212023          	sw	s2,0(sp)
20007c5c:	00112623          	sw	ra,12(sp)
20007c60:	00812423          	sw	s0,8(sp)
20007c64:	00912223          	sw	s1,4(sp)
20007c68:	00050913          	mv	s2,a0
20007c6c:	00079463          	bnez	a5,20007c74 <__sfp+0x28>
20007c70:	f79ff0ef          	jal	20007be8 <global_stdio_init.part.0>
20007c74:	200094b7          	lui	s1,0x20009
20007c78:	17048493          	addi	s1,s1,368 # 20009170 <__sglue>
20007c7c:	0084a403          	lw	s0,8(s1)
20007c80:	0044a783          	lw	a5,4(s1)
20007c84:	fff78793          	addi	a5,a5,-1
20007c88:	0207d863          	bgez	a5,20007cb8 <__sfp+0x6c>
20007c8c:	0004a403          	lw	s0,0(s1)
20007c90:	0c041063          	bnez	s0,20007d50 <__sfp+0x104>
20007c94:	1ac00593          	li	a1,428
20007c98:	00090513          	mv	a0,s2
20007c9c:	848ff0ef          	jal	20006ce4 <_malloc_r>
20007ca0:	00050413          	mv	s0,a0
20007ca4:	08051463          	bnez	a0,20007d2c <__sfp+0xe0>
20007ca8:	0004a023          	sw	zero,0(s1)
20007cac:	00c00793          	li	a5,12
20007cb0:	00f92023          	sw	a5,0(s2)
20007cb4:	0540006f          	j	20007d08 <__sfp+0xbc>
20007cb8:	00c41703          	lh	a4,12(s0)
20007cbc:	06071463          	bnez	a4,20007d24 <__sfp+0xd8>
20007cc0:	ffff07b7          	lui	a5,0xffff0
20007cc4:	00178793          	addi	a5,a5,1 # ffff0001 <__stack_top+0xdffe60fd>
20007cc8:	06042223          	sw	zero,100(s0)
20007ccc:	00042023          	sw	zero,0(s0)
20007cd0:	00042223          	sw	zero,4(s0)
20007cd4:	00042423          	sw	zero,8(s0)
20007cd8:	00f42623          	sw	a5,12(s0)
20007cdc:	00042823          	sw	zero,16(s0)
20007ce0:	00042a23          	sw	zero,20(s0)
20007ce4:	00042c23          	sw	zero,24(s0)
20007ce8:	00800613          	li	a2,8
20007cec:	00000593          	li	a1,0
20007cf0:	05c40513          	addi	a0,s0,92
20007cf4:	699000ef          	jal	20008b8c <memset>
20007cf8:	02042a23          	sw	zero,52(s0)
20007cfc:	02042c23          	sw	zero,56(s0)
20007d00:	04042423          	sw	zero,72(s0)
20007d04:	04042623          	sw	zero,76(s0)
20007d08:	00c12083          	lw	ra,12(sp)
20007d0c:	00040513          	mv	a0,s0
20007d10:	00812403          	lw	s0,8(sp)
20007d14:	00412483          	lw	s1,4(sp)
20007d18:	00012903          	lw	s2,0(sp)
20007d1c:	01010113          	addi	sp,sp,16
20007d20:	00008067          	ret
20007d24:	06840413          	addi	s0,s0,104
20007d28:	f5dff06f          	j	20007c84 <__sfp+0x38>
20007d2c:	00400793          	li	a5,4
20007d30:	00052023          	sw	zero,0(a0)
20007d34:	00f52223          	sw	a5,4(a0)
20007d38:	00c50513          	addi	a0,a0,12
20007d3c:	00a42423          	sw	a0,8(s0)
20007d40:	1a000613          	li	a2,416
20007d44:	00000593          	li	a1,0
20007d48:	645000ef          	jal	20008b8c <memset>
20007d4c:	0084a023          	sw	s0,0(s1)
20007d50:	00040493          	mv	s1,s0
20007d54:	f29ff06f          	j	20007c7c <__sfp+0x30>

20007d58 <__sinit>:
20007d58:	02052783          	lw	a5,32(a0)
20007d5c:	02079063          	bnez	a5,20007d7c <__sinit+0x24>
20007d60:	200087b7          	lui	a5,0x20008
20007d64:	b7878793          	addi	a5,a5,-1160 # 20007b78 <cleanup_stdio>
20007d68:	02f52023          	sw	a5,32(a0)
20007d6c:	200097b7          	lui	a5,0x20009
20007d70:	2fc7a783          	lw	a5,764(a5) # 200092fc <__stdio_exit_handler>
20007d74:	00079463          	bnez	a5,20007d7c <__sinit+0x24>
20007d78:	e71ff06f          	j	20007be8 <global_stdio_init.part.0>
20007d7c:	00008067          	ret

20007d80 <__sfp_lock_acquire>:
20007d80:	00008067          	ret

20007d84 <__sfp_lock_release>:
20007d84:	00008067          	ret

20007d88 <__fp_lock_all>:
20007d88:	20009637          	lui	a2,0x20009
20007d8c:	200085b7          	lui	a1,0x20008
20007d90:	17060613          	addi	a2,a2,368 # 20009170 <__sglue>
20007d94:	acc58593          	addi	a1,a1,-1332 # 20007acc <__fp_lock>
20007d98:	00000513          	li	a0,0
20007d9c:	47c0006f          	j	20008218 <_fwalk_sglue>

20007da0 <__fp_unlock_all>:
20007da0:	20009637          	lui	a2,0x20009
20007da4:	200085b7          	lui	a1,0x20008
20007da8:	17060613          	addi	a2,a2,368 # 20009170 <__sglue>
20007dac:	c4458593          	addi	a1,a1,-956 # 20007c44 <__fp_unlock>
20007db0:	00000513          	li	a0,0
20007db4:	4640006f          	j	20008218 <_fwalk_sglue>

20007db8 <__sfvwrite_r>:
20007db8:	00862783          	lw	a5,8(a2)
20007dbc:	04079663          	bnez	a5,20007e08 <__sfvwrite_r+0x50>
20007dc0:	00000513          	li	a0,0
20007dc4:	00008067          	ret
20007dc8:	00000513          	li	a0,0
20007dcc:	03c12083          	lw	ra,60(sp)
20007dd0:	03812403          	lw	s0,56(sp)
20007dd4:	03412483          	lw	s1,52(sp)
20007dd8:	03012903          	lw	s2,48(sp)
20007ddc:	02c12983          	lw	s3,44(sp)
20007de0:	02812a03          	lw	s4,40(sp)
20007de4:	02412a83          	lw	s5,36(sp)
20007de8:	02012b03          	lw	s6,32(sp)
20007dec:	01c12b83          	lw	s7,28(sp)
20007df0:	01812c03          	lw	s8,24(sp)
20007df4:	01412c83          	lw	s9,20(sp)
20007df8:	01012d03          	lw	s10,16(sp)
20007dfc:	00c12d83          	lw	s11,12(sp)
20007e00:	04010113          	addi	sp,sp,64
20007e04:	00008067          	ret
20007e08:	00c5d783          	lhu	a5,12(a1)
20007e0c:	fc010113          	addi	sp,sp,-64
20007e10:	02812c23          	sw	s0,56(sp)
20007e14:	03312623          	sw	s3,44(sp)
20007e18:	03512223          	sw	s5,36(sp)
20007e1c:	02112e23          	sw	ra,60(sp)
20007e20:	02912a23          	sw	s1,52(sp)
20007e24:	03212823          	sw	s2,48(sp)
20007e28:	03412423          	sw	s4,40(sp)
20007e2c:	03612023          	sw	s6,32(sp)
20007e30:	01712e23          	sw	s7,28(sp)
20007e34:	01812c23          	sw	s8,24(sp)
20007e38:	01912a23          	sw	s9,20(sp)
20007e3c:	01a12823          	sw	s10,16(sp)
20007e40:	01b12623          	sw	s11,12(sp)
20007e44:	0087f793          	andi	a5,a5,8
20007e48:	00060a93          	mv	s5,a2
20007e4c:	00058413          	mv	s0,a1
20007e50:	00050993          	mv	s3,a0
20007e54:	0e078263          	beqz	a5,20007f38 <__sfvwrite_r+0x180>
20007e58:	0105a783          	lw	a5,16(a1)
20007e5c:	0c078e63          	beqz	a5,20007f38 <__sfvwrite_r+0x180>
20007e60:	00c41783          	lh	a5,12(s0)
20007e64:	000aaa03          	lw	s4,0(s5)
20007e68:	0027f713          	andi	a4,a5,2
20007e6c:	12071c63          	bnez	a4,20007fa4 <__sfvwrite_r+0x1ec>
20007e70:	0017f793          	andi	a5,a5,1
20007e74:	1c078c63          	beqz	a5,2000804c <__sfvwrite_r+0x294>
20007e78:	00000b93          	li	s7,0
20007e7c:	00000513          	li	a0,0
20007e80:	00000b13          	li	s6,0
20007e84:	00000913          	li	s2,0
20007e88:	32090663          	beqz	s2,200081b4 <__sfvwrite_r+0x3fc>
20007e8c:	02051263          	bnez	a0,20007eb0 <__sfvwrite_r+0xf8>
20007e90:	00090613          	mv	a2,s2
20007e94:	00a00593          	li	a1,10
20007e98:	000b0513          	mv	a0,s6
20007e9c:	0e5000ef          	jal	20008780 <memchr>
20007ea0:	00190b93          	addi	s7,s2,1
20007ea4:	00050663          	beqz	a0,20007eb0 <__sfvwrite_r+0xf8>
20007ea8:	00150513          	addi	a0,a0,1
20007eac:	41650bb3          	sub	s7,a0,s6
20007eb0:	000b8c13          	mv	s8,s7
20007eb4:	01797463          	bgeu	s2,s7,20007ebc <__sfvwrite_r+0x104>
20007eb8:	00090c13          	mv	s8,s2
20007ebc:	01442683          	lw	a3,20(s0)
20007ec0:	00842483          	lw	s1,8(s0)
20007ec4:	00042503          	lw	a0,0(s0)
20007ec8:	01042783          	lw	a5,16(s0)
20007ecc:	009684b3          	add	s1,a3,s1
20007ed0:	2ea7fc63          	bgeu	a5,a0,200081c8 <__sfvwrite_r+0x410>
20007ed4:	2f84da63          	bge	s1,s8,200081c8 <__sfvwrite_r+0x410>
20007ed8:	000b0593          	mv	a1,s6
20007edc:	00048613          	mv	a2,s1
20007ee0:	471000ef          	jal	20008b50 <memmove>
20007ee4:	00042783          	lw	a5,0(s0)
20007ee8:	00040593          	mv	a1,s0
20007eec:	00098513          	mv	a0,s3
20007ef0:	009787b3          	add	a5,a5,s1
20007ef4:	00f42023          	sw	a5,0(s0)
20007ef8:	b3dff0ef          	jal	20007a34 <_fflush_r>
20007efc:	14051063          	bnez	a0,2000803c <__sfvwrite_r+0x284>
20007f00:	409b8bb3          	sub	s7,s7,s1
20007f04:	00100513          	li	a0,1
20007f08:	000b9a63          	bnez	s7,20007f1c <__sfvwrite_r+0x164>
20007f0c:	00040593          	mv	a1,s0
20007f10:	00098513          	mv	a0,s3
20007f14:	b21ff0ef          	jal	20007a34 <_fflush_r>
20007f18:	12051263          	bnez	a0,2000803c <__sfvwrite_r+0x284>
20007f1c:	008aa783          	lw	a5,8(s5)
20007f20:	409787b3          	sub	a5,a5,s1
20007f24:	00faa423          	sw	a5,8(s5)
20007f28:	ea0780e3          	beqz	a5,20007dc8 <__sfvwrite_r+0x10>
20007f2c:	009b0b33          	add	s6,s6,s1
20007f30:	40990933          	sub	s2,s2,s1
20007f34:	f55ff06f          	j	20007e88 <__sfvwrite_r+0xd0>
20007f38:	00040593          	mv	a1,s0
20007f3c:	00098513          	mv	a0,s3
20007f40:	724000ef          	jal	20008664 <__swsetup_r>
20007f44:	f0050ee3          	beqz	a0,20007e60 <__sfvwrite_r+0xa8>
20007f48:	fff00513          	li	a0,-1
20007f4c:	e81ff06f          	j	20007dcc <__sfvwrite_r+0x14>
20007f50:	000a2903          	lw	s2,0(s4)
20007f54:	004a2483          	lw	s1,4(s4)
20007f58:	008a0a13          	addi	s4,s4,8
20007f5c:	fe048ae3          	beqz	s1,20007f50 <__sfvwrite_r+0x198>
20007f60:	00048693          	mv	a3,s1
20007f64:	009b7663          	bgeu	s6,s1,20007f70 <__sfvwrite_r+0x1b8>
20007f68:	800006b7          	lui	a3,0x80000
20007f6c:	c0068693          	addi	a3,a3,-1024 # 7ffffc00 <__stack_top+0x5fff5cfc>
20007f70:	02842783          	lw	a5,40(s0)
20007f74:	02042583          	lw	a1,32(s0)
20007f78:	00090613          	mv	a2,s2
20007f7c:	00098513          	mv	a0,s3
20007f80:	000780e7          	jalr	a5
20007f84:	0aa05c63          	blez	a0,2000803c <__sfvwrite_r+0x284>
20007f88:	008aa783          	lw	a5,8(s5)
20007f8c:	40a787b3          	sub	a5,a5,a0
20007f90:	00faa423          	sw	a5,8(s5)
20007f94:	e2078ae3          	beqz	a5,20007dc8 <__sfvwrite_r+0x10>
20007f98:	00a90933          	add	s2,s2,a0
20007f9c:	40a484b3          	sub	s1,s1,a0
20007fa0:	fbdff06f          	j	20007f5c <__sfvwrite_r+0x1a4>
20007fa4:	80000b37          	lui	s6,0x80000
20007fa8:	00000913          	li	s2,0
20007fac:	00000493          	li	s1,0
20007fb0:	c00b0b13          	addi	s6,s6,-1024 # 7ffffc00 <__stack_top+0x5fff5cfc>
20007fb4:	fa9ff06f          	j	20007f5c <__sfvwrite_r+0x1a4>
20007fb8:	000a2b03          	lw	s6,0(s4)
20007fbc:	004a2483          	lw	s1,4(s4)
20007fc0:	008a0a13          	addi	s4,s4,8
20007fc4:	fe048ae3          	beqz	s1,20007fb8 <__sfvwrite_r+0x200>
20007fc8:	00c41783          	lh	a5,12(s0)
20007fcc:	00842d03          	lw	s10,8(s0)
20007fd0:	00042503          	lw	a0,0(s0)
20007fd4:	2007f713          	andi	a4,a5,512
20007fd8:	14070863          	beqz	a4,20008128 <__sfvwrite_r+0x370>
20007fdc:	000d0d93          	mv	s11,s10
20007fe0:	13a4ec63          	bltu	s1,s10,20008118 <__sfvwrite_r+0x360>
20007fe4:	4807f713          	andi	a4,a5,1152
20007fe8:	12070c63          	beqz	a4,20008120 <__sfvwrite_r+0x368>
20007fec:	01442903          	lw	s2,20(s0)
20007ff0:	01042583          	lw	a1,16(s0)
20007ff4:	03890933          	mul	s2,s2,s8
20007ff8:	40b50db3          	sub	s11,a0,a1
20007ffc:	001d8713          	addi	a4,s11,1
20008000:	00970733          	add	a4,a4,s1
20008004:	03994933          	div	s2,s2,s9
20008008:	00090613          	mv	a2,s2
2000800c:	00e97663          	bgeu	s2,a4,20008018 <__sfvwrite_r+0x260>
20008010:	00070913          	mv	s2,a4
20008014:	00070613          	mv	a2,a4
20008018:	4007f793          	andi	a5,a5,1024
2000801c:	0c078863          	beqz	a5,200080ec <__sfvwrite_r+0x334>
20008020:	00060593          	mv	a1,a2
20008024:	00098513          	mv	a0,s3
20008028:	cbdfe0ef          	jal	20006ce4 <_malloc_r>
2000802c:	00050d13          	mv	s10,a0
20008030:	02051c63          	bnez	a0,20008068 <__sfvwrite_r+0x2b0>
20008034:	00c00793          	li	a5,12
20008038:	00f9a023          	sw	a5,0(s3)
2000803c:	00c45783          	lhu	a5,12(s0)
20008040:	0407e793          	ori	a5,a5,64
20008044:	00f41623          	sh	a5,12(s0)
20008048:	f01ff06f          	j	20007f48 <__sfvwrite_r+0x190>
2000804c:	80000bb7          	lui	s7,0x80000
20008050:	00000b13          	li	s6,0
20008054:	00000493          	li	s1,0
20008058:	fffb8b93          	addi	s7,s7,-1 # 7fffffff <__stack_top+0x5fff60fb>
2000805c:	00300c13          	li	s8,3
20008060:	00200c93          	li	s9,2
20008064:	f61ff06f          	j	20007fc4 <__sfvwrite_r+0x20c>
20008068:	01042583          	lw	a1,16(s0)
2000806c:	000d8613          	mv	a2,s11
20008070:	339000ef          	jal	20008ba8 <memcpy>
20008074:	00c45783          	lhu	a5,12(s0)
20008078:	b7f7f793          	andi	a5,a5,-1153
2000807c:	0807e793          	ori	a5,a5,128
20008080:	00f41623          	sh	a5,12(s0)
20008084:	01a42823          	sw	s10,16(s0)
20008088:	01242a23          	sw	s2,20(s0)
2000808c:	01bd0d33          	add	s10,s10,s11
20008090:	41b90933          	sub	s2,s2,s11
20008094:	01a42023          	sw	s10,0(s0)
20008098:	01242423          	sw	s2,8(s0)
2000809c:	00048d13          	mv	s10,s1
200080a0:	00048913          	mv	s2,s1
200080a4:	00048d93          	mv	s11,s1
200080a8:	00042503          	lw	a0,0(s0)
200080ac:	000d8613          	mv	a2,s11
200080b0:	000b0593          	mv	a1,s6
200080b4:	29d000ef          	jal	20008b50 <memmove>
200080b8:	00842783          	lw	a5,8(s0)
200080bc:	41a787b3          	sub	a5,a5,s10
200080c0:	00f42423          	sw	a5,8(s0)
200080c4:	00042783          	lw	a5,0(s0)
200080c8:	01b787b3          	add	a5,a5,s11
200080cc:	00f42023          	sw	a5,0(s0)
200080d0:	008aa783          	lw	a5,8(s5)
200080d4:	412787b3          	sub	a5,a5,s2
200080d8:	00faa423          	sw	a5,8(s5)
200080dc:	ce0786e3          	beqz	a5,20007dc8 <__sfvwrite_r+0x10>
200080e0:	012b0b33          	add	s6,s6,s2
200080e4:	412484b3          	sub	s1,s1,s2
200080e8:	eddff06f          	j	20007fc4 <__sfvwrite_r+0x20c>
200080ec:	00098513          	mv	a0,s3
200080f0:	2dd000ef          	jal	20008bcc <_realloc_r>
200080f4:	00050d13          	mv	s10,a0
200080f8:	f80516e3          	bnez	a0,20008084 <__sfvwrite_r+0x2cc>
200080fc:	01042583          	lw	a1,16(s0)
20008100:	00098513          	mv	a0,s3
20008104:	a3dfe0ef          	jal	20006b40 <_free_r>
20008108:	00c45783          	lhu	a5,12(s0)
2000810c:	f7f7f793          	andi	a5,a5,-129
20008110:	00f41623          	sh	a5,12(s0)
20008114:	f21ff06f          	j	20008034 <__sfvwrite_r+0x27c>
20008118:	00048d13          	mv	s10,s1
2000811c:	f85ff06f          	j	200080a0 <__sfvwrite_r+0x2e8>
20008120:	00048913          	mv	s2,s1
20008124:	f85ff06f          	j	200080a8 <__sfvwrite_r+0x2f0>
20008128:	01042783          	lw	a5,16(s0)
2000812c:	00a7e663          	bltu	a5,a0,20008138 <__sfvwrite_r+0x380>
20008130:	01442683          	lw	a3,20(s0)
20008134:	04d4f663          	bgeu	s1,a3,20008180 <__sfvwrite_r+0x3c8>
20008138:	000d0913          	mv	s2,s10
2000813c:	01a4f463          	bgeu	s1,s10,20008144 <__sfvwrite_r+0x38c>
20008140:	00048913          	mv	s2,s1
20008144:	00090613          	mv	a2,s2
20008148:	000b0593          	mv	a1,s6
2000814c:	205000ef          	jal	20008b50 <memmove>
20008150:	00842783          	lw	a5,8(s0)
20008154:	00042703          	lw	a4,0(s0)
20008158:	412787b3          	sub	a5,a5,s2
2000815c:	01270733          	add	a4,a4,s2
20008160:	00f42423          	sw	a5,8(s0)
20008164:	00e42023          	sw	a4,0(s0)
20008168:	f60794e3          	bnez	a5,200080d0 <__sfvwrite_r+0x318>
2000816c:	00040593          	mv	a1,s0
20008170:	00098513          	mv	a0,s3
20008174:	8c1ff0ef          	jal	20007a34 <_fflush_r>
20008178:	f4050ce3          	beqz	a0,200080d0 <__sfvwrite_r+0x318>
2000817c:	ec1ff06f          	j	2000803c <__sfvwrite_r+0x284>
20008180:	00048793          	mv	a5,s1
20008184:	009bf463          	bgeu	s7,s1,2000818c <__sfvwrite_r+0x3d4>
20008188:	000b8793          	mv	a5,s7
2000818c:	02d7c7b3          	div	a5,a5,a3
20008190:	02842703          	lw	a4,40(s0)
20008194:	02042583          	lw	a1,32(s0)
20008198:	000b0613          	mv	a2,s6
2000819c:	00098513          	mv	a0,s3
200081a0:	02d786b3          	mul	a3,a5,a3
200081a4:	000700e7          	jalr	a4
200081a8:	00050913          	mv	s2,a0
200081ac:	f2a042e3          	bgtz	a0,200080d0 <__sfvwrite_r+0x318>
200081b0:	e8dff06f          	j	2000803c <__sfvwrite_r+0x284>
200081b4:	000a2b03          	lw	s6,0(s4)
200081b8:	004a2903          	lw	s2,4(s4)
200081bc:	00000513          	li	a0,0
200081c0:	008a0a13          	addi	s4,s4,8
200081c4:	cc5ff06f          	j	20007e88 <__sfvwrite_r+0xd0>
200081c8:	02dc4263          	blt	s8,a3,200081ec <__sfvwrite_r+0x434>
200081cc:	02842783          	lw	a5,40(s0)
200081d0:	02042583          	lw	a1,32(s0)
200081d4:	000b0613          	mv	a2,s6
200081d8:	00098513          	mv	a0,s3
200081dc:	000780e7          	jalr	a5
200081e0:	00050493          	mv	s1,a0
200081e4:	d0a04ee3          	bgtz	a0,20007f00 <__sfvwrite_r+0x148>
200081e8:	e55ff06f          	j	2000803c <__sfvwrite_r+0x284>
200081ec:	000c0613          	mv	a2,s8
200081f0:	000b0593          	mv	a1,s6
200081f4:	15d000ef          	jal	20008b50 <memmove>
200081f8:	00842783          	lw	a5,8(s0)
200081fc:	000c0493          	mv	s1,s8
20008200:	418787b3          	sub	a5,a5,s8
20008204:	00f42423          	sw	a5,8(s0)
20008208:	00042783          	lw	a5,0(s0)
2000820c:	018787b3          	add	a5,a5,s8
20008210:	00f42023          	sw	a5,0(s0)
20008214:	cedff06f          	j	20007f00 <__sfvwrite_r+0x148>

20008218 <_fwalk_sglue>:
20008218:	fd010113          	addi	sp,sp,-48
2000821c:	02812423          	sw	s0,40(sp)
20008220:	03212023          	sw	s2,32(sp)
20008224:	01312e23          	sw	s3,28(sp)
20008228:	01412c23          	sw	s4,24(sp)
2000822c:	01512a23          	sw	s5,20(sp)
20008230:	02112623          	sw	ra,44(sp)
20008234:	02912223          	sw	s1,36(sp)
20008238:	00050a13          	mv	s4,a0
2000823c:	00058a93          	mv	s5,a1
20008240:	00000413          	li	s0,0
20008244:	00100913          	li	s2,1
20008248:	fff00993          	li	s3,-1
2000824c:	00862583          	lw	a1,8(a2)
20008250:	00462483          	lw	s1,4(a2)
20008254:	fff48493          	addi	s1,s1,-1
20008258:	0204da63          	bgez	s1,2000828c <_fwalk_sglue+0x74>
2000825c:	00062603          	lw	a2,0(a2)
20008260:	fe0616e3          	bnez	a2,2000824c <_fwalk_sglue+0x34>
20008264:	02c12083          	lw	ra,44(sp)
20008268:	00040513          	mv	a0,s0
2000826c:	02812403          	lw	s0,40(sp)
20008270:	02412483          	lw	s1,36(sp)
20008274:	02012903          	lw	s2,32(sp)
20008278:	01c12983          	lw	s3,28(sp)
2000827c:	01812a03          	lw	s4,24(sp)
20008280:	01412a83          	lw	s5,20(sp)
20008284:	03010113          	addi	sp,sp,48
20008288:	00008067          	ret
2000828c:	00c5d783          	lhu	a5,12(a1)
20008290:	02f97463          	bgeu	s2,a5,200082b8 <_fwalk_sglue+0xa0>
20008294:	00e59783          	lh	a5,14(a1)
20008298:	03378063          	beq	a5,s3,200082b8 <_fwalk_sglue+0xa0>
2000829c:	000a0513          	mv	a0,s4
200082a0:	00c12623          	sw	a2,12(sp)
200082a4:	00b12423          	sw	a1,8(sp)
200082a8:	000a80e7          	jalr	s5
200082ac:	00c12603          	lw	a2,12(sp)
200082b0:	00812583          	lw	a1,8(sp)
200082b4:	00a46433          	or	s0,s0,a0
200082b8:	06858593          	addi	a1,a1,104
200082bc:	f99ff06f          	j	20008254 <_fwalk_sglue+0x3c>

200082c0 <__swhatbuf_r>:
200082c0:	f8010113          	addi	sp,sp,-128
200082c4:	06812c23          	sw	s0,120(sp)
200082c8:	00058413          	mv	s0,a1
200082cc:	00e59583          	lh	a1,14(a1)
200082d0:	06912a23          	sw	s1,116(sp)
200082d4:	06112e23          	sw	ra,124(sp)
200082d8:	00060493          	mv	s1,a2
200082dc:	0205da63          	bgez	a1,20008310 <__swhatbuf_r+0x50>
200082e0:	00c45783          	lhu	a5,12(s0)
200082e4:	0807f793          	andi	a5,a5,128
200082e8:	04079c63          	bnez	a5,20008340 <__swhatbuf_r+0x80>
200082ec:	40000713          	li	a4,1024
200082f0:	07c12083          	lw	ra,124(sp)
200082f4:	07812403          	lw	s0,120(sp)
200082f8:	00f6a023          	sw	a5,0(a3)
200082fc:	00e4a023          	sw	a4,0(s1)
20008300:	00000513          	li	a0,0
20008304:	07412483          	lw	s1,116(sp)
20008308:	08010113          	addi	sp,sp,128
2000830c:	00008067          	ret
20008310:	01810613          	addi	a2,sp,24
20008314:	00d12623          	sw	a3,12(sp)
20008318:	654000ef          	jal	2000896c <_fstat_r>
2000831c:	00c12683          	lw	a3,12(sp)
20008320:	fc0540e3          	bltz	a0,200082e0 <__swhatbuf_r+0x20>
20008324:	01c12783          	lw	a5,28(sp)
20008328:	0000f737          	lui	a4,0xf
2000832c:	00e7f7b3          	and	a5,a5,a4
20008330:	ffffe737          	lui	a4,0xffffe
20008334:	00e787b3          	add	a5,a5,a4
20008338:	0017b793          	seqz	a5,a5
2000833c:	fb1ff06f          	j	200082ec <__swhatbuf_r+0x2c>
20008340:	00000793          	li	a5,0
20008344:	04000713          	li	a4,64
20008348:	fa9ff06f          	j	200082f0 <__swhatbuf_r+0x30>

2000834c <__smakebuf_r>:
2000834c:	00c5d703          	lhu	a4,12(a1)
20008350:	fd010113          	addi	sp,sp,-48
20008354:	02812423          	sw	s0,40(sp)
20008358:	02112623          	sw	ra,44(sp)
2000835c:	02912223          	sw	s1,36(sp)
20008360:	00277713          	andi	a4,a4,2
20008364:	00058413          	mv	s0,a1
20008368:	02070663          	beqz	a4,20008394 <__smakebuf_r+0x48>
2000836c:	04740793          	addi	a5,s0,71
20008370:	00f42023          	sw	a5,0(s0)
20008374:	00f42823          	sw	a5,16(s0)
20008378:	00100793          	li	a5,1
2000837c:	00f42a23          	sw	a5,20(s0)
20008380:	02c12083          	lw	ra,44(sp)
20008384:	02812403          	lw	s0,40(sp)
20008388:	02412483          	lw	s1,36(sp)
2000838c:	03010113          	addi	sp,sp,48
20008390:	00008067          	ret
20008394:	01c10693          	addi	a3,sp,28
20008398:	01810613          	addi	a2,sp,24
2000839c:	00050493          	mv	s1,a0
200083a0:	f21ff0ef          	jal	200082c0 <__swhatbuf_r>
200083a4:	01812583          	lw	a1,24(sp)
200083a8:	00048513          	mv	a0,s1
200083ac:	00b12623          	sw	a1,12(sp)
200083b0:	935fe0ef          	jal	20006ce4 <_malloc_r>
200083b4:	00c41783          	lh	a5,12(s0)
200083b8:	00c12583          	lw	a1,12(sp)
200083bc:	00051e63          	bnez	a0,200083d8 <__smakebuf_r+0x8c>
200083c0:	2007f713          	andi	a4,a5,512
200083c4:	fa071ee3          	bnez	a4,20008380 <__smakebuf_r+0x34>
200083c8:	ffc7f793          	andi	a5,a5,-4
200083cc:	0027e793          	ori	a5,a5,2
200083d0:	00f41623          	sh	a5,12(s0)
200083d4:	f99ff06f          	j	2000836c <__smakebuf_r+0x20>
200083d8:	0807e793          	ori	a5,a5,128
200083dc:	00f41623          	sh	a5,12(s0)
200083e0:	01c12783          	lw	a5,28(sp)
200083e4:	00a42023          	sw	a0,0(s0)
200083e8:	00a42823          	sw	a0,16(s0)
200083ec:	00b42a23          	sw	a1,20(s0)
200083f0:	f80788e3          	beqz	a5,20008380 <__smakebuf_r+0x34>
200083f4:	00e41583          	lh	a1,14(s0)
200083f8:	00048513          	mv	a0,s1
200083fc:	5c0000ef          	jal	200089bc <_isatty_r>
20008400:	f80500e3          	beqz	a0,20008380 <__smakebuf_r+0x34>
20008404:	00c45783          	lhu	a5,12(s0)
20008408:	ffc7f793          	andi	a5,a5,-4
2000840c:	0017e793          	ori	a5,a5,1
20008410:	00f41623          	sh	a5,12(s0)
20008414:	f6dff06f          	j	20008380 <__smakebuf_r+0x34>

20008418 <__sread>:
20008418:	ff010113          	addi	sp,sp,-16
2000841c:	00812423          	sw	s0,8(sp)
20008420:	00058413          	mv	s0,a1
20008424:	00e59583          	lh	a1,14(a1)
20008428:	00112623          	sw	ra,12(sp)
2000842c:	630000ef          	jal	20008a5c <_read_r>
20008430:	02054063          	bltz	a0,20008450 <__sread+0x38>
20008434:	05442783          	lw	a5,84(s0)
20008438:	00a787b3          	add	a5,a5,a0
2000843c:	04f42a23          	sw	a5,84(s0)
20008440:	00c12083          	lw	ra,12(sp)
20008444:	00812403          	lw	s0,8(sp)
20008448:	01010113          	addi	sp,sp,16
2000844c:	00008067          	ret
20008450:	00c45783          	lhu	a5,12(s0)
20008454:	fffff737          	lui	a4,0xfffff
20008458:	fff70713          	addi	a4,a4,-1 # ffffefff <__stack_top+0xdfff50fb>
2000845c:	00e7f7b3          	and	a5,a5,a4
20008460:	00f41623          	sh	a5,12(s0)
20008464:	fddff06f          	j	20008440 <__sread+0x28>

20008468 <__seofread>:
20008468:	00000513          	li	a0,0
2000846c:	00008067          	ret

20008470 <__swrite>:
20008470:	00c5d783          	lhu	a5,12(a1)
20008474:	fe010113          	addi	sp,sp,-32
20008478:	00812c23          	sw	s0,24(sp)
2000847c:	00912a23          	sw	s1,20(sp)
20008480:	01212823          	sw	s2,16(sp)
20008484:	01312623          	sw	s3,12(sp)
20008488:	00112e23          	sw	ra,28(sp)
2000848c:	1007f793          	andi	a5,a5,256
20008490:	00050493          	mv	s1,a0
20008494:	00058413          	mv	s0,a1
20008498:	00060913          	mv	s2,a2
2000849c:	00068993          	mv	s3,a3
200084a0:	00078a63          	beqz	a5,200084b4 <__swrite+0x44>
200084a4:	00e59583          	lh	a1,14(a1)
200084a8:	00200693          	li	a3,2
200084ac:	00000613          	li	a2,0
200084b0:	558000ef          	jal	20008a08 <_lseek_r>
200084b4:	00c45783          	lhu	a5,12(s0)
200084b8:	fffff737          	lui	a4,0xfffff
200084bc:	fff70713          	addi	a4,a4,-1 # ffffefff <__stack_top+0xdfff50fb>
200084c0:	00e7f7b3          	and	a5,a5,a4
200084c4:	00e41583          	lh	a1,14(s0)
200084c8:	00f41623          	sh	a5,12(s0)
200084cc:	01812403          	lw	s0,24(sp)
200084d0:	01c12083          	lw	ra,28(sp)
200084d4:	00098693          	mv	a3,s3
200084d8:	00090613          	mv	a2,s2
200084dc:	00c12983          	lw	s3,12(sp)
200084e0:	01012903          	lw	s2,16(sp)
200084e4:	00048513          	mv	a0,s1
200084e8:	01412483          	lw	s1,20(sp)
200084ec:	02010113          	addi	sp,sp,32
200084f0:	60c0006f          	j	20008afc <_write_r>

200084f4 <__sseek>:
200084f4:	ff010113          	addi	sp,sp,-16
200084f8:	00812423          	sw	s0,8(sp)
200084fc:	00058413          	mv	s0,a1
20008500:	00e59583          	lh	a1,14(a1)
20008504:	00112623          	sw	ra,12(sp)
20008508:	500000ef          	jal	20008a08 <_lseek_r>
2000850c:	fff00713          	li	a4,-1
20008510:	00c41783          	lh	a5,12(s0)
20008514:	02e51263          	bne	a0,a4,20008538 <__sseek+0x44>
20008518:	80050713          	addi	a4,a0,-2048
2000851c:	80070713          	addi	a4,a4,-2048
20008520:	00e7f7b3          	and	a5,a5,a4
20008524:	00f41623          	sh	a5,12(s0)
20008528:	00c12083          	lw	ra,12(sp)
2000852c:	00812403          	lw	s0,8(sp)
20008530:	01010113          	addi	sp,sp,16
20008534:	00008067          	ret
20008538:	00001737          	lui	a4,0x1
2000853c:	00e7e7b3          	or	a5,a5,a4
20008540:	00f41623          	sh	a5,12(s0)
20008544:	04a42a23          	sw	a0,84(s0)
20008548:	fe1ff06f          	j	20008528 <__sseek+0x34>

2000854c <__sclose>:
2000854c:	00e59583          	lh	a1,14(a1)
20008550:	2540006f          	j	200087a4 <_close_r>

20008554 <__swbuf_r>:
20008554:	fe010113          	addi	sp,sp,-32
20008558:	00812c23          	sw	s0,24(sp)
2000855c:	00912a23          	sw	s1,20(sp)
20008560:	01312623          	sw	s3,12(sp)
20008564:	00112e23          	sw	ra,28(sp)
20008568:	01212823          	sw	s2,16(sp)
2000856c:	00050493          	mv	s1,a0
20008570:	00058993          	mv	s3,a1
20008574:	00060413          	mv	s0,a2
20008578:	00050863          	beqz	a0,20008588 <__swbuf_r+0x34>
2000857c:	02052783          	lw	a5,32(a0)
20008580:	00079463          	bnez	a5,20008588 <__swbuf_r+0x34>
20008584:	fd4ff0ef          	jal	20007d58 <__sinit>
20008588:	01842783          	lw	a5,24(s0)
2000858c:	00f42423          	sw	a5,8(s0)
20008590:	00c45783          	lhu	a5,12(s0)
20008594:	0087f793          	andi	a5,a5,8
20008598:	00078663          	beqz	a5,200085a4 <__swbuf_r+0x50>
2000859c:	01042783          	lw	a5,16(s0)
200085a0:	02079c63          	bnez	a5,200085d8 <__swbuf_r+0x84>
200085a4:	00040593          	mv	a1,s0
200085a8:	00048513          	mv	a0,s1
200085ac:	0b8000ef          	jal	20008664 <__swsetup_r>
200085b0:	02050463          	beqz	a0,200085d8 <__swbuf_r+0x84>
200085b4:	fff00913          	li	s2,-1
200085b8:	01c12083          	lw	ra,28(sp)
200085bc:	01812403          	lw	s0,24(sp)
200085c0:	01412483          	lw	s1,20(sp)
200085c4:	00c12983          	lw	s3,12(sp)
200085c8:	00090513          	mv	a0,s2
200085cc:	01012903          	lw	s2,16(sp)
200085d0:	02010113          	addi	sp,sp,32
200085d4:	00008067          	ret
200085d8:	01042783          	lw	a5,16(s0)
200085dc:	00042503          	lw	a0,0(s0)
200085e0:	40f50533          	sub	a0,a0,a5
200085e4:	01442783          	lw	a5,20(s0)
200085e8:	00f54a63          	blt	a0,a5,200085fc <__swbuf_r+0xa8>
200085ec:	00040593          	mv	a1,s0
200085f0:	00048513          	mv	a0,s1
200085f4:	c40ff0ef          	jal	20007a34 <_fflush_r>
200085f8:	fa051ee3          	bnez	a0,200085b4 <__swbuf_r+0x60>
200085fc:	00842783          	lw	a5,8(s0)
20008600:	00150513          	addi	a0,a0,1
20008604:	0ff9f913          	zext.b	s2,s3
20008608:	fff78793          	addi	a5,a5,-1
2000860c:	00f42423          	sw	a5,8(s0)
20008610:	00042783          	lw	a5,0(s0)
20008614:	00178713          	addi	a4,a5,1
20008618:	00e42023          	sw	a4,0(s0)
2000861c:	01378023          	sb	s3,0(a5)
20008620:	01442783          	lw	a5,20(s0)
20008624:	00a78c63          	beq	a5,a0,2000863c <__swbuf_r+0xe8>
20008628:	00c45783          	lhu	a5,12(s0)
2000862c:	0017f793          	andi	a5,a5,1
20008630:	f80784e3          	beqz	a5,200085b8 <__swbuf_r+0x64>
20008634:	ff690793          	addi	a5,s2,-10
20008638:	f80790e3          	bnez	a5,200085b8 <__swbuf_r+0x64>
2000863c:	00040593          	mv	a1,s0
20008640:	00048513          	mv	a0,s1
20008644:	bf0ff0ef          	jal	20007a34 <_fflush_r>
20008648:	f60508e3          	beqz	a0,200085b8 <__swbuf_r+0x64>
2000864c:	f69ff06f          	j	200085b4 <__swbuf_r+0x60>

20008650 <__swbuf>:
20008650:	200097b7          	lui	a5,0x20009
20008654:	00058613          	mv	a2,a1
20008658:	00050593          	mv	a1,a0
2000865c:	17c7a503          	lw	a0,380(a5) # 2000917c <_impure_ptr>
20008660:	ef5ff06f          	j	20008554 <__swbuf_r>

20008664 <__swsetup_r>:
20008664:	ff010113          	addi	sp,sp,-16
20008668:	200097b7          	lui	a5,0x20009
2000866c:	00912223          	sw	s1,4(sp)
20008670:	00050493          	mv	s1,a0
20008674:	17c7a503          	lw	a0,380(a5) # 2000917c <_impure_ptr>
20008678:	00812423          	sw	s0,8(sp)
2000867c:	00112623          	sw	ra,12(sp)
20008680:	00058413          	mv	s0,a1
20008684:	00050863          	beqz	a0,20008694 <__swsetup_r+0x30>
20008688:	02052783          	lw	a5,32(a0)
2000868c:	00079463          	bnez	a5,20008694 <__swsetup_r+0x30>
20008690:	ec8ff0ef          	jal	20007d58 <__sinit>
20008694:	00c41783          	lh	a5,12(s0)
20008698:	0087f713          	andi	a4,a5,8
2000869c:	06071263          	bnez	a4,20008700 <__swsetup_r+0x9c>
200086a0:	0107f713          	andi	a4,a5,16
200086a4:	00071e63          	bnez	a4,200086c0 <__swsetup_r+0x5c>
200086a8:	00900713          	li	a4,9
200086ac:	00e4a023          	sw	a4,0(s1)
200086b0:	0407e793          	ori	a5,a5,64
200086b4:	00f41623          	sh	a5,12(s0)
200086b8:	fff00513          	li	a0,-1
200086bc:	0980006f          	j	20008754 <__swsetup_r+0xf0>
200086c0:	0047f713          	andi	a4,a5,4
200086c4:	02070a63          	beqz	a4,200086f8 <__swsetup_r+0x94>
200086c8:	03442583          	lw	a1,52(s0)
200086cc:	00058c63          	beqz	a1,200086e4 <__swsetup_r+0x80>
200086d0:	04440793          	addi	a5,s0,68
200086d4:	00f58663          	beq	a1,a5,200086e0 <__swsetup_r+0x7c>
200086d8:	00048513          	mv	a0,s1
200086dc:	c64fe0ef          	jal	20006b40 <_free_r>
200086e0:	02042a23          	sw	zero,52(s0)
200086e4:	00c45783          	lhu	a5,12(s0)
200086e8:	01042703          	lw	a4,16(s0)
200086ec:	00042223          	sw	zero,4(s0)
200086f0:	fdb7f793          	andi	a5,a5,-37
200086f4:	00e42023          	sw	a4,0(s0)
200086f8:	0087e793          	ori	a5,a5,8
200086fc:	00f41623          	sh	a5,12(s0)
20008700:	01042783          	lw	a5,16(s0)
20008704:	02079063          	bnez	a5,20008724 <__swsetup_r+0xc0>
20008708:	00c42783          	lw	a5,12(s0)
2000870c:	20000713          	li	a4,512
20008710:	2807f793          	andi	a5,a5,640
20008714:	00e78863          	beq	a5,a4,20008724 <__swsetup_r+0xc0>
20008718:	00040593          	mv	a1,s0
2000871c:	00048513          	mv	a0,s1
20008720:	c2dff0ef          	jal	2000834c <__smakebuf_r>
20008724:	00c41783          	lh	a5,12(s0)
20008728:	0017f713          	andi	a4,a5,1
2000872c:	02070e63          	beqz	a4,20008768 <__swsetup_r+0x104>
20008730:	01442703          	lw	a4,20(s0)
20008734:	00042423          	sw	zero,8(s0)
20008738:	40e00733          	neg	a4,a4
2000873c:	00e42c23          	sw	a4,24(s0)
20008740:	01042703          	lw	a4,16(s0)
20008744:	00000513          	li	a0,0
20008748:	00071663          	bnez	a4,20008754 <__swsetup_r+0xf0>
2000874c:	0807f713          	andi	a4,a5,128
20008750:	f60710e3          	bnez	a4,200086b0 <__swsetup_r+0x4c>
20008754:	00c12083          	lw	ra,12(sp)
20008758:	00812403          	lw	s0,8(sp)
2000875c:	00412483          	lw	s1,4(sp)
20008760:	01010113          	addi	sp,sp,16
20008764:	00008067          	ret
20008768:	0027f713          	andi	a4,a5,2
2000876c:	00000693          	li	a3,0
20008770:	00071463          	bnez	a4,20008778 <__swsetup_r+0x114>
20008774:	01442683          	lw	a3,20(s0)
20008778:	00d42423          	sw	a3,8(s0)
2000877c:	fc5ff06f          	j	20008740 <__swsetup_r+0xdc>

20008780 <memchr>:
20008780:	0ff5f593          	zext.b	a1,a1
20008784:	00c50633          	add	a2,a0,a2
20008788:	00c51663          	bne	a0,a2,20008794 <memchr+0x14>
2000878c:	00000513          	li	a0,0
20008790:	00008067          	ret
20008794:	00054783          	lbu	a5,0(a0)
20008798:	feb78ce3          	beq	a5,a1,20008790 <memchr+0x10>
2000879c:	00150513          	addi	a0,a0,1
200087a0:	fe9ff06f          	j	20008788 <memchr+0x8>

200087a4 <_close_r>:
200087a4:	ff010113          	addi	sp,sp,-16
200087a8:	00812423          	sw	s0,8(sp)
200087ac:	00912223          	sw	s1,4(sp)
200087b0:	20009437          	lui	s0,0x20009
200087b4:	00050493          	mv	s1,a0
200087b8:	00058513          	mv	a0,a1
200087bc:	00112623          	sw	ra,12(sp)
200087c0:	30042023          	sw	zero,768(s0) # 20009300 <errno>
200087c4:	decfb0ef          	jal	20003db0 <_close>
200087c8:	fff00793          	li	a5,-1
200087cc:	00f51863          	bne	a0,a5,200087dc <_close_r+0x38>
200087d0:	30042783          	lw	a5,768(s0)
200087d4:	00078463          	beqz	a5,200087dc <_close_r+0x38>
200087d8:	00f4a023          	sw	a5,0(s1)
200087dc:	00c12083          	lw	ra,12(sp)
200087e0:	00812403          	lw	s0,8(sp)
200087e4:	00412483          	lw	s1,4(sp)
200087e8:	01010113          	addi	sp,sp,16
200087ec:	00008067          	ret

200087f0 <_reclaim_reent>:
200087f0:	200097b7          	lui	a5,0x20009
200087f4:	17c7a783          	lw	a5,380(a5) # 2000917c <_impure_ptr>
200087f8:	16a78863          	beq	a5,a0,20008968 <_reclaim_reent+0x178>
200087fc:	01c52783          	lw	a5,28(a0)
20008800:	fe010113          	addi	sp,sp,-32
20008804:	00812c23          	sw	s0,24(sp)
20008808:	00112e23          	sw	ra,28(sp)
2000880c:	00912a23          	sw	s1,20(sp)
20008810:	01212823          	sw	s2,16(sp)
20008814:	01312623          	sw	s3,12(sp)
20008818:	00050413          	mv	s0,a0
2000881c:	08078463          	beqz	a5,200088a4 <_reclaim_reent+0xb4>
20008820:	00c7a783          	lw	a5,12(a5)
20008824:	02078c63          	beqz	a5,2000885c <_reclaim_reent+0x6c>
20008828:	00000493          	li	s1,0
2000882c:	08000913          	li	s2,128
20008830:	01c42783          	lw	a5,28(s0)
20008834:	00c7a783          	lw	a5,12(a5)
20008838:	009787b3          	add	a5,a5,s1
2000883c:	0007a583          	lw	a1,0(a5)
20008840:	04059863          	bnez	a1,20008890 <_reclaim_reent+0xa0>
20008844:	00448493          	addi	s1,s1,4
20008848:	ff2494e3          	bne	s1,s2,20008830 <_reclaim_reent+0x40>
2000884c:	01c42783          	lw	a5,28(s0)
20008850:	00040513          	mv	a0,s0
20008854:	00c7a583          	lw	a1,12(a5)
20008858:	ae8fe0ef          	jal	20006b40 <_free_r>
2000885c:	01c42783          	lw	a5,28(s0)
20008860:	0007a583          	lw	a1,0(a5)
20008864:	00058663          	beqz	a1,20008870 <_reclaim_reent+0x80>
20008868:	00040513          	mv	a0,s0
2000886c:	ad4fe0ef          	jal	20006b40 <_free_r>
20008870:	01c42783          	lw	a5,28(s0)
20008874:	0087a483          	lw	s1,8(a5)
20008878:	02048663          	beqz	s1,200088a4 <_reclaim_reent+0xb4>
2000887c:	00048593          	mv	a1,s1
20008880:	00040513          	mv	a0,s0
20008884:	0004a483          	lw	s1,0(s1)
20008888:	ab8fe0ef          	jal	20006b40 <_free_r>
2000888c:	fedff06f          	j	20008878 <_reclaim_reent+0x88>
20008890:	0005a983          	lw	s3,0(a1)
20008894:	00040513          	mv	a0,s0
20008898:	aa8fe0ef          	jal	20006b40 <_free_r>
2000889c:	00098593          	mv	a1,s3
200088a0:	fa1ff06f          	j	20008840 <_reclaim_reent+0x50>
200088a4:	01442583          	lw	a1,20(s0)
200088a8:	00058663          	beqz	a1,200088b4 <_reclaim_reent+0xc4>
200088ac:	00040513          	mv	a0,s0
200088b0:	a90fe0ef          	jal	20006b40 <_free_r>
200088b4:	01c42583          	lw	a1,28(s0)
200088b8:	00058663          	beqz	a1,200088c4 <_reclaim_reent+0xd4>
200088bc:	00040513          	mv	a0,s0
200088c0:	a80fe0ef          	jal	20006b40 <_free_r>
200088c4:	03042583          	lw	a1,48(s0)
200088c8:	00058663          	beqz	a1,200088d4 <_reclaim_reent+0xe4>
200088cc:	00040513          	mv	a0,s0
200088d0:	a70fe0ef          	jal	20006b40 <_free_r>
200088d4:	03442583          	lw	a1,52(s0)
200088d8:	00058663          	beqz	a1,200088e4 <_reclaim_reent+0xf4>
200088dc:	00040513          	mv	a0,s0
200088e0:	a60fe0ef          	jal	20006b40 <_free_r>
200088e4:	03842583          	lw	a1,56(s0)
200088e8:	00058663          	beqz	a1,200088f4 <_reclaim_reent+0x104>
200088ec:	00040513          	mv	a0,s0
200088f0:	a50fe0ef          	jal	20006b40 <_free_r>
200088f4:	04842583          	lw	a1,72(s0)
200088f8:	00058663          	beqz	a1,20008904 <_reclaim_reent+0x114>
200088fc:	00040513          	mv	a0,s0
20008900:	a40fe0ef          	jal	20006b40 <_free_r>
20008904:	04442583          	lw	a1,68(s0)
20008908:	00058663          	beqz	a1,20008914 <_reclaim_reent+0x124>
2000890c:	00040513          	mv	a0,s0
20008910:	a30fe0ef          	jal	20006b40 <_free_r>
20008914:	02c42583          	lw	a1,44(s0)
20008918:	00058663          	beqz	a1,20008924 <_reclaim_reent+0x134>
2000891c:	00040513          	mv	a0,s0
20008920:	a20fe0ef          	jal	20006b40 <_free_r>
20008924:	02042783          	lw	a5,32(s0)
20008928:	02078263          	beqz	a5,2000894c <_reclaim_reent+0x15c>
2000892c:	00040513          	mv	a0,s0
20008930:	01812403          	lw	s0,24(sp)
20008934:	01c12083          	lw	ra,28(sp)
20008938:	01412483          	lw	s1,20(sp)
2000893c:	01012903          	lw	s2,16(sp)
20008940:	00c12983          	lw	s3,12(sp)
20008944:	02010113          	addi	sp,sp,32
20008948:	00078067          	jr	a5
2000894c:	01c12083          	lw	ra,28(sp)
20008950:	01812403          	lw	s0,24(sp)
20008954:	01412483          	lw	s1,20(sp)
20008958:	01012903          	lw	s2,16(sp)
2000895c:	00c12983          	lw	s3,12(sp)
20008960:	02010113          	addi	sp,sp,32
20008964:	00008067          	ret
20008968:	00008067          	ret

2000896c <_fstat_r>:
2000896c:	ff010113          	addi	sp,sp,-16
20008970:	00812423          	sw	s0,8(sp)
20008974:	00912223          	sw	s1,4(sp)
20008978:	20009437          	lui	s0,0x20009
2000897c:	00050493          	mv	s1,a0
20008980:	00058513          	mv	a0,a1
20008984:	00060593          	mv	a1,a2
20008988:	00112623          	sw	ra,12(sp)
2000898c:	30042023          	sw	zero,768(s0) # 20009300 <errno>
20008990:	c80fb0ef          	jal	20003e10 <_fstat>
20008994:	fff00793          	li	a5,-1
20008998:	00f51863          	bne	a0,a5,200089a8 <_fstat_r+0x3c>
2000899c:	30042783          	lw	a5,768(s0)
200089a0:	00078463          	beqz	a5,200089a8 <_fstat_r+0x3c>
200089a4:	00f4a023          	sw	a5,0(s1)
200089a8:	00c12083          	lw	ra,12(sp)
200089ac:	00812403          	lw	s0,8(sp)
200089b0:	00412483          	lw	s1,4(sp)
200089b4:	01010113          	addi	sp,sp,16
200089b8:	00008067          	ret

200089bc <_isatty_r>:
200089bc:	ff010113          	addi	sp,sp,-16
200089c0:	00812423          	sw	s0,8(sp)
200089c4:	00912223          	sw	s1,4(sp)
200089c8:	20009437          	lui	s0,0x20009
200089cc:	00050493          	mv	s1,a0
200089d0:	00058513          	mv	a0,a1
200089d4:	00112623          	sw	ra,12(sp)
200089d8:	30042023          	sw	zero,768(s0) # 20009300 <errno>
200089dc:	ca4fb0ef          	jal	20003e80 <_isatty>
200089e0:	fff00793          	li	a5,-1
200089e4:	00f51863          	bne	a0,a5,200089f4 <_isatty_r+0x38>
200089e8:	30042783          	lw	a5,768(s0)
200089ec:	00078463          	beqz	a5,200089f4 <_isatty_r+0x38>
200089f0:	00f4a023          	sw	a5,0(s1)
200089f4:	00c12083          	lw	ra,12(sp)
200089f8:	00812403          	lw	s0,8(sp)
200089fc:	00412483          	lw	s1,4(sp)
20008a00:	01010113          	addi	sp,sp,16
20008a04:	00008067          	ret

20008a08 <_lseek_r>:
20008a08:	ff010113          	addi	sp,sp,-16
20008a0c:	00812423          	sw	s0,8(sp)
20008a10:	00912223          	sw	s1,4(sp)
20008a14:	20009437          	lui	s0,0x20009
20008a18:	00050493          	mv	s1,a0
20008a1c:	00058513          	mv	a0,a1
20008a20:	00060593          	mv	a1,a2
20008a24:	00068613          	mv	a2,a3
20008a28:	00112623          	sw	ra,12(sp)
20008a2c:	30042023          	sw	zero,768(s0) # 20009300 <errno>
20008a30:	c1cfb0ef          	jal	20003e4c <_lseek>
20008a34:	fff00793          	li	a5,-1
20008a38:	00f51863          	bne	a0,a5,20008a48 <_lseek_r+0x40>
20008a3c:	30042783          	lw	a5,768(s0)
20008a40:	00078463          	beqz	a5,20008a48 <_lseek_r+0x40>
20008a44:	00f4a023          	sw	a5,0(s1)
20008a48:	00c12083          	lw	ra,12(sp)
20008a4c:	00812403          	lw	s0,8(sp)
20008a50:	00412483          	lw	s1,4(sp)
20008a54:	01010113          	addi	sp,sp,16
20008a58:	00008067          	ret

20008a5c <_read_r>:
20008a5c:	ff010113          	addi	sp,sp,-16
20008a60:	00812423          	sw	s0,8(sp)
20008a64:	00912223          	sw	s1,4(sp)
20008a68:	20009437          	lui	s0,0x20009
20008a6c:	00050493          	mv	s1,a0
20008a70:	00058513          	mv	a0,a1
20008a74:	00060593          	mv	a1,a2
20008a78:	00068613          	mv	a2,a3
20008a7c:	00112623          	sw	ra,12(sp)
20008a80:	30042023          	sw	zero,768(s0) # 20009300 <errno>
20008a84:	c90fb0ef          	jal	20003f14 <_read>
20008a88:	fff00793          	li	a5,-1
20008a8c:	00f51863          	bne	a0,a5,20008a9c <_read_r+0x40>
20008a90:	30042783          	lw	a5,768(s0)
20008a94:	00078463          	beqz	a5,20008a9c <_read_r+0x40>
20008a98:	00f4a023          	sw	a5,0(s1)
20008a9c:	00c12083          	lw	ra,12(sp)
20008aa0:	00812403          	lw	s0,8(sp)
20008aa4:	00412483          	lw	s1,4(sp)
20008aa8:	01010113          	addi	sp,sp,16
20008aac:	00008067          	ret

20008ab0 <_sbrk_r>:
20008ab0:	ff010113          	addi	sp,sp,-16
20008ab4:	00812423          	sw	s0,8(sp)
20008ab8:	00912223          	sw	s1,4(sp)
20008abc:	20009437          	lui	s0,0x20009
20008ac0:	00050493          	mv	s1,a0
20008ac4:	00058513          	mv	a0,a1
20008ac8:	00112623          	sw	ra,12(sp)
20008acc:	30042023          	sw	zero,768(s0) # 20009300 <errno>
20008ad0:	f91fa0ef          	jal	20003a60 <_sbrk>
20008ad4:	fff00793          	li	a5,-1
20008ad8:	00f51863          	bne	a0,a5,20008ae8 <_sbrk_r+0x38>
20008adc:	30042783          	lw	a5,768(s0)
20008ae0:	00078463          	beqz	a5,20008ae8 <_sbrk_r+0x38>
20008ae4:	00f4a023          	sw	a5,0(s1)
20008ae8:	00c12083          	lw	ra,12(sp)
20008aec:	00812403          	lw	s0,8(sp)
20008af0:	00412483          	lw	s1,4(sp)
20008af4:	01010113          	addi	sp,sp,16
20008af8:	00008067          	ret

20008afc <_write_r>:
20008afc:	ff010113          	addi	sp,sp,-16
20008b00:	00812423          	sw	s0,8(sp)
20008b04:	00912223          	sw	s1,4(sp)
20008b08:	20009437          	lui	s0,0x20009
20008b0c:	00050493          	mv	s1,a0
20008b10:	00058513          	mv	a0,a1
20008b14:	00060593          	mv	a1,a2
20008b18:	00068613          	mv	a2,a3
20008b1c:	00112623          	sw	ra,12(sp)
20008b20:	30042023          	sw	zero,768(s0) # 20009300 <errno>
20008b24:	b88fb0ef          	jal	20003eac <_write>
20008b28:	fff00793          	li	a5,-1
20008b2c:	00f51863          	bne	a0,a5,20008b3c <_write_r+0x40>
20008b30:	30042783          	lw	a5,768(s0)
20008b34:	00078463          	beqz	a5,20008b3c <_write_r+0x40>
20008b38:	00f4a023          	sw	a5,0(s1)
20008b3c:	00c12083          	lw	ra,12(sp)
20008b40:	00812403          	lw	s0,8(sp)
20008b44:	00412483          	lw	s1,4(sp)
20008b48:	01010113          	addi	sp,sp,16
20008b4c:	00008067          	ret

20008b50 <memmove>:
20008b50:	02060c63          	beqz	a2,20008b88 <memmove+0x38>
20008b54:	00050313          	mv	t1,a0
20008b58:	00100693          	li	a3,1
20008b5c:	00b56a63          	bltu	a0,a1,20008b70 <memmove+0x20>
20008b60:	fff00693          	li	a3,-1
20008b64:	fff60713          	addi	a4,a2,-1
20008b68:	00e30333          	add	t1,t1,a4
20008b6c:	00e585b3          	add	a1,a1,a4
20008b70:	00058383          	lb	t2,0(a1)
20008b74:	00730023          	sb	t2,0(t1)
20008b78:	fff60613          	addi	a2,a2,-1
20008b7c:	00d30333          	add	t1,t1,a3
20008b80:	00d585b3          	add	a1,a1,a3
20008b84:	fe0616e3          	bnez	a2,20008b70 <memmove+0x20>
20008b88:	00008067          	ret

20008b8c <memset>:
20008b8c:	00050313          	mv	t1,a0
20008b90:	00060a63          	beqz	a2,20008ba4 <memset+0x18>
20008b94:	00b30023          	sb	a1,0(t1)
20008b98:	fff60613          	addi	a2,a2,-1
20008b9c:	00130313          	addi	t1,t1,1
20008ba0:	fe061ae3          	bnez	a2,20008b94 <memset+0x8>
20008ba4:	00008067          	ret

20008ba8 <memcpy>:
20008ba8:	00050313          	mv	t1,a0
20008bac:	00060e63          	beqz	a2,20008bc8 <memcpy+0x20>
20008bb0:	00058383          	lb	t2,0(a1)
20008bb4:	00730023          	sb	t2,0(t1)
20008bb8:	fff60613          	addi	a2,a2,-1
20008bbc:	00130313          	addi	t1,t1,1
20008bc0:	00158593          	addi	a1,a1,1
20008bc4:	fe0616e3          	bnez	a2,20008bb0 <memcpy+0x8>
20008bc8:	00008067          	ret

20008bcc <_realloc_r>:
20008bcc:	00059663          	bnez	a1,20008bd8 <_realloc_r+0xc>
20008bd0:	00060593          	mv	a1,a2
20008bd4:	910fe06f          	j	20006ce4 <_malloc_r>
20008bd8:	fe010113          	addi	sp,sp,-32
20008bdc:	00812c23          	sw	s0,24(sp)
20008be0:	01412423          	sw	s4,8(sp)
20008be4:	00112e23          	sw	ra,28(sp)
20008be8:	00912a23          	sw	s1,20(sp)
20008bec:	01212823          	sw	s2,16(sp)
20008bf0:	01312623          	sw	s3,12(sp)
20008bf4:	00060413          	mv	s0,a2
20008bf8:	00050a13          	mv	s4,a0
20008bfc:	02061863          	bnez	a2,20008c2c <_realloc_r+0x60>
20008c00:	f41fd0ef          	jal	20006b40 <_free_r>
20008c04:	00000493          	li	s1,0
20008c08:	01c12083          	lw	ra,28(sp)
20008c0c:	01812403          	lw	s0,24(sp)
20008c10:	01012903          	lw	s2,16(sp)
20008c14:	00c12983          	lw	s3,12(sp)
20008c18:	00812a03          	lw	s4,8(sp)
20008c1c:	00048513          	mv	a0,s1
20008c20:	01412483          	lw	s1,20(sp)
20008c24:	02010113          	addi	sp,sp,32
20008c28:	00008067          	ret
20008c2c:	00058493          	mv	s1,a1
20008c30:	058000ef          	jal	20008c88 <_malloc_usable_size_r>
20008c34:	00050913          	mv	s2,a0
20008c38:	00856663          	bltu	a0,s0,20008c44 <_realloc_r+0x78>
20008c3c:	00155793          	srli	a5,a0,0x1
20008c40:	fc87e4e3          	bltu	a5,s0,20008c08 <_realloc_r+0x3c>
20008c44:	00040593          	mv	a1,s0
20008c48:	000a0513          	mv	a0,s4
20008c4c:	898fe0ef          	jal	20006ce4 <_malloc_r>
20008c50:	00050993          	mv	s3,a0
20008c54:	00051663          	bnez	a0,20008c60 <_realloc_r+0x94>
20008c58:	00098493          	mv	s1,s3
20008c5c:	fadff06f          	j	20008c08 <_realloc_r+0x3c>
20008c60:	00040613          	mv	a2,s0
20008c64:	00897463          	bgeu	s2,s0,20008c6c <_realloc_r+0xa0>
20008c68:	00090613          	mv	a2,s2
20008c6c:	00048593          	mv	a1,s1
20008c70:	00098513          	mv	a0,s3
20008c74:	f35ff0ef          	jal	20008ba8 <memcpy>
20008c78:	00048593          	mv	a1,s1
20008c7c:	000a0513          	mv	a0,s4
20008c80:	ec1fd0ef          	jal	20006b40 <_free_r>
20008c84:	fd5ff06f          	j	20008c58 <_realloc_r+0x8c>

20008c88 <_malloc_usable_size_r>:
20008c88:	ffc5a783          	lw	a5,-4(a1)
20008c8c:	ffc78513          	addi	a0,a5,-4
20008c90:	0007d863          	bgez	a5,20008ca0 <_malloc_usable_size_r+0x18>
20008c94:	00a585b3          	add	a1,a1,a0
20008c98:	0005a783          	lw	a5,0(a1)
20008c9c:	00f50533          	add	a0,a0,a5
20008ca0:	00008067          	ret
	...
20008cac:	0000                	.insn	2, 0x0000
20008cae:	3fd0                	.insn	2, 0x3fd0
20008cb0:	0000                	.insn	2, 0x0000
20008cb2:	0000                	.insn	2, 0x0000
20008cb4:	0000                	.insn	2, 0x0000
20008cb6:	3fe0                	.insn	2, 0x3fe0
20008cb8:	500a                	.insn	2, 0x500a
20008cba:	6f72                	.insn	2, 0x6f72
20008cbc:	6d617267          	.insn	4, 0x6d617267
20008cc0:	6520                	.insn	2, 0x6520
20008cc2:	6978                	.insn	2, 0x6978
20008cc4:	6574                	.insn	2, 0x6574
20008cc6:	2064                	.insn	2, 0x2064
20008cc8:	68746977          	.insn	4, 0x68746977
20008ccc:	6320                	.insn	2, 0x6320
20008cce:	2065646f          	jal	s0,2005eed4 <__stack_top+0x54fd0>
20008cd2:	6425                	.insn	2, 0x6425
20008cd4:	000a                	.insn	2, 0x000a
	...

20008cd8 <__clz_tab>:
20008cd8:	0100 0202 0303 0303 0404 0404 0404 0404     ................
20008ce8:	0505 0505 0505 0505 0505 0505 0505 0505     ................
20008cf8:	0606 0606 0606 0606 0606 0606 0606 0606     ................
20008d08:	0606 0606 0606 0606 0606 0606 0606 0606     ................
20008d18:	0707 0707 0707 0707 0707 0707 0707 0707     ................
20008d28:	0707 0707 0707 0707 0707 0707 0707 0707     ................
20008d38:	0707 0707 0707 0707 0707 0707 0707 0707     ................
20008d48:	0707 0707 0707 0707 0707 0707 0707 0707     ................
20008d58:	0808 0808 0808 0808 0808 0808 0808 0808     ................
20008d68:	0808 0808 0808 0808 0808 0808 0808 0808     ................
20008d78:	0808 0808 0808 0808 0808 0808 0808 0808     ................
20008d88:	0808 0808 0808 0808 0808 0808 0808 0808     ................
20008d98:	0808 0808 0808 0808 0808 0808 0808 0808     ................
20008da8:	0808 0808 0808 0808 0808 0808 0808 0808     ................
20008db8:	0808 0808 0808 0808 0808 0808 0808 0808     ................
20008dc8:	0808 0808 0808 0808 0808 0808 0808 0808     ................
20008dd8:	2d23 2b30 0020 0000 6c68 004c 6665 4567     #-0+ ...hlL.efgE
20008de8:	4746 0000 3130 3332 3534 3736 3938 4241     FG..0123456789AB
20008df8:	4443 4645 0000 0000 3130 3332 3534 3736     CDEF....01234567
20008e08:	3938 6261 6463 6665 0000 0000 7564 2000     89abcdef....du. 
20008e18:	7584 2000 7534 2000 7534 2000 7534 2000     .u. 4u. 4u. 4u. 
20008e28:	7534 2000 7584 2000 7534 2000 7534 2000     4u. .u. 4u. 4u. 
20008e38:	7534 2000 7534 2000 7770 2000 75dc 2000     4u. 4u. pw. .u. 
20008e48:	76e8 2000 7534 2000 7534 2000 77b8 2000     .v. 4u. 4u. .w. 
20008e58:	7534 2000 75dc 2000 7534 2000 7534 2000     4u. .u. 4u. 4u. 
20008e68:	76f4 2000                                   .v. 
