
build/labb-4.elf:     file format elf32-littleriscv


Disassembly of section .text:

20000000 <_start>:
20000000:	2001c137          	lui	sp,0x2001c
20000004:	704010ef          	jal	20001708 <_crt_init>
20000008:	00001297          	auipc	t0,0x1
2000000c:	c6828293          	addi	t0,t0,-920 # 20000c70 <main>
20000010:	00000097          	auipc	ra,0x0
20000014:	01c08093          	addi	ra,ra,28 # 2000002c <exit>
20000018:	34129073          	csrw	mepc,t0
2000001c:	00004337          	lui	t1,0x4
20000020:	88030313          	addi	t1,t1,-1920 # 3880 <_start-0x1fffc780>
20000024:	30031073          	csrw	mstatus,t1
20000028:	30200073          	mret

2000002c <exit>:
2000002c:	125010ef          	jal	20001950 <_crt_deinit>
20000030:	0000006f          	j	20000030 <exit+0x4>

20000034 <init_gpio>:
20000034:	ff010113          	addi	sp,sp,-16 # 2001bff0 <__stack_top+0x1658c>
20000038:	00112623          	sw	ra,12(sp)
2000003c:	00812423          	sw	s0,8(sp)
20000040:	01010413          	addi	s0,sp,16
20000044:	400117b7          	lui	a5,0x40011
20000048:	40078793          	addi	a5,a5,1024 # 40011400 <__stack_top+0x2000b99c>
2000004c:	66669737          	lui	a4,0x66669
20000050:	88870713          	addi	a4,a4,-1912 # 66668888 <__stack_top+0x46662e24>
20000054:	00e7a023          	sw	a4,0(a5)
20000058:	400117b7          	lui	a5,0x40011
2000005c:	40078793          	addi	a5,a5,1024 # 40011400 <__stack_top+0x2000b99c>
20000060:	00f00713          	li	a4,15
20000064:	00e79823          	sh	a4,16(a5)
20000068:	400117b7          	lui	a5,0x40011
2000006c:	40078793          	addi	a5,a5,1024 # 40011400 <__stack_top+0x2000b99c>
20000070:	0f000713          	li	a4,240
20000074:	00e79a23          	sh	a4,20(a5)
20000078:	400127b7          	lui	a5,0x40012
2000007c:	80078793          	addi	a5,a5,-2048 # 40011800 <__stack_top+0x2000bd9c>
20000080:	0007a703          	lw	a4,0(a5)
20000084:	400127b7          	lui	a5,0x40012
20000088:	80078793          	addi	a5,a5,-2048 # 40011800 <__stack_top+0x2000bd9c>
2000008c:	ff077713          	andi	a4,a4,-16
20000090:	00e7a023          	sw	a4,0(a5)
20000094:	400127b7          	lui	a5,0x40012
20000098:	80078793          	addi	a5,a5,-2048 # 40011800 <__stack_top+0x2000bd9c>
2000009c:	0007a703          	lw	a4,0(a5)
200000a0:	400127b7          	lui	a5,0x40012
200000a4:	80078793          	addi	a5,a5,-2048 # 40011800 <__stack_top+0x2000bd9c>
200000a8:	00276713          	ori	a4,a4,2
200000ac:	00e7a023          	sw	a4,0(a5)
200000b0:	400117b7          	lui	a5,0x40011
200000b4:	40078793          	addi	a5,a5,1024 # 40011400 <__stack_top+0x2000b99c>
200000b8:	22222737          	lui	a4,0x22222
200000bc:	22270713          	addi	a4,a4,546 # 22222222 <__stack_top+0x221c7be>
200000c0:	00e7a223          	sw	a4,4(a5)
200000c4:	400117b7          	lui	a5,0x40011
200000c8:	40078793          	addi	a5,a5,1024 # 40011400 <__stack_top+0x2000b99c>
200000cc:	f0000713          	li	a4,-256
200000d0:	00e79a23          	sh	a4,20(a5)
200000d4:	00000013          	nop
200000d8:	00c12083          	lw	ra,12(sp)
200000dc:	00812403          	lw	s0,8(sp)
200000e0:	01010113          	addi	sp,sp,16
200000e4:	00008067          	ret

200000e8 <init_interrupts>:
200000e8:	ff010113          	addi	sp,sp,-16
200000ec:	00112623          	sw	ra,12(sp)
200000f0:	00812423          	sw	s0,8(sp)
200000f4:	01010413          	addi	s0,sp,16
200000f8:	e000e7b7          	lui	a5,0xe000e
200000fc:	10078793          	addi	a5,a5,256 # e000e100 <__stack_top+0xc000869c>
20000100:	0007a683          	lw	a3,0(a5)
20000104:	e000e7b7          	lui	a5,0xe000e
20000108:	10078793          	addi	a5,a5,256 # e000e100 <__stack_top+0xc000869c>
2000010c:	00001737          	lui	a4,0x1
20000110:	00e6e733          	or	a4,a3,a4
20000114:	00e7a023          	sw	a4,0(a5)
20000118:	e000e7b7          	lui	a5,0xe000e
2000011c:	10078793          	addi	a5,a5,256 # e000e100 <__stack_top+0xc000869c>
20000120:	0007a683          	lw	a3,0(a5)
20000124:	e000e7b7          	lui	a5,0xe000e
20000128:	10078793          	addi	a5,a5,256 # e000e100 <__stack_top+0xc000869c>
2000012c:	00400737          	lui	a4,0x400
20000130:	00e6e733          	or	a4,a3,a4
20000134:	00e7a023          	sw	a4,0(a5)
20000138:	e000e7b7          	lui	a5,0xe000e
2000013c:	10078793          	addi	a5,a5,256 # e000e100 <__stack_top+0xc000869c>
20000140:	0007a683          	lw	a3,0(a5)
20000144:	e000e7b7          	lui	a5,0xe000e
20000148:	10078793          	addi	a5,a5,256 # e000e100 <__stack_top+0xc000869c>
2000014c:	00800737          	lui	a4,0x800
20000150:	00e6e733          	or	a4,a3,a4
20000154:	00e7a023          	sw	a4,0(a5)
20000158:	e000e7b7          	lui	a5,0xe000e
2000015c:	10078793          	addi	a5,a5,256 # e000e100 <__stack_top+0xc000869c>
20000160:	0007a683          	lw	a3,0(a5)
20000164:	e000e7b7          	lui	a5,0xe000e
20000168:	10078793          	addi	a5,a5,256 # e000e100 <__stack_top+0xc000869c>
2000016c:	01000737          	lui	a4,0x1000
20000170:	00e6e733          	or	a4,a3,a4
20000174:	00e7a023          	sw	a4,0(a5)
20000178:	e000e7b7          	lui	a5,0xe000e
2000017c:	10078793          	addi	a5,a5,256 # e000e100 <__stack_top+0xc000869c>
20000180:	0007a683          	lw	a3,0(a5)
20000184:	e000e7b7          	lui	a5,0xe000e
20000188:	10078793          	addi	a5,a5,256 # e000e100 <__stack_top+0xc000869c>
2000018c:	02000737          	lui	a4,0x2000
20000190:	00e6e733          	or	a4,a3,a4
20000194:	00e7a023          	sw	a4,0(a5)
20000198:	400107b7          	lui	a5,0x40010
2000019c:	00003737          	lui	a4,0x3
200001a0:	33370713          	addi	a4,a4,819 # 3333 <_start-0x1fffcccd>
200001a4:	00e79423          	sh	a4,8(a5) # 40010008 <__stack_top+0x2000a5a4>
200001a8:	400107b7          	lui	a5,0x40010
200001ac:	40078793          	addi	a5,a5,1024 # 40010400 <__stack_top+0x2000a99c>
200001b0:	00c7a703          	lw	a4,12(a5)
200001b4:	400107b7          	lui	a5,0x40010
200001b8:	40078793          	addi	a5,a5,1024 # 40010400 <__stack_top+0x2000a99c>
200001bc:	00f76713          	ori	a4,a4,15
200001c0:	00e7a623          	sw	a4,12(a5)
200001c4:	400107b7          	lui	a5,0x40010
200001c8:	40078793          	addi	a5,a5,1024 # 40010400 <__stack_top+0x2000a99c>
200001cc:	0007a703          	lw	a4,0(a5)
200001d0:	400107b7          	lui	a5,0x40010
200001d4:	40078793          	addi	a5,a5,1024 # 40010400 <__stack_top+0x2000a99c>
200001d8:	00f76713          	ori	a4,a4,15
200001dc:	00e7a023          	sw	a4,0(a5)
200001e0:	00000013          	nop
200001e4:	00c12083          	lw	ra,12(sp)
200001e8:	00812403          	lw	s0,8(sp)
200001ec:	01010113          	addi	sp,sp,16
200001f0:	00008067          	ret

200001f4 <keypad>:
200001f4:	fe010113          	addi	sp,sp,-32
200001f8:	00112e23          	sw	ra,28(sp)
200001fc:	00812c23          	sw	s0,24(sp)
20000200:	02010413          	addi	s0,sp,32
20000204:	400117b7          	lui	a5,0x40011
20000208:	40078793          	addi	a5,a5,1024 # 40011400 <__stack_top+0x2000b99c>
2000020c:	0f000713          	li	a4,240
20000210:	00e79823          	sh	a4,16(a5)
20000214:	fe042623          	sw	zero,-20(s0)
20000218:	0cc0006f          	j	200002e4 <keypad+0xf0>
2000021c:	fec42783          	lw	a5,-20(s0)
20000220:	00478793          	addi	a5,a5,4
20000224:	00100713          	li	a4,1
20000228:	00f71733          	sll	a4,a4,a5
2000022c:	400117b7          	lui	a5,0x40011
20000230:	40078793          	addi	a5,a5,1024 # 40011400 <__stack_top+0x2000b99c>
20000234:	01071713          	slli	a4,a4,0x10
20000238:	01075713          	srli	a4,a4,0x10
2000023c:	00e79a23          	sh	a4,20(a5)
20000240:	fe042223          	sw	zero,-28(s0)
20000244:	0100006f          	j	20000254 <keypad+0x60>
20000248:	fe442783          	lw	a5,-28(s0)
2000024c:	00178793          	addi	a5,a5,1
20000250:	fef42223          	sw	a5,-28(s0)
20000254:	fe442703          	lw	a4,-28(s0)
20000258:	06300793          	li	a5,99
2000025c:	fee7d6e3          	bge	a5,a4,20000248 <keypad+0x54>
20000260:	400117b7          	lui	a5,0x40011
20000264:	40078793          	addi	a5,a5,1024 # 40011400 <__stack_top+0x2000b99c>
20000268:	0087d783          	lhu	a5,8(a5)
2000026c:	fef41123          	sh	a5,-30(s0)
20000270:	fe042423          	sw	zero,-24(s0)
20000274:	0580006f          	j	200002cc <keypad+0xd8>
20000278:	fe245703          	lhu	a4,-30(s0)
2000027c:	fe842783          	lw	a5,-24(s0)
20000280:	40f757b3          	sra	a5,a4,a5
20000284:	0017f793          	andi	a5,a5,1
20000288:	02079c63          	bnez	a5,200002c0 <keypad+0xcc>
2000028c:	400117b7          	lui	a5,0x40011
20000290:	40078793          	addi	a5,a5,1024 # 40011400 <__stack_top+0x2000b99c>
20000294:	0f000713          	li	a4,240
20000298:	00e79a23          	sh	a4,20(a5)
2000029c:	fec42783          	lw	a5,-20(s0)
200002a0:	0ff7f793          	zext.b	a5,a5
200002a4:	00279793          	slli	a5,a5,0x2
200002a8:	0ff7f713          	zext.b	a4,a5
200002ac:	fe842783          	lw	a5,-24(s0)
200002b0:	0ff7f793          	zext.b	a5,a5
200002b4:	00f707b3          	add	a5,a4,a5
200002b8:	0ff7f793          	zext.b	a5,a5
200002bc:	0480006f          	j	20000304 <keypad+0x110>
200002c0:	fe842783          	lw	a5,-24(s0)
200002c4:	00178793          	addi	a5,a5,1
200002c8:	fef42423          	sw	a5,-24(s0)
200002cc:	fe842703          	lw	a4,-24(s0)
200002d0:	00300793          	li	a5,3
200002d4:	fae7d2e3          	bge	a5,a4,20000278 <keypad+0x84>
200002d8:	fec42783          	lw	a5,-20(s0)
200002dc:	00178793          	addi	a5,a5,1
200002e0:	fef42623          	sw	a5,-20(s0)
200002e4:	fec42703          	lw	a4,-20(s0)
200002e8:	00300793          	li	a5,3
200002ec:	f2e7d8e3          	bge	a5,a4,2000021c <keypad+0x28>
200002f0:	400117b7          	lui	a5,0x40011
200002f4:	40078793          	addi	a5,a5,1024 # 40011400 <__stack_top+0x2000b99c>
200002f8:	0f000713          	li	a4,240
200002fc:	00e79a23          	sh	a4,20(a5)
20000300:	0ff00793          	li	a5,255
20000304:	00078513          	mv	a0,a5
20000308:	01c12083          	lw	ra,28(sp)
2000030c:	01812403          	lw	s0,24(sp)
20000310:	02010113          	addi	sp,sp,32
20000314:	00008067          	ret

20000318 <resetball>:
    0, 0, 0, 0,
    P2DOWN, 0, 0, P1DOWN
};


void resetball(){
20000318:	ff010113          	addi	sp,sp,-16
2000031c:	00112623          	sw	ra,12(sp)
20000320:	00812423          	sw	s0,8(sp)
20000324:	01010413          	addi	s0,sp,16
    ball.x = 240;
20000328:	200057b7          	lui	a5,0x20005
2000032c:	c0878793          	addi	a5,a5,-1016 # 20004c08 <ball>
20000330:	0f000713          	li	a4,240
20000334:	00e7a023          	sw	a4,0(a5)
    ball.y = 160;
20000338:	200057b7          	lui	a5,0x20005
2000033c:	c0878793          	addi	a5,a5,-1016 # 20004c08 <ball>
20000340:	0a000713          	li	a4,160
20000344:	00e7a223          	sw	a4,4(a5)
    ball.speed_x = 3;
20000348:	200057b7          	lui	a5,0x20005
2000034c:	c0878793          	addi	a5,a5,-1016 # 20004c08 <ball>
20000350:	00300713          	li	a4,3
20000354:	00e7a423          	sw	a4,8(a5)
    ball.speed_y = 1;
20000358:	200057b7          	lui	a5,0x20005
2000035c:	c0878793          	addi	a5,a5,-1016 # 20004c08 <ball>
20000360:	00100713          	li	a4,1
20000364:	00e7a623          	sw	a4,12(a5)
    ball.size = 10;  // x, y, speed_x, speed_y, size
20000368:	200057b7          	lui	a5,0x20005
2000036c:	c0878793          	addi	a5,a5,-1016 # 20004c08 <ball>
20000370:	00a00713          	li	a4,10
20000374:	00e7a823          	sw	a4,16(a5)
    if (P1.score == 4|| P2.score == 4){
20000378:	200057b7          	lui	a5,0x20005
2000037c:	be078793          	addi	a5,a5,-1056 # 20004be0 <P1>
20000380:	0107a703          	lw	a4,16(a5)
20000384:	00400793          	li	a5,4
20000388:	00f70c63          	beq	a4,a5,200003a0 <resetball+0x88>
2000038c:	200057b7          	lui	a5,0x20005
20000390:	bf478793          	addi	a5,a5,-1036 # 20004bf4 <P2>
20000394:	0107a703          	lw	a4,16(a5)
20000398:	00400793          	li	a5,4
2000039c:	00f71e63          	bne	a4,a5,200003b8 <resetball+0xa0>
        P1.score = 0;
200003a0:	200057b7          	lui	a5,0x20005
200003a4:	be078793          	addi	a5,a5,-1056 # 20004be0 <P1>
200003a8:	0007a823          	sw	zero,16(a5)
        P2.score = 0;
200003ac:	200057b7          	lui	a5,0x20005
200003b0:	bf478793          	addi	a5,a5,-1036 # 20004bf4 <P2>
200003b4:	0007a823          	sw	zero,16(a5)
    }
}
200003b8:	00000013          	nop
200003bc:	00c12083          	lw	ra,12(sp)
200003c0:	00812403          	lw	s0,8(sp)
200003c4:	01010113          	addi	sp,sp,16
200003c8:	00008067          	ret

200003cc <update_bargraph>:
// volatile int counter = 0;




void update_bargraph() {
200003cc:	fe010113          	addi	sp,sp,-32
200003d0:	00112e23          	sw	ra,28(sp)
200003d4:	00812c23          	sw	s0,24(sp)
200003d8:	02010413          	addi	s0,sp,32
    uint16_t bargraph = 0;
200003dc:	fe041723          	sh	zero,-18(s0)
    for (int i = 0; i < P1.score; i++) {
200003e0:	fe042423          	sw	zero,-24(s0)
200003e4:	0380006f          	j	2000041c <update_bargraph+0x50>
        bargraph |= (1 << i);
200003e8:	fe842783          	lw	a5,-24(s0)
200003ec:	00100713          	li	a4,1
200003f0:	00f717b3          	sll	a5,a4,a5
200003f4:	01079713          	slli	a4,a5,0x10
200003f8:	41075713          	srai	a4,a4,0x10
200003fc:	fee41783          	lh	a5,-18(s0)
20000400:	00f767b3          	or	a5,a4,a5
20000404:	01079793          	slli	a5,a5,0x10
20000408:	4107d793          	srai	a5,a5,0x10
2000040c:	fef41723          	sh	a5,-18(s0)
    for (int i = 0; i < P1.score; i++) {
20000410:	fe842783          	lw	a5,-24(s0)
20000414:	00178793          	addi	a5,a5,1
20000418:	fef42423          	sw	a5,-24(s0)
2000041c:	200057b7          	lui	a5,0x20005
20000420:	be078793          	addi	a5,a5,-1056 # 20004be0 <P1>
20000424:	0107a783          	lw	a5,16(a5)
20000428:	fe842703          	lw	a4,-24(s0)
2000042c:	faf74ee3          	blt	a4,a5,200003e8 <update_bargraph+0x1c>
    }
    for (int i = 0; i < P2.score; i++) {
20000430:	fe042223          	sw	zero,-28(s0)
20000434:	0400006f          	j	20000474 <update_bargraph+0xa8>
        bargraph |= (1 << (7 - i));
20000438:	00700713          	li	a4,7
2000043c:	fe442783          	lw	a5,-28(s0)
20000440:	40f707b3          	sub	a5,a4,a5
20000444:	00100713          	li	a4,1
20000448:	00f717b3          	sll	a5,a4,a5
2000044c:	01079713          	slli	a4,a5,0x10
20000450:	41075713          	srai	a4,a4,0x10
20000454:	fee41783          	lh	a5,-18(s0)
20000458:	00f767b3          	or	a5,a4,a5
2000045c:	01079793          	slli	a5,a5,0x10
20000460:	4107d793          	srai	a5,a5,0x10
20000464:	fef41723          	sh	a5,-18(s0)
    for (int i = 0; i < P2.score; i++) {
20000468:	fe442783          	lw	a5,-28(s0)
2000046c:	00178793          	addi	a5,a5,1
20000470:	fef42223          	sw	a5,-28(s0)
20000474:	200057b7          	lui	a5,0x20005
20000478:	bf478793          	addi	a5,a5,-1036 # 20004bf4 <P2>
2000047c:	0107a783          	lw	a5,16(a5)
20000480:	fe442703          	lw	a4,-28(s0)
20000484:	faf74ae3          	blt	a4,a5,20000438 <update_bargraph+0x6c>
    }
    GPIOD->ODR = (GPIOD->ODR & 0x00FF) | (bargraph << 8);
20000488:	400117b7          	lui	a5,0x40011
2000048c:	40078793          	addi	a5,a5,1024 # 40011400 <__stack_top+0x2000b99c>
20000490:	00c7d783          	lhu	a5,12(a5)
20000494:	01079793          	slli	a5,a5,0x10
20000498:	0107d793          	srli	a5,a5,0x10
2000049c:	01079793          	slli	a5,a5,0x10
200004a0:	4107d793          	srai	a5,a5,0x10
200004a4:	0ff7f793          	zext.b	a5,a5
200004a8:	01079713          	slli	a4,a5,0x10
200004ac:	41075713          	srai	a4,a4,0x10
200004b0:	fee41783          	lh	a5,-18(s0)
200004b4:	00879793          	slli	a5,a5,0x8
200004b8:	01079793          	slli	a5,a5,0x10
200004bc:	4107d793          	srai	a5,a5,0x10
200004c0:	00f767b3          	or	a5,a4,a5
200004c4:	01079713          	slli	a4,a5,0x10
200004c8:	41075713          	srai	a4,a4,0x10
200004cc:	400117b7          	lui	a5,0x40011
200004d0:	40078793          	addi	a5,a5,1024 # 40011400 <__stack_top+0x2000b99c>
200004d4:	01071713          	slli	a4,a4,0x10
200004d8:	01075713          	srli	a4,a4,0x10
200004dc:	00e79623          	sh	a4,12(a5)
}
200004e0:	00000013          	nop
200004e4:	01c12083          	lw	ra,28(sp)
200004e8:	01812403          	lw	s0,24(sp)
200004ec:	02010113          	addi	sp,sp,32
200004f0:	00008067          	ret

200004f4 <systick_handler>:
__attribute__((interrupt("machine")))
void systick_handler() {
200004f4:	f5010113          	addi	sp,sp,-176
200004f8:	0a112623          	sw	ra,172(sp)
200004fc:	0a512423          	sw	t0,168(sp)
20000500:	003022f3          	frcsr	t0
20000504:	0a512223          	sw	t0,164(sp)
20000508:	0a612023          	sw	t1,160(sp)
2000050c:	08712e23          	sw	t2,156(sp)
20000510:	08812c23          	sw	s0,152(sp)
20000514:	08a12a23          	sw	a0,148(sp)
20000518:	08b12823          	sw	a1,144(sp)
2000051c:	08c12623          	sw	a2,140(sp)
20000520:	08d12423          	sw	a3,136(sp)
20000524:	08e12223          	sw	a4,132(sp)
20000528:	08f12023          	sw	a5,128(sp)
2000052c:	07012e23          	sw	a6,124(sp)
20000530:	07112c23          	sw	a7,120(sp)
20000534:	07c12a23          	sw	t3,116(sp)
20000538:	07d12823          	sw	t4,112(sp)
2000053c:	07e12623          	sw	t5,108(sp)
20000540:	07f12423          	sw	t6,104(sp)
20000544:	04012627          	fsw	ft0,76(sp)
20000548:	04112427          	fsw	ft1,72(sp)
2000054c:	04212227          	fsw	ft2,68(sp)
20000550:	04312027          	fsw	ft3,64(sp)
20000554:	02412e27          	fsw	ft4,60(sp)
20000558:	02512c27          	fsw	ft5,56(sp)
2000055c:	02612a27          	fsw	ft6,52(sp)
20000560:	02712827          	fsw	ft7,48(sp)
20000564:	02a12627          	fsw	fa0,44(sp)
20000568:	02b12427          	fsw	fa1,40(sp)
2000056c:	02c12227          	fsw	fa2,36(sp)
20000570:	02d12027          	fsw	fa3,32(sp)
20000574:	00e12e27          	fsw	fa4,28(sp)
20000578:	00f12c27          	fsw	fa5,24(sp)
2000057c:	01012a27          	fsw	fa6,20(sp)
20000580:	01112827          	fsw	fa7,16(sp)
20000584:	01c12627          	fsw	ft8,12(sp)
20000588:	01d12427          	fsw	ft9,8(sp)
2000058c:	01e12227          	fsw	ft10,4(sp)
20000590:	01f12027          	fsw	ft11,0(sp)
20000594:	0b010413          	addi	s0,sp,176

    //ERASE

    // Erase old ball
    tft_ellipse(ball.x, ball.y, ball.size, ball.size, COLOR_BLUE, 1);
20000598:	200057b7          	lui	a5,0x20005
2000059c:	c747a803          	lw	a6,-908(a5) # 20004c74 <tft_ellipse>
200005a0:	200057b7          	lui	a5,0x20005
200005a4:	c0878793          	addi	a5,a5,-1016 # 20004c08 <ball>
200005a8:	0007a503          	lw	a0,0(a5)
200005ac:	200057b7          	lui	a5,0x20005
200005b0:	c0878793          	addi	a5,a5,-1016 # 20004c08 <ball>
200005b4:	0047a583          	lw	a1,4(a5)
200005b8:	200057b7          	lui	a5,0x20005
200005bc:	c0878793          	addi	a5,a5,-1016 # 20004c08 <ball>
200005c0:	0107a603          	lw	a2,16(a5)
200005c4:	200057b7          	lui	a5,0x20005
200005c8:	c0878793          	addi	a5,a5,-1016 # 20004c08 <ball>
200005cc:	0107a683          	lw	a3,16(a5)
200005d0:	00100793          	li	a5,1
200005d4:	01f00713          	li	a4,31
200005d8:	000800e7          	jalr	a6

    //Paddle for player 1 and 2
    tft_rect(P1.x, P1.y - P1.size/2, PWidth, P1.size, COLOR_BLUE, 1);
200005dc:	200057b7          	lui	a5,0x20005
200005e0:	c787a803          	lw	a6,-904(a5) # 20004c78 <tft_rect>
200005e4:	200057b7          	lui	a5,0x20005
200005e8:	be078793          	addi	a5,a5,-1056 # 20004be0 <P1>
200005ec:	0007a503          	lw	a0,0(a5)
200005f0:	200057b7          	lui	a5,0x20005
200005f4:	be078793          	addi	a5,a5,-1056 # 20004be0 <P1>
200005f8:	0047a703          	lw	a4,4(a5)
200005fc:	200057b7          	lui	a5,0x20005
20000600:	be078793          	addi	a5,a5,-1056 # 20004be0 <P1>
20000604:	00c7a783          	lw	a5,12(a5)
20000608:	01f7d693          	srli	a3,a5,0x1f
2000060c:	00f687b3          	add	a5,a3,a5
20000610:	4017d793          	srai	a5,a5,0x1
20000614:	40f007b3          	neg	a5,a5
20000618:	00f705b3          	add	a1,a4,a5
2000061c:	200057b7          	lui	a5,0x20005
20000620:	be078793          	addi	a5,a5,-1056 # 20004be0 <P1>
20000624:	00c7a683          	lw	a3,12(a5)
20000628:	00100793          	li	a5,1
2000062c:	01f00713          	li	a4,31
20000630:	00a00613          	li	a2,10
20000634:	000800e7          	jalr	a6
    tft_rect(P2.x, P2.y - P2.size/2, PWidth, P2.size, COLOR_BLUE, 1);
20000638:	200057b7          	lui	a5,0x20005
2000063c:	c787a803          	lw	a6,-904(a5) # 20004c78 <tft_rect>
20000640:	200057b7          	lui	a5,0x20005
20000644:	bf478793          	addi	a5,a5,-1036 # 20004bf4 <P2>
20000648:	0007a503          	lw	a0,0(a5)
2000064c:	200057b7          	lui	a5,0x20005
20000650:	bf478793          	addi	a5,a5,-1036 # 20004bf4 <P2>
20000654:	0047a703          	lw	a4,4(a5)
20000658:	200057b7          	lui	a5,0x20005
2000065c:	bf478793          	addi	a5,a5,-1036 # 20004bf4 <P2>
20000660:	00c7a783          	lw	a5,12(a5)
20000664:	01f7d693          	srli	a3,a5,0x1f
20000668:	00f687b3          	add	a5,a3,a5
2000066c:	4017d793          	srai	a5,a5,0x1
20000670:	40f007b3          	neg	a5,a5
20000674:	00f705b3          	add	a1,a4,a5
20000678:	200057b7          	lui	a5,0x20005
2000067c:	bf478793          	addi	a5,a5,-1036 # 20004bf4 <P2>
20000680:	00c7a683          	lw	a3,12(a5)
20000684:	00100793          	li	a5,1
20000688:	01f00713          	li	a4,31
2000068c:	00a00613          	li	a2,10
20000690:	000800e7          	jalr	a6

    

    //COLLISIONS

    if (ball.x <= ball.size+LeftCollisionWall ) {
20000694:	200057b7          	lui	a5,0x20005
20000698:	c0878793          	addi	a5,a5,-1016 # 20004c08 <ball>
2000069c:	0007a703          	lw	a4,0(a5)
200006a0:	200057b7          	lui	a5,0x20005
200006a4:	c0878793          	addi	a5,a5,-1016 # 20004c08 <ball>
200006a8:	0107a683          	lw	a3,16(a5)
200006ac:	00a00793          	li	a5,10
200006b0:	00f687b3          	add	a5,a3,a5
200006b4:	0ae7ce63          	blt	a5,a4,20000770 <systick_handler+0x27c>
        if(ball.y >= P2.y-(P2.size/2) && ball.y <= P2.y+(P2.size/2)){
200006b8:	200057b7          	lui	a5,0x20005
200006bc:	c0878793          	addi	a5,a5,-1016 # 20004c08 <ball>
200006c0:	0047a703          	lw	a4,4(a5)
200006c4:	200057b7          	lui	a5,0x20005
200006c8:	bf478793          	addi	a5,a5,-1036 # 20004bf4 <P2>
200006cc:	0047a683          	lw	a3,4(a5)
200006d0:	200057b7          	lui	a5,0x20005
200006d4:	bf478793          	addi	a5,a5,-1036 # 20004bf4 <P2>
200006d8:	00c7a783          	lw	a5,12(a5)
200006dc:	01f7d613          	srli	a2,a5,0x1f
200006e0:	00f607b3          	add	a5,a2,a5
200006e4:	4017d793          	srai	a5,a5,0x1
200006e8:	40f007b3          	neg	a5,a5
200006ec:	00f687b3          	add	a5,a3,a5
200006f0:	04f74e63          	blt	a4,a5,2000074c <systick_handler+0x258>
200006f4:	200057b7          	lui	a5,0x20005
200006f8:	c0878793          	addi	a5,a5,-1016 # 20004c08 <ball>
200006fc:	0047a703          	lw	a4,4(a5)
20000700:	200057b7          	lui	a5,0x20005
20000704:	bf478793          	addi	a5,a5,-1036 # 20004bf4 <P2>
20000708:	0047a683          	lw	a3,4(a5)
2000070c:	200057b7          	lui	a5,0x20005
20000710:	bf478793          	addi	a5,a5,-1036 # 20004bf4 <P2>
20000714:	00c7a783          	lw	a5,12(a5)
20000718:	01f7d613          	srli	a2,a5,0x1f
2000071c:	00f607b3          	add	a5,a2,a5
20000720:	4017d793          	srai	a5,a5,0x1
20000724:	00f687b3          	add	a5,a3,a5
20000728:	02e7c263          	blt	a5,a4,2000074c <systick_handler+0x258>
            ball.speed_x = -ball.speed_x;
2000072c:	200057b7          	lui	a5,0x20005
20000730:	c0878793          	addi	a5,a5,-1016 # 20004c08 <ball>
20000734:	0087a783          	lw	a5,8(a5)
20000738:	40f00733          	neg	a4,a5
2000073c:	200057b7          	lui	a5,0x20005
20000740:	c0878793          	addi	a5,a5,-1016 # 20004c08 <ball>
20000744:	00e7a423          	sw	a4,8(a5)
20000748:	0280006f          	j	20000770 <systick_handler+0x27c>
        }else{//lose
            P1.score++; //make it loop back to 0: 0, 1, 2, 3, 0...
2000074c:	200057b7          	lui	a5,0x20005
20000750:	be078793          	addi	a5,a5,-1056 # 20004be0 <P1>
20000754:	0107a783          	lw	a5,16(a5)
20000758:	00178713          	addi	a4,a5,1
2000075c:	200057b7          	lui	a5,0x20005
20000760:	be078793          	addi	a5,a5,-1056 # 20004be0 <P1>
20000764:	00e7a823          	sw	a4,16(a5)
            resetball();
20000768:	bb1ff0ef          	jal	20000318 <resetball>
            update_bargraph();
2000076c:	c61ff0ef          	jal	200003cc <update_bargraph>
        }
        
    }
    if(ball.x >= RightCollisionWall -(ball.size+PWidth)){
20000770:	200057b7          	lui	a5,0x20005
20000774:	c0878793          	addi	a5,a5,-1016 # 20004c08 <ball>
20000778:	0007a703          	lw	a4,0(a5)
2000077c:	1d500693          	li	a3,469
20000780:	200057b7          	lui	a5,0x20005
20000784:	c0878793          	addi	a5,a5,-1016 # 20004c08 <ball>
20000788:	0107a783          	lw	a5,16(a5)
2000078c:	00a78793          	addi	a5,a5,10
20000790:	40f687b3          	sub	a5,a3,a5
20000794:	0af74e63          	blt	a4,a5,20000850 <systick_handler+0x35c>
        if(ball.y >= P1.y-(P1.size/2) && ball.y <= P1.y+(P1.size/2)){
20000798:	200057b7          	lui	a5,0x20005
2000079c:	c0878793          	addi	a5,a5,-1016 # 20004c08 <ball>
200007a0:	0047a703          	lw	a4,4(a5)
200007a4:	200057b7          	lui	a5,0x20005
200007a8:	be078793          	addi	a5,a5,-1056 # 20004be0 <P1>
200007ac:	0047a683          	lw	a3,4(a5)
200007b0:	200057b7          	lui	a5,0x20005
200007b4:	be078793          	addi	a5,a5,-1056 # 20004be0 <P1>
200007b8:	00c7a783          	lw	a5,12(a5)
200007bc:	01f7d613          	srli	a2,a5,0x1f
200007c0:	00f607b3          	add	a5,a2,a5
200007c4:	4017d793          	srai	a5,a5,0x1
200007c8:	40f007b3          	neg	a5,a5
200007cc:	00f687b3          	add	a5,a3,a5
200007d0:	04f74e63          	blt	a4,a5,2000082c <systick_handler+0x338>
200007d4:	200057b7          	lui	a5,0x20005
200007d8:	c0878793          	addi	a5,a5,-1016 # 20004c08 <ball>
200007dc:	0047a703          	lw	a4,4(a5)
200007e0:	200057b7          	lui	a5,0x20005
200007e4:	be078793          	addi	a5,a5,-1056 # 20004be0 <P1>
200007e8:	0047a683          	lw	a3,4(a5)
200007ec:	200057b7          	lui	a5,0x20005
200007f0:	be078793          	addi	a5,a5,-1056 # 20004be0 <P1>
200007f4:	00c7a783          	lw	a5,12(a5)
200007f8:	01f7d613          	srli	a2,a5,0x1f
200007fc:	00f607b3          	add	a5,a2,a5
20000800:	4017d793          	srai	a5,a5,0x1
20000804:	00f687b3          	add	a5,a3,a5
20000808:	02e7c263          	blt	a5,a4,2000082c <systick_handler+0x338>
            ball.speed_x = -ball.speed_x;
2000080c:	200057b7          	lui	a5,0x20005
20000810:	c0878793          	addi	a5,a5,-1016 # 20004c08 <ball>
20000814:	0087a783          	lw	a5,8(a5)
20000818:	40f00733          	neg	a4,a5
2000081c:	200057b7          	lui	a5,0x20005
20000820:	c0878793          	addi	a5,a5,-1016 # 20004c08 <ball>
20000824:	00e7a423          	sw	a4,8(a5)
20000828:	0280006f          	j	20000850 <systick_handler+0x35c>
        }else{//lose
            P2.score++; //make it loop back to 0: 0, 1, 2, 3, 0...
2000082c:	200057b7          	lui	a5,0x20005
20000830:	bf478793          	addi	a5,a5,-1036 # 20004bf4 <P2>
20000834:	0107a783          	lw	a5,16(a5)
20000838:	00178713          	addi	a4,a5,1
2000083c:	200057b7          	lui	a5,0x20005
20000840:	bf478793          	addi	a5,a5,-1036 # 20004bf4 <P2>
20000844:	00e7a823          	sw	a4,16(a5)
            resetball();
20000848:	ad1ff0ef          	jal	20000318 <resetball>
            update_bargraph();
2000084c:	b81ff0ef          	jal	200003cc <update_bargraph>
        }
    }
    if (ball.y <= ball.size || ball.y >= height - ball.size) {
20000850:	200057b7          	lui	a5,0x20005
20000854:	c0878793          	addi	a5,a5,-1016 # 20004c08 <ball>
20000858:	0047a703          	lw	a4,4(a5)
2000085c:	200057b7          	lui	a5,0x20005
20000860:	c0878793          	addi	a5,a5,-1016 # 20004c08 <ball>
20000864:	0107a783          	lw	a5,16(a5)
20000868:	02e7d463          	bge	a5,a4,20000890 <systick_handler+0x39c>
2000086c:	200057b7          	lui	a5,0x20005
20000870:	c0878793          	addi	a5,a5,-1016 # 20004c08 <ball>
20000874:	0047a703          	lw	a4,4(a5)
20000878:	200057b7          	lui	a5,0x20005
2000087c:	c0878793          	addi	a5,a5,-1016 # 20004c08 <ball>
20000880:	0107a783          	lw	a5,16(a5)
20000884:	13f00693          	li	a3,319
20000888:	40f687b3          	sub	a5,a3,a5
2000088c:	02f74063          	blt	a4,a5,200008ac <systick_handler+0x3b8>
        ball.speed_y = -ball.speed_y;
20000890:	200057b7          	lui	a5,0x20005
20000894:	c0878793          	addi	a5,a5,-1016 # 20004c08 <ball>
20000898:	00c7a783          	lw	a5,12(a5)
2000089c:	40f00733          	neg	a4,a5
200008a0:	200057b7          	lui	a5,0x20005
200008a4:	c0878793          	addi	a5,a5,-1016 # 20004c08 <ball>
200008a8:	00e7a623          	sw	a4,12(a5)
    }

    // MOVE

    ball.x += ball.speed_x;
200008ac:	200057b7          	lui	a5,0x20005
200008b0:	c0878793          	addi	a5,a5,-1016 # 20004c08 <ball>
200008b4:	0007a703          	lw	a4,0(a5)
200008b8:	200057b7          	lui	a5,0x20005
200008bc:	c0878793          	addi	a5,a5,-1016 # 20004c08 <ball>
200008c0:	0087a783          	lw	a5,8(a5)
200008c4:	00f70733          	add	a4,a4,a5
200008c8:	200057b7          	lui	a5,0x20005
200008cc:	c0878793          	addi	a5,a5,-1016 # 20004c08 <ball>
200008d0:	00e7a023          	sw	a4,0(a5)
    ball.y += ball.speed_y;
200008d4:	200057b7          	lui	a5,0x20005
200008d8:	c0878793          	addi	a5,a5,-1016 # 20004c08 <ball>
200008dc:	0047a703          	lw	a4,4(a5)
200008e0:	200057b7          	lui	a5,0x20005
200008e4:	c0878793          	addi	a5,a5,-1016 # 20004c08 <ball>
200008e8:	00c7a783          	lw	a5,12(a5)
200008ec:	00f70733          	add	a4,a4,a5
200008f0:	200057b7          	lui	a5,0x20005
200008f4:	c0878793          	addi	a5,a5,-1016 # 20004c08 <ball>
200008f8:	00e7a223          	sw	a4,4(a5)
    
    if (P1.y + P1.speed_y - P1.size/2 >= 0 && P1.y + P1.speed_y +P1.size/2<= height) {
200008fc:	200057b7          	lui	a5,0x20005
20000900:	be078793          	addi	a5,a5,-1056 # 20004be0 <P1>
20000904:	0047a703          	lw	a4,4(a5)
20000908:	200057b7          	lui	a5,0x20005
2000090c:	be078793          	addi	a5,a5,-1056 # 20004be0 <P1>
20000910:	0087a783          	lw	a5,8(a5)
20000914:	00f70733          	add	a4,a4,a5
20000918:	200057b7          	lui	a5,0x20005
2000091c:	be078793          	addi	a5,a5,-1056 # 20004be0 <P1>
20000920:	00c7a783          	lw	a5,12(a5)
20000924:	01f7d693          	srli	a3,a5,0x1f
20000928:	00f687b3          	add	a5,a3,a5
2000092c:	4017d793          	srai	a5,a5,0x1
20000930:	40f007b3          	neg	a5,a5
20000934:	00f707b3          	add	a5,a4,a5
20000938:	0607c663          	bltz	a5,200009a4 <systick_handler+0x4b0>
2000093c:	200057b7          	lui	a5,0x20005
20000940:	be078793          	addi	a5,a5,-1056 # 20004be0 <P1>
20000944:	0047a703          	lw	a4,4(a5)
20000948:	200057b7          	lui	a5,0x20005
2000094c:	be078793          	addi	a5,a5,-1056 # 20004be0 <P1>
20000950:	0087a783          	lw	a5,8(a5)
20000954:	00f70733          	add	a4,a4,a5
20000958:	200057b7          	lui	a5,0x20005
2000095c:	be078793          	addi	a5,a5,-1056 # 20004be0 <P1>
20000960:	00c7a783          	lw	a5,12(a5)
20000964:	01f7d693          	srli	a3,a5,0x1f
20000968:	00f687b3          	add	a5,a3,a5
2000096c:	4017d793          	srai	a5,a5,0x1
20000970:	00f70733          	add	a4,a4,a5
20000974:	13f00793          	li	a5,319
20000978:	02e7c663          	blt	a5,a4,200009a4 <systick_handler+0x4b0>
        P1.y += P1.speed_y;
2000097c:	200057b7          	lui	a5,0x20005
20000980:	be078793          	addi	a5,a5,-1056 # 20004be0 <P1>
20000984:	0087a703          	lw	a4,8(a5)
20000988:	200057b7          	lui	a5,0x20005
2000098c:	be078793          	addi	a5,a5,-1056 # 20004be0 <P1>
20000990:	0047a783          	lw	a5,4(a5)
20000994:	00f70733          	add	a4,a4,a5
20000998:	200057b7          	lui	a5,0x20005
2000099c:	be078793          	addi	a5,a5,-1056 # 20004be0 <P1>
200009a0:	00e7a223          	sw	a4,4(a5)
    }
    if (P2.y + P2.speed_y - P2.size/2 >= 0 && P2.y + P2.speed_y + P2.size/2 <= height) {
200009a4:	200057b7          	lui	a5,0x20005
200009a8:	bf478793          	addi	a5,a5,-1036 # 20004bf4 <P2>
200009ac:	0047a703          	lw	a4,4(a5)
200009b0:	200057b7          	lui	a5,0x20005
200009b4:	bf478793          	addi	a5,a5,-1036 # 20004bf4 <P2>
200009b8:	0087a783          	lw	a5,8(a5)
200009bc:	00f70733          	add	a4,a4,a5
200009c0:	200057b7          	lui	a5,0x20005
200009c4:	bf478793          	addi	a5,a5,-1036 # 20004bf4 <P2>
200009c8:	00c7a783          	lw	a5,12(a5)
200009cc:	01f7d693          	srli	a3,a5,0x1f
200009d0:	00f687b3          	add	a5,a3,a5
200009d4:	4017d793          	srai	a5,a5,0x1
200009d8:	40f007b3          	neg	a5,a5
200009dc:	00f707b3          	add	a5,a4,a5
200009e0:	0607c663          	bltz	a5,20000a4c <systick_handler+0x558>
200009e4:	200057b7          	lui	a5,0x20005
200009e8:	bf478793          	addi	a5,a5,-1036 # 20004bf4 <P2>
200009ec:	0047a703          	lw	a4,4(a5)
200009f0:	200057b7          	lui	a5,0x20005
200009f4:	bf478793          	addi	a5,a5,-1036 # 20004bf4 <P2>
200009f8:	0087a783          	lw	a5,8(a5)
200009fc:	00f70733          	add	a4,a4,a5
20000a00:	200057b7          	lui	a5,0x20005
20000a04:	bf478793          	addi	a5,a5,-1036 # 20004bf4 <P2>
20000a08:	00c7a783          	lw	a5,12(a5)
20000a0c:	01f7d693          	srli	a3,a5,0x1f
20000a10:	00f687b3          	add	a5,a3,a5
20000a14:	4017d793          	srai	a5,a5,0x1
20000a18:	00f70733          	add	a4,a4,a5
20000a1c:	13f00793          	li	a5,319
20000a20:	02e7c663          	blt	a5,a4,20000a4c <systick_handler+0x558>
        P2.y += P2.speed_y;
20000a24:	200057b7          	lui	a5,0x20005
20000a28:	bf478793          	addi	a5,a5,-1036 # 20004bf4 <P2>
20000a2c:	0087a703          	lw	a4,8(a5)
20000a30:	200057b7          	lui	a5,0x20005
20000a34:	bf478793          	addi	a5,a5,-1036 # 20004bf4 <P2>
20000a38:	0047a783          	lw	a5,4(a5)
20000a3c:	00f70733          	add	a4,a4,a5
20000a40:	200057b7          	lui	a5,0x20005
20000a44:	bf478793          	addi	a5,a5,-1036 # 20004bf4 <P2>
20000a48:	00e7a223          	sw	a4,4(a5)
    }

    //DRAW

    //Paddle for player 1 and 2
    tft_rect(P1.x, P1.y - P1.size/2, PWidth, P1.size, COLOR_WHITE, 1);
20000a4c:	200057b7          	lui	a5,0x20005
20000a50:	c787a803          	lw	a6,-904(a5) # 20004c78 <tft_rect>
20000a54:	200057b7          	lui	a5,0x20005
20000a58:	be078793          	addi	a5,a5,-1056 # 20004be0 <P1>
20000a5c:	0007a503          	lw	a0,0(a5)
20000a60:	200057b7          	lui	a5,0x20005
20000a64:	be078793          	addi	a5,a5,-1056 # 20004be0 <P1>
20000a68:	0047a703          	lw	a4,4(a5)
20000a6c:	200057b7          	lui	a5,0x20005
20000a70:	be078793          	addi	a5,a5,-1056 # 20004be0 <P1>
20000a74:	00c7a783          	lw	a5,12(a5)
20000a78:	01f7d693          	srli	a3,a5,0x1f
20000a7c:	00f687b3          	add	a5,a3,a5
20000a80:	4017d793          	srai	a5,a5,0x1
20000a84:	40f007b3          	neg	a5,a5
20000a88:	00f705b3          	add	a1,a4,a5
20000a8c:	200057b7          	lui	a5,0x20005
20000a90:	be078793          	addi	a5,a5,-1056 # 20004be0 <P1>
20000a94:	00c7a683          	lw	a3,12(a5)
20000a98:	00100793          	li	a5,1
20000a9c:	00010737          	lui	a4,0x10
20000aa0:	fff70713          	addi	a4,a4,-1 # ffff <_start-0x1fff0001>
20000aa4:	00a00613          	li	a2,10
20000aa8:	000800e7          	jalr	a6
    tft_rect(P2.x, P2.y - P2.size/2, PWidth, P2.size, COLOR_WHITE, 1);
20000aac:	200057b7          	lui	a5,0x20005
20000ab0:	c787a803          	lw	a6,-904(a5) # 20004c78 <tft_rect>
20000ab4:	200057b7          	lui	a5,0x20005
20000ab8:	bf478793          	addi	a5,a5,-1036 # 20004bf4 <P2>
20000abc:	0007a503          	lw	a0,0(a5)
20000ac0:	200057b7          	lui	a5,0x20005
20000ac4:	bf478793          	addi	a5,a5,-1036 # 20004bf4 <P2>
20000ac8:	0047a703          	lw	a4,4(a5)
20000acc:	200057b7          	lui	a5,0x20005
20000ad0:	bf478793          	addi	a5,a5,-1036 # 20004bf4 <P2>
20000ad4:	00c7a783          	lw	a5,12(a5)
20000ad8:	01f7d693          	srli	a3,a5,0x1f
20000adc:	00f687b3          	add	a5,a3,a5
20000ae0:	4017d793          	srai	a5,a5,0x1
20000ae4:	40f007b3          	neg	a5,a5
20000ae8:	00f705b3          	add	a1,a4,a5
20000aec:	200057b7          	lui	a5,0x20005
20000af0:	bf478793          	addi	a5,a5,-1036 # 20004bf4 <P2>
20000af4:	00c7a683          	lw	a3,12(a5)
20000af8:	00100793          	li	a5,1
20000afc:	00010737          	lui	a4,0x10
20000b00:	fff70713          	addi	a4,a4,-1 # ffff <_start-0x1fff0001>
20000b04:	00a00613          	li	a2,10
20000b08:	000800e7          	jalr	a6

    //ball
    tft_ellipse(ball.x, ball.y, ball.size, ball.size, COLOR_WHITE, 1);
20000b0c:	200057b7          	lui	a5,0x20005
20000b10:	c747a803          	lw	a6,-908(a5) # 20004c74 <tft_ellipse>
20000b14:	200057b7          	lui	a5,0x20005
20000b18:	c0878793          	addi	a5,a5,-1016 # 20004c08 <ball>
20000b1c:	0007a503          	lw	a0,0(a5)
20000b20:	200057b7          	lui	a5,0x20005
20000b24:	c0878793          	addi	a5,a5,-1016 # 20004c08 <ball>
20000b28:	0047a583          	lw	a1,4(a5)
20000b2c:	200057b7          	lui	a5,0x20005
20000b30:	c0878793          	addi	a5,a5,-1016 # 20004c08 <ball>
20000b34:	0107a603          	lw	a2,16(a5)
20000b38:	200057b7          	lui	a5,0x20005
20000b3c:	c0878793          	addi	a5,a5,-1016 # 20004c08 <ball>
20000b40:	0107a683          	lw	a3,16(a5)
20000b44:	00100793          	li	a5,1
20000b48:	00010737          	lui	a4,0x10
20000b4c:	fff70713          	addi	a4,a4,-1 # ffff <_start-0x1fff0001>
20000b50:	000800e7          	jalr	a6
    STK->SR &= 0x1;
20000b54:	e000f7b7          	lui	a5,0xe000f
20000b58:	0047a703          	lw	a4,4(a5) # e000f004 <__stack_top+0xc00095a0>
20000b5c:	e000f7b7          	lui	a5,0xe000f
20000b60:	00177713          	andi	a4,a4,1
20000b64:	00e7a223          	sw	a4,4(a5) # e000f004 <__stack_top+0xc00095a0>

}
20000b68:	00000013          	nop
20000b6c:	0ac12083          	lw	ra,172(sp)
20000b70:	0a412283          	lw	t0,164(sp)
20000b74:	00329073          	fscsr	t0
20000b78:	0a812283          	lw	t0,168(sp)
20000b7c:	0a012303          	lw	t1,160(sp)
20000b80:	09c12383          	lw	t2,156(sp)
20000b84:	09812403          	lw	s0,152(sp)
20000b88:	09412503          	lw	a0,148(sp)
20000b8c:	09012583          	lw	a1,144(sp)
20000b90:	08c12603          	lw	a2,140(sp)
20000b94:	08812683          	lw	a3,136(sp)
20000b98:	08412703          	lw	a4,132(sp)
20000b9c:	08012783          	lw	a5,128(sp)
20000ba0:	07c12803          	lw	a6,124(sp)
20000ba4:	07812883          	lw	a7,120(sp)
20000ba8:	07412e03          	lw	t3,116(sp)
20000bac:	07012e83          	lw	t4,112(sp)
20000bb0:	06c12f03          	lw	t5,108(sp)
20000bb4:	06812f83          	lw	t6,104(sp)
20000bb8:	04c12007          	flw	ft0,76(sp)
20000bbc:	04812087          	flw	ft1,72(sp)
20000bc0:	04412107          	flw	ft2,68(sp)
20000bc4:	04012187          	flw	ft3,64(sp)
20000bc8:	03c12207          	flw	ft4,60(sp)
20000bcc:	03812287          	flw	ft5,56(sp)
20000bd0:	03412307          	flw	ft6,52(sp)
20000bd4:	03012387          	flw	ft7,48(sp)
20000bd8:	02c12507          	flw	fa0,44(sp)
20000bdc:	02812587          	flw	fa1,40(sp)
20000be0:	02412607          	flw	fa2,36(sp)
20000be4:	02012687          	flw	fa3,32(sp)
20000be8:	01c12707          	flw	fa4,28(sp)
20000bec:	01812787          	flw	fa5,24(sp)
20000bf0:	01412807          	flw	fa6,20(sp)
20000bf4:	01012887          	flw	fa7,16(sp)
20000bf8:	00c12e07          	flw	ft8,12(sp)
20000bfc:	00812e87          	flw	ft9,8(sp)
20000c00:	00412f07          	flw	ft10,4(sp)
20000c04:	00012f87          	flw	ft11,0(sp)
20000c08:	0b010113          	addi	sp,sp,176
20000c0c:	30200073          	mret

20000c10 <exti_handler>:
volatile int keypad_pending = 0;
__attribute__((interrupt("machine")))
void exti_handler() {
20000c10:	fe010113          	addi	sp,sp,-32
20000c14:	00112e23          	sw	ra,28(sp)
20000c18:	00512c23          	sw	t0,24(sp)
20000c1c:	00812a23          	sw	s0,20(sp)
20000c20:	00e12823          	sw	a4,16(sp)
20000c24:	00f12623          	sw	a5,12(sp)
20000c28:	02010413          	addi	s0,sp,32
    EXTI->INTFR = EXTI->INTFR;
20000c2c:	400107b7          	lui	a5,0x40010
20000c30:	40078713          	addi	a4,a5,1024 # 40010400 <__stack_top+0x2000a99c>
20000c34:	400107b7          	lui	a5,0x40010
20000c38:	40078793          	addi	a5,a5,1024 # 40010400 <__stack_top+0x2000a99c>
20000c3c:	01472703          	lw	a4,20(a4)
20000c40:	00e7aa23          	sw	a4,20(a5)
    keypad_pending = 1;
20000c44:	200057b7          	lui	a5,0x20005
20000c48:	00100713          	li	a4,1
20000c4c:	e4e7a823          	sw	a4,-432(a5) # 20004e50 <keypad_pending>
}
20000c50:	00000013          	nop
20000c54:	01c12083          	lw	ra,28(sp)
20000c58:	01812283          	lw	t0,24(sp)
20000c5c:	01412403          	lw	s0,20(sp)
20000c60:	01012703          	lw	a4,16(sp)
20000c64:	00c12783          	lw	a5,12(sp)
20000c68:	02010113          	addi	sp,sp,32
20000c6c:	30200073          	mret

20000c70 <main>:

int main(void){
20000c70:	fe010113          	addi	sp,sp,-32
20000c74:	00112e23          	sw	ra,28(sp)
20000c78:	00812c23          	sw	s0,24(sp)
20000c7c:	02010413          	addi	s0,sp,32
    init_gpio();
20000c80:	bb4ff0ef          	jal	20000034 <init_gpio>
    init_vector_table();
20000c84:	24c000ef          	jal	20000ed0 <init_vector_table>
    init_interrupts();
20000c88:	c60ff0ef          	jal	200000e8 <init_interrupts>
    tft_init();
20000c8c:	260000ef          	jal	20000eec <tft_init>


    tft_rect(0,0,479,319,COLOR_BLUE, 1);
20000c90:	200057b7          	lui	a5,0x20005
20000c94:	c787a803          	lw	a6,-904(a5) # 20004c78 <tft_rect>
20000c98:	00100793          	li	a5,1
20000c9c:	01f00713          	li	a4,31
20000ca0:	13f00693          	li	a3,319
20000ca4:	1df00613          	li	a2,479
20000ca8:	00000593          	li	a1,0
20000cac:	00000513          	li	a0,0
20000cb0:	000800e7          	jalr	a6


    systick_periodic_micro(32000);  // 16000 ~60fps
20000cb4:	000087b7          	lui	a5,0x8
20000cb8:	d0078513          	addi	a0,a5,-768 # 7d00 <_start-0x1fff8300>
20000cbc:	114000ef          	jal	20000dd0 <systick_periodic_micro>

    

    while(1) {
        if(keypad_pending){
20000cc0:	200057b7          	lui	a5,0x20005
20000cc4:	e507a783          	lw	a5,-432(a5) # 20004e50 <keypad_pending>
20000cc8:	fe078ce3          	beqz	a5,20000cc0 <main+0x50>
            uint8_t key = keypad();
20000ccc:	d28ff0ef          	jal	200001f4 <keypad>
20000cd0:	00050793          	mv	a5,a0
20000cd4:	fef407a3          	sb	a5,-17(s0)
            keypad_pending = 0;// Key pressed - start tone and show key number (1-16) on bargraph
20000cd8:	200057b7          	lui	a5,0x20005
20000cdc:	e407a823          	sw	zero,-432(a5) # 20004e50 <keypad_pending>
            if(keybinds[key]==P1DOWN){
20000ce0:	fef44783          	lbu	a5,-17(s0)
20000ce4:	20005737          	lui	a4,0x20005
20000ce8:	c1c70713          	addi	a4,a4,-996 # 20004c1c <keybinds>
20000cec:	00279793          	slli	a5,a5,0x2
20000cf0:	00f707b3          	add	a5,a4,a5
20000cf4:	0007a703          	lw	a4,0(a5)
20000cf8:	00200793          	li	a5,2
20000cfc:	00f71c63          	bne	a4,a5,20000d14 <main+0xa4>
                P1.speed_y = PSpeed;}else if(keybinds[key]==P1UP){
20000d00:	200057b7          	lui	a5,0x20005
20000d04:	be078793          	addi	a5,a5,-1056 # 20004be0 <P1>
20000d08:	00500713          	li	a4,5
20000d0c:	00e7a423          	sw	a4,8(a5)
20000d10:	09c0006f          	j	20000dac <main+0x13c>
20000d14:	fef44783          	lbu	a5,-17(s0)
20000d18:	20005737          	lui	a4,0x20005
20000d1c:	c1c70713          	addi	a4,a4,-996 # 20004c1c <keybinds>
20000d20:	00279793          	slli	a5,a5,0x2
20000d24:	00f707b3          	add	a5,a4,a5
20000d28:	0007a703          	lw	a4,0(a5)
20000d2c:	00100793          	li	a5,1
20000d30:	00f71c63          	bne	a4,a5,20000d48 <main+0xd8>
                P1.speed_y = -PSpeed;}else if(keybinds[key]==P2DOWN){
20000d34:	200057b7          	lui	a5,0x20005
20000d38:	be078793          	addi	a5,a5,-1056 # 20004be0 <P1>
20000d3c:	ffb00713          	li	a4,-5
20000d40:	00e7a423          	sw	a4,8(a5)
20000d44:	0680006f          	j	20000dac <main+0x13c>
20000d48:	fef44783          	lbu	a5,-17(s0)
20000d4c:	20005737          	lui	a4,0x20005
20000d50:	c1c70713          	addi	a4,a4,-996 # 20004c1c <keybinds>
20000d54:	00279793          	slli	a5,a5,0x2
20000d58:	00f707b3          	add	a5,a4,a5
20000d5c:	0007a703          	lw	a4,0(a5)
20000d60:	00400793          	li	a5,4
20000d64:	00f71c63          	bne	a4,a5,20000d7c <main+0x10c>
                P2.speed_y = PSpeed;}else if(keybinds[key]==P2UP){
20000d68:	200057b7          	lui	a5,0x20005
20000d6c:	bf478793          	addi	a5,a5,-1036 # 20004bf4 <P2>
20000d70:	00500713          	li	a4,5
20000d74:	00e7a423          	sw	a4,8(a5)
20000d78:	0340006f          	j	20000dac <main+0x13c>
20000d7c:	fef44783          	lbu	a5,-17(s0)
20000d80:	20005737          	lui	a4,0x20005
20000d84:	c1c70713          	addi	a4,a4,-996 # 20004c1c <keybinds>
20000d88:	00279793          	slli	a5,a5,0x2
20000d8c:	00f707b3          	add	a5,a4,a5
20000d90:	0007a703          	lw	a4,0(a5)
20000d94:	00300793          	li	a5,3
20000d98:	00f71a63          	bne	a4,a5,20000dac <main+0x13c>
                P2.speed_y = -PSpeed;}
20000d9c:	200057b7          	lui	a5,0x20005
20000da0:	bf478793          	addi	a5,a5,-1036 # 20004bf4 <P2>
20000da4:	ffb00713          	li	a4,-5
20000da8:	00e7a423          	sw	a4,8(a5)
            for(volatile int d = 0; d < 500; d++);
20000dac:	fe042423          	sw	zero,-24(s0)
20000db0:	0100006f          	j	20000dc0 <main+0x150>
20000db4:	fe842783          	lw	a5,-24(s0)
20000db8:	00178793          	addi	a5,a5,1
20000dbc:	fef42423          	sw	a5,-24(s0)
20000dc0:	fe842703          	lw	a4,-24(s0)
20000dc4:	1f300793          	li	a5,499
20000dc8:	fee7d6e3          	bge	a5,a4,20000db4 <main+0x144>
        if(keypad_pending){
20000dcc:	ef5ff06f          	j	20000cc0 <main+0x50>

20000dd0 <systick_periodic_micro>:
20000dd0:	fe010113          	addi	sp,sp,-32
20000dd4:	00112e23          	sw	ra,28(sp)
20000dd8:	00812c23          	sw	s0,24(sp)
20000ddc:	02010413          	addi	s0,sp,32
20000de0:	fea42623          	sw	a0,-20(s0)
20000de4:	e000f7b7          	lui	a5,0xe000f
20000de8:	0007a023          	sw	zero,0(a5) # e000f000 <__stack_top+0xc000959c>
20000dec:	fec42703          	lw	a4,-20(s0)
20000df0:	00070793          	mv	a5,a4
20000df4:	00379793          	slli	a5,a5,0x3
20000df8:	00e787b3          	add	a5,a5,a4
20000dfc:	00479793          	slli	a5,a5,0x4
20000e00:	00078713          	mv	a4,a5
20000e04:	e000f7b7          	lui	a5,0xe000f
20000e08:	fff70713          	addi	a4,a4,-1
20000e0c:	00e7a823          	sw	a4,16(a5) # e000f010 <__stack_top+0xc00095ac>
20000e10:	e000f7b7          	lui	a5,0xe000f
20000e14:	02f00713          	li	a4,47
20000e18:	00e7a023          	sw	a4,0(a5) # e000f000 <__stack_top+0xc000959c>
20000e1c:	00000013          	nop
20000e20:	01c12083          	lw	ra,28(sp)
20000e24:	01812403          	lw	s0,24(sp)
20000e28:	02010113          	addi	sp,sp,32
20000e2c:	00008067          	ret

20000e30 <systick_stop>:
20000e30:	ff010113          	addi	sp,sp,-16
20000e34:	00112623          	sw	ra,12(sp)
20000e38:	00812423          	sw	s0,8(sp)
20000e3c:	01010413          	addi	s0,sp,16
20000e40:	e000f7b7          	lui	a5,0xe000f
20000e44:	0007a023          	sw	zero,0(a5) # e000f000 <__stack_top+0xc000959c>
20000e48:	00000013          	nop
20000e4c:	00c12083          	lw	ra,12(sp)
20000e50:	00812403          	lw	s0,8(sp)
20000e54:	01010113          	addi	sp,sp,16
20000e58:	00008067          	ret
20000e5c:	0000                	.insn	2, 0x0000
	...

20000e60 <vector_table>:
	...
20000e90:	e64ff06f          	j	200004f4 <systick_handler>
	...
20000eb8:	d59ff06f          	j	20000c10 <exti_handler>
20000ebc:	d55ff06f          	j	20000c10 <exti_handler>
20000ec0:	d51ff06f          	j	20000c10 <exti_handler>
20000ec4:	d4dff06f          	j	20000c10 <exti_handler>
20000ec8:	00000013          	nop
20000ecc:	00000013          	nop

20000ed0 <init_vector_table>:
20000ed0:	00000297          	auipc	t0,0x0
20000ed4:	f9028293          	addi	t0,t0,-112 # 20000e60 <vector_table>
20000ed8:	0012e293          	ori	t0,t0,1
20000edc:	30529073          	csrw	mtvec,t0
20000ee0:	00008067          	ret
20000ee4:	00000013          	nop
20000ee8:	00000013          	nop

20000eec <tft_init>:
20000eec:	00004297          	auipc	t0,0x4
20000ef0:	d8828293          	addi	t0,t0,-632 # 20004c74 <tft_ellipse>
20000ef4:	00000317          	auipc	t1,0x0
20000ef8:	12430313          	addi	t1,t1,292 # 20001018 <sim_tft_ellipse>
20000efc:	0062a023          	sw	t1,0(t0)
20000f00:	00004297          	auipc	t0,0x4
20000f04:	d7828293          	addi	t0,t0,-648 # 20004c78 <tft_rect>
20000f08:	00000317          	auipc	t1,0x0
20000f0c:	0e030313          	addi	t1,t1,224 # 20000fe8 <sim_tft_rect>
20000f10:	0062a023          	sw	t1,0(t0)
20000f14:	00004297          	auipc	t0,0x4
20000f18:	d6828293          	addi	t0,t0,-664 # 20004c7c <tft_line>
20000f1c:	00000317          	auipc	t1,0x0
20000f20:	0a030313          	addi	t1,t1,160 # 20000fbc <sim_tft_line>
20000f24:	0062a023          	sw	t1,0(t0)
20000f28:	00004297          	auipc	t0,0x4
20000f2c:	d5828293          	addi	t0,t0,-680 # 20004c80 <tft_pixel>
20000f30:	00000317          	auipc	t1,0x0
20000f34:	05c30313          	addi	t1,t1,92 # 20000f8c <sim_tft_pixel>
20000f38:	0062a023          	sw	t1,0(t0)
20000f3c:	00004297          	auipc	t0,0x4
20000f40:	d4828293          	addi	t0,t0,-696 # 20004c84 <tft_sprite>
20000f44:	00000317          	auipc	t1,0x0
20000f48:	10430313          	addi	t1,t1,260 # 20001048 <sim_tft_sprite>
20000f4c:	0062a023          	sw	t1,0(t0)
20000f50:	00100513          	li	a0,1
20000f54:	0040006f          	j	20000f58 <sim_tft_init>

20000f58 <sim_tft_init>:
20000f58:	00004317          	auipc	t1,0x4
20000f5c:	d3030313          	addi	t1,t1,-720 # 20004c88 <tft_init_call>
20000f60:	2001c3b7          	lui	t2,0x2001c
20000f64:	01438393          	addi	t2,t2,20 # 2001c014 <__stack_top+0x165b0>
20000f68:	0063a023          	sw	t1,0(t2)
20000f6c:	00004897          	auipc	a7,0x4
20000f70:	d1c88893          	addi	a7,a7,-740 # 20004c88 <tft_init_call>
20000f74:	00004297          	auipc	t0,0x4
20000f78:	ce828293          	addi	t0,t0,-792 # 20004c5c <frame>
20000f7c:	00a2a023          	sw	a0,0(t0)
20000f80:	00000073          	ecall
20000f84:	0002a503          	lw	a0,0(t0)
20000f88:	00008067          	ret

20000f8c <sim_tft_pixel>:
20000f8c:	00004897          	auipc	a7,0x4
20000f90:	d0488893          	addi	a7,a7,-764 # 20004c90 <tft_line_call>
20000f94:	00004297          	auipc	t0,0x4
20000f98:	cc828293          	addi	t0,t0,-824 # 20004c5c <frame>
20000f9c:	00a2a023          	sw	a0,0(t0)
20000fa0:	00b2a223          	sw	a1,4(t0)
20000fa4:	00a2a423          	sw	a0,8(t0)
20000fa8:	00158593          	addi	a1,a1,1
20000fac:	00b2a623          	sw	a1,12(t0)
20000fb0:	00c2a823          	sw	a2,16(t0)
20000fb4:	00000073          	ecall
20000fb8:	00008067          	ret

20000fbc <sim_tft_line>:
20000fbc:	00004897          	auipc	a7,0x4
20000fc0:	cd488893          	addi	a7,a7,-812 # 20004c90 <tft_line_call>
20000fc4:	00004297          	auipc	t0,0x4
20000fc8:	c9828293          	addi	t0,t0,-872 # 20004c5c <frame>
20000fcc:	00a2a023          	sw	a0,0(t0)
20000fd0:	00b2a223          	sw	a1,4(t0)
20000fd4:	00c2a423          	sw	a2,8(t0)
20000fd8:	00d2a623          	sw	a3,12(t0)
20000fdc:	00e2a823          	sw	a4,16(t0)
20000fe0:	00000073          	ecall
20000fe4:	00008067          	ret

20000fe8 <sim_tft_rect>:
20000fe8:	00004897          	auipc	a7,0x4
20000fec:	cb088893          	addi	a7,a7,-848 # 20004c98 <tft_rect_call>
20000ff0:	00004297          	auipc	t0,0x4
20000ff4:	c6c28293          	addi	t0,t0,-916 # 20004c5c <frame>
20000ff8:	00a2a023          	sw	a0,0(t0)
20000ffc:	00b2a223          	sw	a1,4(t0)
20001000:	00c2a423          	sw	a2,8(t0)
20001004:	00d2a623          	sw	a3,12(t0)
20001008:	00e2a823          	sw	a4,16(t0)
2000100c:	00f2aa23          	sw	a5,20(t0)
20001010:	00000073          	ecall
20001014:	00008067          	ret

20001018 <sim_tft_ellipse>:
20001018:	00004897          	auipc	a7,0x4
2000101c:	c8888893          	addi	a7,a7,-888 # 20004ca0 <tft_ellipse_call>
20001020:	00004297          	auipc	t0,0x4
20001024:	c3c28293          	addi	t0,t0,-964 # 20004c5c <frame>
20001028:	00a2a023          	sw	a0,0(t0)
2000102c:	00b2a223          	sw	a1,4(t0)
20001030:	00c2a423          	sw	a2,8(t0)
20001034:	00d2a623          	sw	a3,12(t0)
20001038:	00e2a823          	sw	a4,16(t0)
2000103c:	00f2aa23          	sw	a5,20(t0)
20001040:	00000073          	ecall
20001044:	00008067          	ret

20001048 <sim_tft_sprite>:
20001048:	00004897          	auipc	a7,0x4
2000104c:	c4888893          	addi	a7,a7,-952 # 20004c90 <tft_line_call>
20001050:	00004e17          	auipc	t3,0x4
20001054:	c0ce0e13          	addi	t3,t3,-1012 # 20004c5c <frame>
20001058:	00000293          	li	t0,0
2000105c:	04e2d463          	bge	t0,a4,200010a4 <sim_tft_sprite+0x5c>
20001060:	00000313          	li	t1,0
20001064:	02d35c63          	bge	t1,a3,2000109c <sim_tft_sprite+0x54>
20001068:	00650eb3          	add	t4,a0,t1
2000106c:	00558f33          	add	t5,a1,t0
20001070:	00065f83          	lhu	t6,0(a2)
20001074:	01de2023          	sw	t4,0(t3)
20001078:	01ee2223          	sw	t5,4(t3)
2000107c:	01de2423          	sw	t4,8(t3)
20001080:	001f0393          	addi	t2,t5,1
20001084:	007e2623          	sw	t2,12(t3)
20001088:	01fe2823          	sw	t6,16(t3)
2000108c:	00000073          	ecall
20001090:	00260613          	addi	a2,a2,2
20001094:	00130313          	addi	t1,t1,1
20001098:	fcdff06f          	j	20001064 <sim_tft_sprite+0x1c>
2000109c:	00128293          	addi	t0,t0,1
200010a0:	fbdff06f          	j	2000105c <sim_tft_sprite+0x14>
200010a4:	00008067          	ret

200010a8 <_pll_init_144>:
200010a8:	fe010113          	addi	sp,sp,-32
200010ac:	00112e23          	sw	ra,28(sp)
200010b0:	00812c23          	sw	s0,24(sp)
200010b4:	02010413          	addi	s0,sp,32
200010b8:	fe042623          	sw	zero,-20(s0)
200010bc:	fe042423          	sw	zero,-24(s0)
200010c0:	400217b7          	lui	a5,0x40021
200010c4:	0007a703          	lw	a4,0(a5) # 40021000 <__stack_top+0x2001b59c>
200010c8:	400217b7          	lui	a5,0x40021
200010cc:	00176713          	ori	a4,a4,1
200010d0:	00e7a023          	sw	a4,0(a5) # 40021000 <__stack_top+0x2001b59c>
200010d4:	400217b7          	lui	a5,0x40021
200010d8:	00478793          	addi	a5,a5,4 # 40021004 <__stack_top+0x2001b5a0>
200010dc:	0007a683          	lw	a3,0(a5)
200010e0:	400217b7          	lui	a5,0x40021
200010e4:	00478793          	addi	a5,a5,4 # 40021004 <__stack_top+0x2001b5a0>
200010e8:	f8ff0737          	lui	a4,0xf8ff0
200010ec:	00e6f733          	and	a4,a3,a4
200010f0:	00e7a023          	sw	a4,0(a5)
200010f4:	400217b7          	lui	a5,0x40021
200010f8:	0007a683          	lw	a3,0(a5) # 40021000 <__stack_top+0x2001b59c>
200010fc:	400217b7          	lui	a5,0x40021
20001100:	fef70737          	lui	a4,0xfef70
20001104:	fff70713          	addi	a4,a4,-1 # fef6ffff <__stack_top+0xdef6a59b>
20001108:	00e6f733          	and	a4,a3,a4
2000110c:	00e7a023          	sw	a4,0(a5) # 40021000 <__stack_top+0x2001b59c>
20001110:	400217b7          	lui	a5,0x40021
20001114:	0007a683          	lw	a3,0(a5) # 40021000 <__stack_top+0x2001b59c>
20001118:	400217b7          	lui	a5,0x40021
2000111c:	fffc0737          	lui	a4,0xfffc0
20001120:	fff70713          	addi	a4,a4,-1 # fffbffff <__stack_top+0xdffba59b>
20001124:	00e6f733          	and	a4,a3,a4
20001128:	00e7a023          	sw	a4,0(a5) # 40021000 <__stack_top+0x2001b59c>
2000112c:	400217b7          	lui	a5,0x40021
20001130:	00478793          	addi	a5,a5,4 # 40021004 <__stack_top+0x2001b5a0>
20001134:	0007a683          	lw	a3,0(a5)
20001138:	400217b7          	lui	a5,0x40021
2000113c:	00478793          	addi	a5,a5,4 # 40021004 <__stack_top+0x2001b5a0>
20001140:	ff810737          	lui	a4,0xff810
20001144:	fff70713          	addi	a4,a4,-1 # ff80ffff <__stack_top+0xdf80a59b>
20001148:	00e6f733          	and	a4,a3,a4
2000114c:	00e7a023          	sw	a4,0(a5)
20001150:	400217b7          	lui	a5,0x40021
20001154:	0007a683          	lw	a3,0(a5) # 40021000 <__stack_top+0x2001b59c>
20001158:	400217b7          	lui	a5,0x40021
2000115c:	ec000737          	lui	a4,0xec000
20001160:	fff70713          	addi	a4,a4,-1 # ebffffff <__stack_top+0xcbffa59b>
20001164:	00e6f733          	and	a4,a3,a4
20001168:	00e7a023          	sw	a4,0(a5) # 40021000 <__stack_top+0x2001b59c>
2000116c:	400217b7          	lui	a5,0x40021
20001170:	00878793          	addi	a5,a5,8 # 40021008 <__stack_top+0x2001b5a4>
20001174:	00ff0737          	lui	a4,0xff0
20001178:	00e7a023          	sw	a4,0(a5)
2000117c:	400217b7          	lui	a5,0x40021
20001180:	02c78793          	addi	a5,a5,44 # 4002102c <__stack_top+0x2001b5c8>
20001184:	0007a023          	sw	zero,0(a5)
20001188:	400217b7          	lui	a5,0x40021
2000118c:	0007a683          	lw	a3,0(a5) # 40021000 <__stack_top+0x2001b59c>
20001190:	400217b7          	lui	a5,0x40021
20001194:	00010737          	lui	a4,0x10
20001198:	00e6e733          	or	a4,a3,a4
2000119c:	00e7a023          	sw	a4,0(a5) # 40021000 <__stack_top+0x2001b59c>
200011a0:	400217b7          	lui	a5,0x40021
200011a4:	0007a703          	lw	a4,0(a5) # 40021000 <__stack_top+0x2001b59c>
200011a8:	000207b7          	lui	a5,0x20
200011ac:	00f777b3          	and	a5,a4,a5
200011b0:	fef42423          	sw	a5,-24(s0)
200011b4:	fec42783          	lw	a5,-20(s0)
200011b8:	00178793          	addi	a5,a5,1 # 20001 <_start-0x1ffdffff>
200011bc:	fef42623          	sw	a5,-20(s0)
200011c0:	fe842783          	lw	a5,-24(s0)
200011c4:	00079863          	bnez	a5,200011d4 <_pll_init_144+0x12c>
200011c8:	fec42703          	lw	a4,-20(s0)
200011cc:	1f400793          	li	a5,500
200011d0:	fcf718e3          	bne	a4,a5,200011a0 <_pll_init_144+0xf8>
200011d4:	400217b7          	lui	a5,0x40021
200011d8:	0007a703          	lw	a4,0(a5) # 40021000 <__stack_top+0x2001b59c>
200011dc:	000207b7          	lui	a5,0x20
200011e0:	00f777b3          	and	a5,a4,a5
200011e4:	00079663          	bnez	a5,200011f0 <_pll_init_144+0x148>
200011e8:	00100793          	li	a5,1
200011ec:	11c0006f          	j	20001308 <_pll_init_144+0x260>
200011f0:	400217b7          	lui	a5,0x40021
200011f4:	00478713          	addi	a4,a5,4 # 40021004 <__stack_top+0x2001b5a0>
200011f8:	400217b7          	lui	a5,0x40021
200011fc:	00478793          	addi	a5,a5,4 # 40021004 <__stack_top+0x2001b5a0>
20001200:	00072703          	lw	a4,0(a4) # 10000 <_start-0x1fff0000>
20001204:	00e7a023          	sw	a4,0(a5)
20001208:	400217b7          	lui	a5,0x40021
2000120c:	00478713          	addi	a4,a5,4 # 40021004 <__stack_top+0x2001b5a0>
20001210:	400217b7          	lui	a5,0x40021
20001214:	00478793          	addi	a5,a5,4 # 40021004 <__stack_top+0x2001b5a0>
20001218:	00072703          	lw	a4,0(a4)
2000121c:	00e7a023          	sw	a4,0(a5)
20001220:	400217b7          	lui	a5,0x40021
20001224:	02c78793          	addi	a5,a5,44 # 4002102c <__stack_top+0x2001b5c8>
20001228:	0007a703          	lw	a4,0(a5)
2000122c:	400217b7          	lui	a5,0x40021
20001230:	02c78793          	addi	a5,a5,44 # 4002102c <__stack_top+0x2001b5c8>
20001234:	40076713          	ori	a4,a4,1024
20001238:	00e7a023          	sw	a4,0(a5)
2000123c:	400217b7          	lui	a5,0x40021
20001240:	00478793          	addi	a5,a5,4 # 40021004 <__stack_top+0x2001b5a0>
20001244:	0007a683          	lw	a3,0(a5)
20001248:	400217b7          	lui	a5,0x40021
2000124c:	00478793          	addi	a5,a5,4 # 40021004 <__stack_top+0x2001b5a0>
20001250:	ffc10737          	lui	a4,0xffc10
20001254:	fff70713          	addi	a4,a4,-1 # ffc0ffff <__stack_top+0xdfc0a59b>
20001258:	00e6f733          	and	a4,a3,a4
2000125c:	00e7a023          	sw	a4,0(a5)
20001260:	400217b7          	lui	a5,0x40021
20001264:	00478793          	addi	a5,a5,4 # 40021004 <__stack_top+0x2001b5a0>
20001268:	0007a683          	lw	a3,0(a5)
2000126c:	400217b7          	lui	a5,0x40021
20001270:	00478793          	addi	a5,a5,4 # 40021004 <__stack_top+0x2001b5a0>
20001274:	00010737          	lui	a4,0x10
20001278:	00e6e733          	or	a4,a3,a4
2000127c:	00e7a023          	sw	a4,0(a5)
20001280:	400217b7          	lui	a5,0x40021
20001284:	0007a683          	lw	a3,0(a5) # 40021000 <__stack_top+0x2001b59c>
20001288:	400217b7          	lui	a5,0x40021
2000128c:	01000737          	lui	a4,0x1000
20001290:	00e6e733          	or	a4,a3,a4
20001294:	00e7a023          	sw	a4,0(a5) # 40021000 <__stack_top+0x2001b59c>
20001298:	00000013          	nop
2000129c:	400217b7          	lui	a5,0x40021
200012a0:	0007a703          	lw	a4,0(a5) # 40021000 <__stack_top+0x2001b59c>
200012a4:	020007b7          	lui	a5,0x2000
200012a8:	00f777b3          	and	a5,a4,a5
200012ac:	fe0788e3          	beqz	a5,2000129c <_pll_init_144+0x1f4>
200012b0:	400217b7          	lui	a5,0x40021
200012b4:	00478793          	addi	a5,a5,4 # 40021004 <__stack_top+0x2001b5a0>
200012b8:	0007a703          	lw	a4,0(a5)
200012bc:	400217b7          	lui	a5,0x40021
200012c0:	00478793          	addi	a5,a5,4 # 40021004 <__stack_top+0x2001b5a0>
200012c4:	ffc77713          	andi	a4,a4,-4
200012c8:	00e7a023          	sw	a4,0(a5)
200012cc:	400217b7          	lui	a5,0x40021
200012d0:	00478793          	addi	a5,a5,4 # 40021004 <__stack_top+0x2001b5a0>
200012d4:	0007a703          	lw	a4,0(a5)
200012d8:	400217b7          	lui	a5,0x40021
200012dc:	00478793          	addi	a5,a5,4 # 40021004 <__stack_top+0x2001b5a0>
200012e0:	00276713          	ori	a4,a4,2
200012e4:	00e7a023          	sw	a4,0(a5)
200012e8:	00000013          	nop
200012ec:	400217b7          	lui	a5,0x40021
200012f0:	00478793          	addi	a5,a5,4 # 40021004 <__stack_top+0x2001b5a0>
200012f4:	0007a783          	lw	a5,0(a5)
200012f8:	00c7f713          	andi	a4,a5,12
200012fc:	00800793          	li	a5,8
20001300:	fef716e3          	bne	a4,a5,200012ec <_pll_init_144+0x244>
20001304:	00000793          	li	a5,0
20001308:	00078513          	mv	a0,a5
2000130c:	01c12083          	lw	ra,28(sp)
20001310:	01812403          	lw	s0,24(sp)
20001314:	02010113          	addi	sp,sp,32
20001318:	00008067          	ret

2000131c <crt_timer_interrupt>:
2000131c:	fd010113          	addi	sp,sp,-48
20001320:	02112623          	sw	ra,44(sp)
20001324:	02512423          	sw	t0,40(sp)
20001328:	02812223          	sw	s0,36(sp)
2000132c:	02a12023          	sw	a0,32(sp)
20001330:	00b12e23          	sw	a1,28(sp)
20001334:	00c12c23          	sw	a2,24(sp)
20001338:	00d12a23          	sw	a3,20(sp)
2000133c:	00e12823          	sw	a4,16(sp)
20001340:	00f12623          	sw	a5,12(sp)
20001344:	01012423          	sw	a6,8(sp)
20001348:	03010413          	addi	s0,sp,48
2000134c:	400017b7          	lui	a5,0x40001
20001350:	0107d783          	lhu	a5,16(a5) # 40001010 <__stack_top+0x1fffb5ac>
20001354:	01079713          	slli	a4,a5,0x10
20001358:	01075713          	srli	a4,a4,0x10
2000135c:	400017b7          	lui	a5,0x40001
20001360:	ffe77713          	andi	a4,a4,-2
20001364:	01071713          	slli	a4,a4,0x10
20001368:	01075713          	srli	a4,a4,0x10
2000136c:	00e79823          	sh	a4,16(a5) # 40001010 <__stack_top+0x1fffb5ac>
20001370:	200057b7          	lui	a5,0x20005
20001374:	d087a703          	lw	a4,-760(a5) # 20004d08 <current_time>
20001378:	d0c7a783          	lw	a5,-756(a5)
2000137c:	00100513          	li	a0,1
20001380:	00000593          	li	a1,0
20001384:	00a70633          	add	a2,a4,a0
20001388:	00060813          	mv	a6,a2
2000138c:	00e83833          	sltu	a6,a6,a4
20001390:	00b786b3          	add	a3,a5,a1
20001394:	00d807b3          	add	a5,a6,a3
20001398:	00078693          	mv	a3,a5
2000139c:	00060713          	mv	a4,a2
200013a0:	00068793          	mv	a5,a3
200013a4:	200056b7          	lui	a3,0x20005
200013a8:	d0e6a423          	sw	a4,-760(a3) # 20004d08 <current_time>
200013ac:	d0f6a623          	sw	a5,-756(a3)
200013b0:	00000013          	nop
200013b4:	02c12083          	lw	ra,44(sp)
200013b8:	02812283          	lw	t0,40(sp)
200013bc:	02412403          	lw	s0,36(sp)
200013c0:	02012503          	lw	a0,32(sp)
200013c4:	01c12583          	lw	a1,28(sp)
200013c8:	01812603          	lw	a2,24(sp)
200013cc:	01412683          	lw	a3,20(sp)
200013d0:	01012703          	lw	a4,16(sp)
200013d4:	00c12783          	lw	a5,12(sp)
200013d8:	00812803          	lw	a6,8(sp)
200013dc:	03010113          	addi	sp,sp,48
200013e0:	30200073          	mret

200013e4 <_times>:
200013e4:	fe010113          	addi	sp,sp,-32
200013e8:	00112e23          	sw	ra,28(sp)
200013ec:	00812c23          	sw	s0,24(sp)
200013f0:	02010413          	addi	s0,sp,32
200013f4:	fea42623          	sw	a0,-20(s0)
200013f8:	200057b7          	lui	a5,0x20005
200013fc:	d087a703          	lw	a4,-760(a5) # 20004d08 <current_time>
20001400:	d0c7a783          	lw	a5,-756(a5)
20001404:	fec42783          	lw	a5,-20(s0)
20001408:	00e7a223          	sw	a4,4(a5)
2000140c:	fec42783          	lw	a5,-20(s0)
20001410:	0047a703          	lw	a4,4(a5)
20001414:	fec42783          	lw	a5,-20(s0)
20001418:	00e7a023          	sw	a4,0(a5)
2000141c:	200057b7          	lui	a5,0x20005
20001420:	d087a703          	lw	a4,-760(a5) # 20004d08 <current_time>
20001424:	d0c7a783          	lw	a5,-756(a5)
20001428:	00070793          	mv	a5,a4
2000142c:	00078513          	mv	a0,a5
20001430:	01c12083          	lw	ra,28(sp)
20001434:	01812403          	lw	s0,24(sp)
20001438:	02010113          	addi	sp,sp,32
2000143c:	00008067          	ret

20001440 <_gettimeofday>:
20001440:	fd010113          	addi	sp,sp,-48
20001444:	02112623          	sw	ra,44(sp)
20001448:	02812423          	sw	s0,40(sp)
2000144c:	03010413          	addi	s0,sp,48
20001450:	fca42e23          	sw	a0,-36(s0)
20001454:	fcb42c23          	sw	a1,-40(s0)
20001458:	200057b7          	lui	a5,0x20005
2000145c:	d087a703          	lw	a4,-760(a5) # 20004d08 <current_time>
20001460:	d0c7a783          	lw	a5,-756(a5)
20001464:	fee42423          	sw	a4,-24(s0)
20001468:	fef42623          	sw	a5,-20(s0)
2000146c:	fe842703          	lw	a4,-24(s0)
20001470:	fec42783          	lw	a5,-20(s0)
20001474:	06400613          	li	a2,100
20001478:	00000693          	li	a3,0
2000147c:	00070513          	mv	a0,a4
20001480:	00078593          	mv	a1,a5
20001484:	768000ef          	jal	20001bec <__udivdi3>
20001488:	00050713          	mv	a4,a0
2000148c:	00058793          	mv	a5,a1
20001490:	fdc42683          	lw	a3,-36(s0)
20001494:	00e6a023          	sw	a4,0(a3)
20001498:	00f6a223          	sw	a5,4(a3)
2000149c:	fe842703          	lw	a4,-24(s0)
200014a0:	fec42783          	lw	a5,-20(s0)
200014a4:	06400613          	li	a2,100
200014a8:	00000693          	li	a3,0
200014ac:	00070513          	mv	a0,a4
200014b0:	00078593          	mv	a1,a5
200014b4:	325000ef          	jal	20001fd8 <__umoddi3>
200014b8:	00050713          	mv	a4,a0
200014bc:	00058793          	mv	a5,a1
200014c0:	fdc42783          	lw	a5,-36(s0)
200014c4:	00e7a423          	sw	a4,8(a5)
200014c8:	00000793          	li	a5,0
200014cc:	00078513          	mv	a0,a5
200014d0:	02c12083          	lw	ra,44(sp)
200014d4:	02812403          	lw	s0,40(sp)
200014d8:	03010113          	addi	sp,sp,48
200014dc:	00008067          	ret

200014e0 <_settimeofday>:
200014e0:	fe010113          	addi	sp,sp,-32
200014e4:	00112e23          	sw	ra,28(sp)
200014e8:	00812c23          	sw	s0,24(sp)
200014ec:	02010413          	addi	s0,sp,32
200014f0:	fea42623          	sw	a0,-20(s0)
200014f4:	feb42423          	sw	a1,-24(s0)
200014f8:	fec42783          	lw	a5,-20(s0)
200014fc:	0007a703          	lw	a4,0(a5)
20001500:	0047a783          	lw	a5,4(a5)
20001504:	06400593          	li	a1,100
20001508:	02b78533          	mul	a0,a5,a1
2000150c:	00000593          	li	a1,0
20001510:	02b705b3          	mul	a1,a4,a1
20001514:	00b50533          	add	a0,a0,a1
20001518:	06400593          	li	a1,100
2000151c:	02b70333          	mul	t1,a4,a1
20001520:	02b738b3          	mulhu	a7,a4,a1
20001524:	00030813          	mv	a6,t1
20001528:	011507b3          	add	a5,a0,a7
2000152c:	00078893          	mv	a7,a5
20001530:	00080713          	mv	a4,a6
20001534:	00088793          	mv	a5,a7
20001538:	200055b7          	lui	a1,0x20005
2000153c:	d0e5a423          	sw	a4,-760(a1) # 20004d08 <current_time>
20001540:	d0f5a623          	sw	a5,-756(a1)
20001544:	fec42783          	lw	a5,-20(s0)
20001548:	0087a783          	lw	a5,8(a5)
2000154c:	00078613          	mv	a2,a5
20001550:	41f7d793          	srai	a5,a5,0x1f
20001554:	00078693          	mv	a3,a5
20001558:	200057b7          	lui	a5,0x20005
2000155c:	d087a503          	lw	a0,-760(a5) # 20004d08 <current_time>
20001560:	d0c7a583          	lw	a1,-756(a5)
20001564:	00a60733          	add	a4,a2,a0
20001568:	00070813          	mv	a6,a4
2000156c:	00c83833          	sltu	a6,a6,a2
20001570:	00b687b3          	add	a5,a3,a1
20001574:	00f806b3          	add	a3,a6,a5
20001578:	00068793          	mv	a5,a3
2000157c:	200056b7          	lui	a3,0x20005
20001580:	d0e6a423          	sw	a4,-760(a3) # 20004d08 <current_time>
20001584:	d0f6a623          	sw	a5,-756(a3)
20001588:	00000793          	li	a5,0
2000158c:	00078513          	mv	a0,a5
20001590:	01c12083          	lw	ra,28(sp)
20001594:	01812403          	lw	s0,24(sp)
20001598:	02010113          	addi	sp,sp,32
2000159c:	00008067          	ret

200015a0 <_tstchar>:
200015a0:	ff010113          	addi	sp,sp,-16
200015a4:	00112623          	sw	ra,12(sp)
200015a8:	00812423          	sw	s0,8(sp)
200015ac:	01010413          	addi	s0,sp,16
200015b0:	400147b7          	lui	a5,0x40014
200015b4:	80078793          	addi	a5,a5,-2048 # 40013800 <__stack_top+0x2000dd9c>
200015b8:	0007d783          	lhu	a5,0(a5)
200015bc:	01079793          	slli	a5,a5,0x10
200015c0:	0107d793          	srli	a5,a5,0x10
200015c4:	0207f793          	andi	a5,a5,32
200015c8:	02078063          	beqz	a5,200015e8 <_tstchar+0x48>
200015cc:	400147b7          	lui	a5,0x40014
200015d0:	80078793          	addi	a5,a5,-2048 # 40013800 <__stack_top+0x2000dd9c>
200015d4:	0047d783          	lhu	a5,4(a5)
200015d8:	01079793          	slli	a5,a5,0x10
200015dc:	0107d793          	srli	a5,a5,0x10
200015e0:	0ff7f793          	zext.b	a5,a5
200015e4:	0080006f          	j	200015ec <_tstchar+0x4c>
200015e8:	00000793          	li	a5,0
200015ec:	00078513          	mv	a0,a5
200015f0:	00c12083          	lw	ra,12(sp)
200015f4:	00812403          	lw	s0,8(sp)
200015f8:	01010113          	addi	sp,sp,16
200015fc:	00008067          	ret

20001600 <_outchar>:
20001600:	fe010113          	addi	sp,sp,-32
20001604:	00112e23          	sw	ra,28(sp)
20001608:	00812c23          	sw	s0,24(sp)
2000160c:	02010413          	addi	s0,sp,32
20001610:	00050793          	mv	a5,a0
20001614:	fef407a3          	sb	a5,-17(s0)
20001618:	400147b7          	lui	a5,0x40014
2000161c:	80078793          	addi	a5,a5,-2048 # 40013800 <__stack_top+0x2000dd9c>
20001620:	fef44703          	lbu	a4,-17(s0)
20001624:	01071713          	slli	a4,a4,0x10
20001628:	01075713          	srli	a4,a4,0x10
2000162c:	00e79223          	sh	a4,4(a5)
20001630:	00000013          	nop
20001634:	400147b7          	lui	a5,0x40014
20001638:	80078793          	addi	a5,a5,-2048 # 40013800 <__stack_top+0x2000dd9c>
2000163c:	0007d783          	lhu	a5,0(a5)
20001640:	01079793          	slli	a5,a5,0x10
20001644:	0107d793          	srli	a5,a5,0x10
20001648:	0807f793          	andi	a5,a5,128
2000164c:	fe0784e3          	beqz	a5,20001634 <_outchar+0x34>
20001650:	00000013          	nop
20001654:	00000013          	nop
20001658:	01c12083          	lw	ra,28(sp)
2000165c:	01812403          	lw	s0,24(sp)
20001660:	02010113          	addi	sp,sp,32
20001664:	00008067          	ret

20001668 <_sbrk>:
20001668:	fd010113          	addi	sp,sp,-48
2000166c:	02112623          	sw	ra,44(sp)
20001670:	02812423          	sw	s0,40(sp)
20001674:	03010413          	addi	s0,sp,48
20001678:	fca42e23          	sw	a0,-36(s0)
2000167c:	200057b7          	lui	a5,0x20005
20001680:	d107a783          	lw	a5,-752(a5) # 20004d10 <heap_end>
20001684:	00079a63          	bnez	a5,20001698 <_sbrk+0x30>
20001688:	200057b7          	lui	a5,0x20005
2000168c:	20005737          	lui	a4,0x20005
20001690:	e6470713          	addi	a4,a4,-412 # 20004e64 <__bss_end__>
20001694:	d0e7a823          	sw	a4,-752(a5) # 20004d10 <heap_end>
20001698:	200057b7          	lui	a5,0x20005
2000169c:	d107a783          	lw	a5,-752(a5) # 20004d10 <heap_end>
200016a0:	fef42623          	sw	a5,-20(s0)
200016a4:	200057b7          	lui	a5,0x20005
200016a8:	d107a703          	lw	a4,-752(a5) # 20004d10 <heap_end>
200016ac:	fdc42783          	lw	a5,-36(s0)
200016b0:	00f70733          	add	a4,a4,a5
200016b4:	200057b7          	lui	a5,0x20005
200016b8:	66478793          	addi	a5,a5,1636 # 20005664 <__heap_top>
200016bc:	00e7fe63          	bgeu	a5,a4,200016d8 <_sbrk+0x70>
200016c0:	7b9000ef          	jal	20002678 <__errno>
200016c4:	00050713          	mv	a4,a0
200016c8:	00c00793          	li	a5,12
200016cc:	00f72023          	sw	a5,0(a4)
200016d0:	fff00793          	li	a5,-1
200016d4:	0200006f          	j	200016f4 <_sbrk+0x8c>
200016d8:	200057b7          	lui	a5,0x20005
200016dc:	d107a703          	lw	a4,-752(a5) # 20004d10 <heap_end>
200016e0:	fdc42783          	lw	a5,-36(s0)
200016e4:	00f70733          	add	a4,a4,a5
200016e8:	200057b7          	lui	a5,0x20005
200016ec:	d0e7a823          	sw	a4,-752(a5) # 20004d10 <heap_end>
200016f0:	fec42783          	lw	a5,-20(s0)
200016f4:	00078513          	mv	a0,a5
200016f8:	02c12083          	lw	ra,44(sp)
200016fc:	02812403          	lw	s0,40(sp)
20001700:	03010113          	addi	sp,sp,48
20001704:	00008067          	ret

20001708 <_crt_init>:
20001708:	fe010113          	addi	sp,sp,-32
2000170c:	00112e23          	sw	ra,28(sp)
20001710:	00812c23          	sw	s0,24(sp)
20001714:	02010413          	addi	s0,sp,32
20001718:	00000013          	nop
2000171c:	98dff0ef          	jal	200010a8 <_pll_init_144>
20001720:	00050793          	mv	a5,a0
20001724:	fe079ce3          	bnez	a5,2000171c <_crt_init+0x14>
20001728:	400217b7          	lui	a5,0x40021
2000172c:	0187a683          	lw	a3,24(a5) # 40021018 <__stack_top+0x2001b5b4>
20001730:	400217b7          	lui	a5,0x40021
20001734:	00004737          	lui	a4,0x4
20001738:	00e6e733          	or	a4,a3,a4
2000173c:	00e7ac23          	sw	a4,24(a5) # 40021018 <__stack_top+0x2001b5b4>
20001740:	400217b7          	lui	a5,0x40021
20001744:	0187a703          	lw	a4,24(a5) # 40021018 <__stack_top+0x2001b5b4>
20001748:	400217b7          	lui	a5,0x40021
2000174c:	00476713          	ori	a4,a4,4
20001750:	00e7ac23          	sw	a4,24(a5) # 40021018 <__stack_top+0x2001b5b4>
20001754:	400217b7          	lui	a5,0x40021
20001758:	0187a703          	lw	a4,24(a5) # 40021018 <__stack_top+0x2001b5b4>
2000175c:	400217b7          	lui	a5,0x40021
20001760:	00176713          	ori	a4,a4,1
20001764:	00e7ac23          	sw	a4,24(a5) # 40021018 <__stack_top+0x2001b5b4>
20001768:	400217b7          	lui	a5,0x40021
2000176c:	0187a703          	lw	a4,24(a5) # 40021018 <__stack_top+0x2001b5b4>
20001770:	400217b7          	lui	a5,0x40021
20001774:	02076713          	ori	a4,a4,32
20001778:	00e7ac23          	sw	a4,24(a5) # 40021018 <__stack_top+0x2001b5b4>
2000177c:	400217b7          	lui	a5,0x40021
20001780:	0187a703          	lw	a4,24(a5) # 40021018 <__stack_top+0x2001b5b4>
20001784:	400217b7          	lui	a5,0x40021
20001788:	04076713          	ori	a4,a4,64
2000178c:	00e7ac23          	sw	a4,24(a5) # 40021018 <__stack_top+0x2001b5b4>
20001790:	400217b7          	lui	a5,0x40021
20001794:	00c7a683          	lw	a3,12(a5) # 4002100c <__stack_top+0x2001b5a8>
20001798:	400217b7          	lui	a5,0x40021
2000179c:	00004737          	lui	a4,0x4
200017a0:	06070713          	addi	a4,a4,96 # 4060 <_start-0x1fffbfa0>
200017a4:	00e6e733          	or	a4,a3,a4
200017a8:	00e7a623          	sw	a4,12(a5) # 4002100c <__stack_top+0x2001b5a8>
200017ac:	400217b7          	lui	a5,0x40021
200017b0:	00c7a683          	lw	a3,12(a5) # 4002100c <__stack_top+0x2001b5a8>
200017b4:	400217b7          	lui	a5,0x40021
200017b8:	ffffc737          	lui	a4,0xffffc
200017bc:	f9f70713          	addi	a4,a4,-97 # ffffbf9f <__stack_top+0xdfff653b>
200017c0:	00e6f733          	and	a4,a3,a4
200017c4:	00e7a623          	sw	a4,12(a5) # 4002100c <__stack_top+0x2001b5a8>
200017c8:	400117b7          	lui	a5,0x40011
200017cc:	80478793          	addi	a5,a5,-2044 # 40010804 <__stack_top+0x2000ada0>
200017d0:	0007a703          	lw	a4,0(a5)
200017d4:	400117b7          	lui	a5,0x40011
200017d8:	80478793          	addi	a5,a5,-2044 # 40010804 <__stack_top+0x2000ada0>
200017dc:	0b076713          	ori	a4,a4,176
200017e0:	00e7a023          	sw	a4,0(a5)
200017e4:	400117b7          	lui	a5,0x40011
200017e8:	80478793          	addi	a5,a5,-2044 # 40010804 <__stack_top+0x2000ada0>
200017ec:	0007a703          	lw	a4,0(a5)
200017f0:	400117b7          	lui	a5,0x40011
200017f4:	80478793          	addi	a5,a5,-2044 # 40010804 <__stack_top+0x2000ada0>
200017f8:	40076713          	ori	a4,a4,1024
200017fc:	00e7a023          	sw	a4,0(a5)
20001800:	400147b7          	lui	a5,0x40014
20001804:	80078793          	addi	a5,a5,-2048 # 40013800 <__stack_top+0x2000dd9c>
20001808:	4e200713          	li	a4,1250
2000180c:	00e79423          	sh	a4,8(a5)
20001810:	400147b7          	lui	a5,0x40014
20001814:	80078793          	addi	a5,a5,-2048 # 40013800 <__stack_top+0x2000dd9c>
20001818:	00002737          	lui	a4,0x2
2000181c:	00c70713          	addi	a4,a4,12 # 200c <_start-0x1fffdff4>
20001820:	00e79623          	sh	a4,12(a5)
20001824:	400217b7          	lui	a5,0x40021
20001828:	01c7a703          	lw	a4,28(a5) # 4002101c <__stack_top+0x2001b5b8>
2000182c:	400217b7          	lui	a5,0x40021
20001830:	01076713          	ori	a4,a4,16
20001834:	00e7ae23          	sw	a4,28(a5) # 4002101c <__stack_top+0x2001b5b8>
20001838:	400217b7          	lui	a5,0x40021
2000183c:	0107a703          	lw	a4,16(a5) # 40021010 <__stack_top+0x2001b5ac>
20001840:	400217b7          	lui	a5,0x40021
20001844:	01076713          	ori	a4,a4,16
20001848:	00e7a823          	sw	a4,16(a5) # 40021010 <__stack_top+0x2001b5ac>
2000184c:	400217b7          	lui	a5,0x40021
20001850:	0107a703          	lw	a4,16(a5) # 40021010 <__stack_top+0x2001b5ac>
20001854:	400217b7          	lui	a5,0x40021
20001858:	fef77713          	andi	a4,a4,-17
2000185c:	00e7a823          	sw	a4,16(a5) # 40021010 <__stack_top+0x2001b5ac>
20001860:	400217b7          	lui	a5,0x40021
20001864:	01c7a703          	lw	a4,28(a5) # 4002101c <__stack_top+0x2001b5b8>
20001868:	400217b7          	lui	a5,0x40021
2000186c:	02076713          	ori	a4,a4,32
20001870:	00e7ae23          	sw	a4,28(a5) # 4002101c <__stack_top+0x2001b5b8>
20001874:	400217b7          	lui	a5,0x40021
20001878:	0107a703          	lw	a4,16(a5) # 40021010 <__stack_top+0x2001b5ac>
2000187c:	400217b7          	lui	a5,0x40021
20001880:	02076713          	ori	a4,a4,32
20001884:	00e7a823          	sw	a4,16(a5) # 40021010 <__stack_top+0x2001b5ac>
20001888:	400217b7          	lui	a5,0x40021
2000188c:	0107a703          	lw	a4,16(a5) # 40021010 <__stack_top+0x2001b5ac>
20001890:	400217b7          	lui	a5,0x40021
20001894:	fdf77713          	andi	a4,a4,-33
20001898:	00e7a823          	sw	a4,16(a5) # 40021010 <__stack_top+0x2001b5ac>
2000189c:	200057b7          	lui	a5,0x20005
200018a0:	d007a823          	sw	zero,-752(a5) # 20004d10 <heap_end>
200018a4:	200057b7          	lui	a5,0x20005
200018a8:	d0878793          	addi	a5,a5,-760 # 20004d08 <current_time>
200018ac:	fef42623          	sw	a5,-20(s0)
200018b0:	200057b7          	lui	a5,0x20005
200018b4:	e6478793          	addi	a5,a5,-412 # 20004e64 <__bss_end__>
200018b8:	fef42423          	sw	a5,-24(s0)
200018bc:	0140006f          	j	200018d0 <_crt_init+0x1c8>
200018c0:	fec42783          	lw	a5,-20(s0)
200018c4:	00178713          	addi	a4,a5,1
200018c8:	fee42623          	sw	a4,-20(s0)
200018cc:	00078023          	sb	zero,0(a5)
200018d0:	fec42703          	lw	a4,-20(s0)
200018d4:	fe842783          	lw	a5,-24(s0)
200018d8:	fef764e3          	bltu	a4,a5,200018c0 <_crt_init+0x1b8>
200018dc:	200057b7          	lui	a5,0x20005
200018e0:	d007a783          	lw	a5,-768(a5) # 20004d00 <_impure_ptr>
200018e4:	0047a783          	lw	a5,4(a5)
200018e8:	00000693          	li	a3,0
200018ec:	00200613          	li	a2,2
200018f0:	00000593          	li	a1,0
200018f4:	00078513          	mv	a0,a5
200018f8:	38d000ef          	jal	20002484 <setvbuf>
200018fc:	200057b7          	lui	a5,0x20005
20001900:	d007a783          	lw	a5,-768(a5) # 20004d00 <_impure_ptr>
20001904:	0087a783          	lw	a5,8(a5)
20001908:	00000693          	li	a3,0
2000190c:	00200613          	li	a2,2
20001910:	00000593          	li	a1,0
20001914:	00078513          	mv	a0,a5
20001918:	36d000ef          	jal	20002484 <setvbuf>
2000191c:	200057b7          	lui	a5,0x20005
20001920:	d007a783          	lw	a5,-768(a5) # 20004d00 <_impure_ptr>
20001924:	00c7a783          	lw	a5,12(a5)
20001928:	00000693          	li	a3,0
2000192c:	00200613          	li	a2,2
20001930:	00000593          	li	a1,0
20001934:	00078513          	mv	a0,a5
20001938:	34d000ef          	jal	20002484 <setvbuf>
2000193c:	00000013          	nop
20001940:	01c12083          	lw	ra,28(sp)
20001944:	01812403          	lw	s0,24(sp)
20001948:	02010113          	addi	sp,sp,32
2000194c:	00008067          	ret

20001950 <_crt_deinit>:
20001950:	ff010113          	addi	sp,sp,-16
20001954:	00112623          	sw	ra,12(sp)
20001958:	00812423          	sw	s0,8(sp)
2000195c:	01010413          	addi	s0,sp,16
20001960:	00000013          	nop
20001964:	00c12083          	lw	ra,12(sp)
20001968:	00812403          	lw	s0,8(sp)
2000196c:	01010113          	addi	sp,sp,16
20001970:	00008067          	ret

20001974 <_exit>:
20001974:	fe010113          	addi	sp,sp,-32
20001978:	00112e23          	sw	ra,28(sp)
2000197c:	00812c23          	sw	s0,24(sp)
20001980:	02010413          	addi	s0,sp,32
20001984:	fea42623          	sw	a0,-20(s0)
20001988:	fec42783          	lw	a5,-20(s0)
2000198c:	00078a63          	beqz	a5,200019a0 <_exit+0x2c>
20001990:	fec42583          	lw	a1,-20(s0)
20001994:	200047b7          	lui	a5,0x20004
20001998:	7e878513          	addi	a0,a5,2024 # 200047e8 <_malloc_usable_size_r+0x1c>
2000199c:	299000ef          	jal	20002434 <iprintf>
200019a0:	fb1ff0ef          	jal	20001950 <_crt_deinit>
200019a4:	00000013          	nop
200019a8:	01c12083          	lw	ra,28(sp)
200019ac:	01812403          	lw	s0,24(sp)
200019b0:	02010113          	addi	sp,sp,32
200019b4:	00008067          	ret

200019b8 <_close>:
200019b8:	fe010113          	addi	sp,sp,-32
200019bc:	00112e23          	sw	ra,28(sp)
200019c0:	00812c23          	sw	s0,24(sp)
200019c4:	02010413          	addi	s0,sp,32
200019c8:	fea42623          	sw	a0,-20(s0)
200019cc:	fff00793          	li	a5,-1
200019d0:	00078513          	mv	a0,a5
200019d4:	01c12083          	lw	ra,28(sp)
200019d8:	01812403          	lw	s0,24(sp)
200019dc:	02010113          	addi	sp,sp,32
200019e0:	00008067          	ret

200019e4 <_open>:
200019e4:	fe010113          	addi	sp,sp,-32
200019e8:	00112e23          	sw	ra,28(sp)
200019ec:	00812c23          	sw	s0,24(sp)
200019f0:	02010413          	addi	s0,sp,32
200019f4:	fea42623          	sw	a0,-20(s0)
200019f8:	feb42423          	sw	a1,-24(s0)
200019fc:	fec42223          	sw	a2,-28(s0)
20001a00:	fff00793          	li	a5,-1
20001a04:	00078513          	mv	a0,a5
20001a08:	01c12083          	lw	ra,28(sp)
20001a0c:	01812403          	lw	s0,24(sp)
20001a10:	02010113          	addi	sp,sp,32
20001a14:	00008067          	ret

20001a18 <_fstat>:
20001a18:	fe010113          	addi	sp,sp,-32
20001a1c:	00112e23          	sw	ra,28(sp)
20001a20:	00812c23          	sw	s0,24(sp)
20001a24:	02010413          	addi	s0,sp,32
20001a28:	fea42623          	sw	a0,-20(s0)
20001a2c:	feb42423          	sw	a1,-24(s0)
20001a30:	fe842783          	lw	a5,-24(s0)
20001a34:	00002737          	lui	a4,0x2
20001a38:	00e7a223          	sw	a4,4(a5)
20001a3c:	00000793          	li	a5,0
20001a40:	00078513          	mv	a0,a5
20001a44:	01c12083          	lw	ra,28(sp)
20001a48:	01812403          	lw	s0,24(sp)
20001a4c:	02010113          	addi	sp,sp,32
20001a50:	00008067          	ret

20001a54 <_lseek>:
20001a54:	fe010113          	addi	sp,sp,-32
20001a58:	00112e23          	sw	ra,28(sp)
20001a5c:	00812c23          	sw	s0,24(sp)
20001a60:	02010413          	addi	s0,sp,32
20001a64:	fea42623          	sw	a0,-20(s0)
20001a68:	feb42423          	sw	a1,-24(s0)
20001a6c:	fec42223          	sw	a2,-28(s0)
20001a70:	00000793          	li	a5,0
20001a74:	00078513          	mv	a0,a5
20001a78:	01c12083          	lw	ra,28(sp)
20001a7c:	01812403          	lw	s0,24(sp)
20001a80:	02010113          	addi	sp,sp,32
20001a84:	00008067          	ret

20001a88 <_isatty>:
20001a88:	fe010113          	addi	sp,sp,-32
20001a8c:	00112e23          	sw	ra,28(sp)
20001a90:	00812c23          	sw	s0,24(sp)
20001a94:	02010413          	addi	s0,sp,32
20001a98:	fea42623          	sw	a0,-20(s0)
20001a9c:	00000793          	li	a5,0
20001aa0:	00078513          	mv	a0,a5
20001aa4:	01c12083          	lw	ra,28(sp)
20001aa8:	01812403          	lw	s0,24(sp)
20001aac:	02010113          	addi	sp,sp,32
20001ab0:	00008067          	ret

20001ab4 <_write>:
20001ab4:	fd010113          	addi	sp,sp,-48
20001ab8:	02112623          	sw	ra,44(sp)
20001abc:	02812423          	sw	s0,40(sp)
20001ac0:	03010413          	addi	s0,sp,48
20001ac4:	fca42e23          	sw	a0,-36(s0)
20001ac8:	fcb42c23          	sw	a1,-40(s0)
20001acc:	fcc42a23          	sw	a2,-44(s0)
20001ad0:	fd442783          	lw	a5,-44(s0)
20001ad4:	fef42623          	sw	a5,-20(s0)
20001ad8:	01c0006f          	j	20001af4 <_write+0x40>
20001adc:	fd842783          	lw	a5,-40(s0)
20001ae0:	00178713          	addi	a4,a5,1
20001ae4:	fce42c23          	sw	a4,-40(s0)
20001ae8:	0007c783          	lbu	a5,0(a5)
20001aec:	00078513          	mv	a0,a5
20001af0:	b11ff0ef          	jal	20001600 <_outchar>
20001af4:	fd442783          	lw	a5,-44(s0)
20001af8:	fff78713          	addi	a4,a5,-1
20001afc:	fce42a23          	sw	a4,-44(s0)
20001b00:	fc079ee3          	bnez	a5,20001adc <_write+0x28>
20001b04:	fec42783          	lw	a5,-20(s0)
20001b08:	00078513          	mv	a0,a5
20001b0c:	02c12083          	lw	ra,44(sp)
20001b10:	02812403          	lw	s0,40(sp)
20001b14:	03010113          	addi	sp,sp,48
20001b18:	00008067          	ret

20001b1c <_read>:
20001b1c:	fd010113          	addi	sp,sp,-48
20001b20:	02112623          	sw	ra,44(sp)
20001b24:	02812423          	sw	s0,40(sp)
20001b28:	03010413          	addi	s0,sp,48
20001b2c:	fca42e23          	sw	a0,-36(s0)
20001b30:	fcb42c23          	sw	a1,-40(s0)
20001b34:	fcc42a23          	sw	a2,-44(s0)
20001b38:	fe042623          	sw	zero,-20(s0)
20001b3c:	a65ff0ef          	jal	200015a0 <_tstchar>
20001b40:	00050793          	mv	a5,a0
20001b44:	fef405a3          	sb	a5,-21(s0)
20001b48:	feb44783          	lbu	a5,-21(s0)
20001b4c:	02078263          	beqz	a5,20001b70 <_read+0x54>
20001b50:	fd842783          	lw	a5,-40(s0)
20001b54:	00178713          	addi	a4,a5,1
20001b58:	fce42c23          	sw	a4,-40(s0)
20001b5c:	feb44703          	lbu	a4,-21(s0)
20001b60:	00e78023          	sb	a4,0(a5)
20001b64:	fec42783          	lw	a5,-20(s0)
20001b68:	00178793          	addi	a5,a5,1
20001b6c:	fef42623          	sw	a5,-20(s0)
20001b70:	fd442703          	lw	a4,-44(s0)
20001b74:	fec42783          	lw	a5,-20(s0)
20001b78:	fcf712e3          	bne	a4,a5,20001b3c <_read+0x20>
20001b7c:	fec42783          	lw	a5,-20(s0)
20001b80:	00078513          	mv	a0,a5
20001b84:	02c12083          	lw	ra,44(sp)
20001b88:	02812403          	lw	s0,40(sp)
20001b8c:	03010113          	addi	sp,sp,48
20001b90:	00008067          	ret

20001b94 <_getpid>:
20001b94:	ff010113          	addi	sp,sp,-16
20001b98:	00112623          	sw	ra,12(sp)
20001b9c:	00812423          	sw	s0,8(sp)
20001ba0:	01010413          	addi	s0,sp,16
20001ba4:	00000793          	li	a5,0
20001ba8:	00078513          	mv	a0,a5
20001bac:	00c12083          	lw	ra,12(sp)
20001bb0:	00812403          	lw	s0,8(sp)
20001bb4:	01010113          	addi	sp,sp,16
20001bb8:	00008067          	ret

20001bbc <_kill>:
20001bbc:	fe010113          	addi	sp,sp,-32
20001bc0:	00112e23          	sw	ra,28(sp)
20001bc4:	00812c23          	sw	s0,24(sp)
20001bc8:	02010413          	addi	s0,sp,32
20001bcc:	fea42623          	sw	a0,-20(s0)
20001bd0:	feb42423          	sw	a1,-24(s0)
20001bd4:	00000793          	li	a5,0
20001bd8:	00078513          	mv	a0,a5
20001bdc:	01c12083          	lw	ra,28(sp)
20001be0:	01812403          	lw	s0,24(sp)
20001be4:	02010113          	addi	sp,sp,32
20001be8:	00008067          	ret

20001bec <__udivdi3>:
20001bec:	00060713          	mv	a4,a2
20001bf0:	00068893          	mv	a7,a3
20001bf4:	00050813          	mv	a6,a0
20001bf8:	00058313          	mv	t1,a1
20001bfc:	24069463          	bnez	a3,20001e44 <__udivdi3+0x258>
20001c00:	200057b7          	lui	a5,0x20005
20001c04:	80878793          	addi	a5,a5,-2040 # 20004808 <__clz_tab>
20001c08:	0ec5f463          	bgeu	a1,a2,20001cf0 <__udivdi3+0x104>
20001c0c:	000106b7          	lui	a3,0x10
20001c10:	0cd67063          	bgeu	a2,a3,20001cd0 <__udivdi3+0xe4>
20001c14:	10063693          	sltiu	a3,a2,256
20001c18:	0016b693          	seqz	a3,a3
20001c1c:	00369693          	slli	a3,a3,0x3
20001c20:	00d65e33          	srl	t3,a2,a3
20001c24:	01c787b3          	add	a5,a5,t3
20001c28:	0007c783          	lbu	a5,0(a5)
20001c2c:	00d787b3          	add	a5,a5,a3
20001c30:	02000693          	li	a3,32
20001c34:	00d78e63          	beq	a5,a3,20001c50 <__udivdi3+0x64>
20001c38:	40f686b3          	sub	a3,a3,a5
20001c3c:	00d59333          	sll	t1,a1,a3
20001c40:	00f557b3          	srl	a5,a0,a5
20001c44:	00d61733          	sll	a4,a2,a3
20001c48:	0067e333          	or	t1,a5,t1
20001c4c:	00d51833          	sll	a6,a0,a3
20001c50:	01075513          	srli	a0,a4,0x10
20001c54:	02a357b3          	divu	a5,t1,a0
20001c58:	01071593          	slli	a1,a4,0x10
20001c5c:	0105d593          	srli	a1,a1,0x10
20001c60:	01085693          	srli	a3,a6,0x10
20001c64:	02a37333          	remu	t1,t1,a0
20001c68:	02f58633          	mul	a2,a1,a5
20001c6c:	01031313          	slli	t1,t1,0x10
20001c70:	0066e6b3          	or	a3,a3,t1
20001c74:	00c6fa63          	bgeu	a3,a2,20001c88 <__udivdi3+0x9c>
20001c78:	00d706b3          	add	a3,a4,a3
20001c7c:	00c6f463          	bgeu	a3,a2,20001c84 <__udivdi3+0x98>
20001c80:	06e6f263          	bgeu	a3,a4,20001ce4 <__udivdi3+0xf8>
20001c84:	fff78793          	addi	a5,a5,-1
20001c88:	40c686b3          	sub	a3,a3,a2
20001c8c:	02a6d633          	divu	a2,a3,a0
20001c90:	01081813          	slli	a6,a6,0x10
20001c94:	01085813          	srli	a6,a6,0x10
20001c98:	02a6f6b3          	remu	a3,a3,a0
20001c9c:	02c585b3          	mul	a1,a1,a2
20001ca0:	01069693          	slli	a3,a3,0x10
20001ca4:	00d86833          	or	a6,a6,a3
20001ca8:	00b87a63          	bgeu	a6,a1,20001cbc <__udivdi3+0xd0>
20001cac:	01070833          	add	a6,a4,a6
20001cb0:	00b87463          	bgeu	a6,a1,20001cb8 <__udivdi3+0xcc>
20001cb4:	18e87463          	bgeu	a6,a4,20001e3c <__udivdi3+0x250>
20001cb8:	fff60613          	addi	a2,a2,-1
20001cbc:	01079793          	slli	a5,a5,0x10
20001cc0:	00c7e7b3          	or	a5,a5,a2
20001cc4:	00078513          	mv	a0,a5
20001cc8:	00088593          	mv	a1,a7
20001ccc:	00008067          	ret
20001cd0:	01000e37          	lui	t3,0x1000
20001cd4:	01800693          	li	a3,24
20001cd8:	f5c674e3          	bgeu	a2,t3,20001c20 <__udivdi3+0x34>
20001cdc:	01000693          	li	a3,16
20001ce0:	f41ff06f          	j	20001c20 <__udivdi3+0x34>
20001ce4:	ffe78793          	addi	a5,a5,-2
20001ce8:	00e686b3          	add	a3,a3,a4
20001cec:	f9dff06f          	j	20001c88 <__udivdi3+0x9c>
20001cf0:	00000693          	li	a3,0
20001cf4:	00060c63          	beqz	a2,20001d0c <__udivdi3+0x120>
20001cf8:	000106b7          	lui	a3,0x10
20001cfc:	06d67863          	bgeu	a2,a3,20001d6c <__udivdi3+0x180>
20001d00:	10063693          	sltiu	a3,a2,256
20001d04:	0016b693          	seqz	a3,a3
20001d08:	00369693          	slli	a3,a3,0x3
20001d0c:	00d658b3          	srl	a7,a2,a3
20001d10:	011787b3          	add	a5,a5,a7
20001d14:	0007c783          	lbu	a5,0(a5)
20001d18:	00d787b3          	add	a5,a5,a3
20001d1c:	02000693          	li	a3,32
20001d20:	06d79063          	bne	a5,a3,20001d80 <__udivdi3+0x194>
20001d24:	40c58633          	sub	a2,a1,a2
20001d28:	00100893          	li	a7,1
20001d2c:	01075513          	srli	a0,a4,0x10
20001d30:	02a657b3          	divu	a5,a2,a0
20001d34:	01071593          	slli	a1,a4,0x10
20001d38:	0105d593          	srli	a1,a1,0x10
20001d3c:	01085693          	srli	a3,a6,0x10
20001d40:	02a67633          	remu	a2,a2,a0
20001d44:	02f58333          	mul	t1,a1,a5
20001d48:	01061613          	slli	a2,a2,0x10
20001d4c:	00c6e6b3          	or	a3,a3,a2
20001d50:	0066fa63          	bgeu	a3,t1,20001d64 <__udivdi3+0x178>
20001d54:	00d706b3          	add	a3,a4,a3
20001d58:	0066f463          	bgeu	a3,t1,20001d60 <__udivdi3+0x174>
20001d5c:	0ce6fa63          	bgeu	a3,a4,20001e30 <__udivdi3+0x244>
20001d60:	fff78793          	addi	a5,a5,-1
20001d64:	406686b3          	sub	a3,a3,t1
20001d68:	f25ff06f          	j	20001c8c <__udivdi3+0xa0>
20001d6c:	010008b7          	lui	a7,0x1000
20001d70:	01800693          	li	a3,24
20001d74:	f9167ce3          	bgeu	a2,a7,20001d0c <__udivdi3+0x120>
20001d78:	01000693          	li	a3,16
20001d7c:	f91ff06f          	j	20001d0c <__udivdi3+0x120>
20001d80:	40f68833          	sub	a6,a3,a5
20001d84:	01061733          	sll	a4,a2,a6
20001d88:	00f5d6b3          	srl	a3,a1,a5
20001d8c:	010595b3          	sll	a1,a1,a6
20001d90:	00f557b3          	srl	a5,a0,a5
20001d94:	01051833          	sll	a6,a0,a6
20001d98:	01075513          	srli	a0,a4,0x10
20001d9c:	02a6d8b3          	divu	a7,a3,a0
20001da0:	01071613          	slli	a2,a4,0x10
20001da4:	01065613          	srli	a2,a2,0x10
20001da8:	00b7e7b3          	or	a5,a5,a1
20001dac:	02a6f6b3          	remu	a3,a3,a0
20001db0:	03160333          	mul	t1,a2,a7
20001db4:	01069593          	slli	a1,a3,0x10
20001db8:	0107d693          	srli	a3,a5,0x10
20001dbc:	00b6e6b3          	or	a3,a3,a1
20001dc0:	0066fa63          	bgeu	a3,t1,20001dd4 <__udivdi3+0x1e8>
20001dc4:	00d706b3          	add	a3,a4,a3
20001dc8:	0066f463          	bgeu	a3,t1,20001dd0 <__udivdi3+0x1e4>
20001dcc:	04e6f663          	bgeu	a3,a4,20001e18 <__udivdi3+0x22c>
20001dd0:	fff88893          	addi	a7,a7,-1 # ffffff <_start-0x1f000001>
20001dd4:	406686b3          	sub	a3,a3,t1
20001dd8:	02a6d5b3          	divu	a1,a3,a0
20001ddc:	01079793          	slli	a5,a5,0x10
20001de0:	0107d793          	srli	a5,a5,0x10
20001de4:	02a6f6b3          	remu	a3,a3,a0
20001de8:	02b60633          	mul	a2,a2,a1
20001dec:	01069693          	slli	a3,a3,0x10
20001df0:	00d7e7b3          	or	a5,a5,a3
20001df4:	00c7fa63          	bgeu	a5,a2,20001e08 <__udivdi3+0x21c>
20001df8:	00f707b3          	add	a5,a4,a5
20001dfc:	00c7f463          	bgeu	a5,a2,20001e04 <__udivdi3+0x218>
20001e00:	02e7f263          	bgeu	a5,a4,20001e24 <__udivdi3+0x238>
20001e04:	fff58593          	addi	a1,a1,-1
20001e08:	01089893          	slli	a7,a7,0x10
20001e0c:	40c78633          	sub	a2,a5,a2
20001e10:	00b8e8b3          	or	a7,a7,a1
20001e14:	f19ff06f          	j	20001d2c <__udivdi3+0x140>
20001e18:	ffe88893          	addi	a7,a7,-2
20001e1c:	00e686b3          	add	a3,a3,a4
20001e20:	fb5ff06f          	j	20001dd4 <__udivdi3+0x1e8>
20001e24:	ffe58593          	addi	a1,a1,-2
20001e28:	00e787b3          	add	a5,a5,a4
20001e2c:	fddff06f          	j	20001e08 <__udivdi3+0x21c>
20001e30:	ffe78793          	addi	a5,a5,-2
20001e34:	00e686b3          	add	a3,a3,a4
20001e38:	f2dff06f          	j	20001d64 <__udivdi3+0x178>
20001e3c:	ffe60613          	addi	a2,a2,-2
20001e40:	e7dff06f          	j	20001cbc <__udivdi3+0xd0>
20001e44:	18d5e463          	bltu	a1,a3,20001fcc <__udivdi3+0x3e0>
20001e48:	000107b7          	lui	a5,0x10
20001e4c:	04f6f463          	bgeu	a3,a5,20001e94 <__udivdi3+0x2a8>
20001e50:	1006b793          	sltiu	a5,a3,256
20001e54:	0017b793          	seqz	a5,a5
20001e58:	00379793          	slli	a5,a5,0x3
20001e5c:	20005737          	lui	a4,0x20005
20001e60:	00f6d833          	srl	a6,a3,a5
20001e64:	80870713          	addi	a4,a4,-2040 # 20004808 <__clz_tab>
20001e68:	01070733          	add	a4,a4,a6
20001e6c:	00074703          	lbu	a4,0(a4)
20001e70:	02000813          	li	a6,32
20001e74:	00f70733          	add	a4,a4,a5
20001e78:	03071863          	bne	a4,a6,20001ea8 <__udivdi3+0x2bc>
20001e7c:	00c537b3          	sltu	a5,a0,a2
20001e80:	0017b793          	seqz	a5,a5
20001e84:	00b6b6b3          	sltu	a3,a3,a1
20001e88:	00d7e7b3          	or	a5,a5,a3
20001e8c:	00000893          	li	a7,0
20001e90:	e35ff06f          	j	20001cc4 <__udivdi3+0xd8>
20001e94:	01000737          	lui	a4,0x1000
20001e98:	01800793          	li	a5,24
20001e9c:	fce6f0e3          	bgeu	a3,a4,20001e5c <__udivdi3+0x270>
20001ea0:	01000793          	li	a5,16
20001ea4:	fb9ff06f          	j	20001e5c <__udivdi3+0x270>
20001ea8:	40e80833          	sub	a6,a6,a4
20001eac:	00e658b3          	srl	a7,a2,a4
20001eb0:	010696b3          	sll	a3,a3,a6
20001eb4:	00d8e8b3          	or	a7,a7,a3
20001eb8:	0108de13          	srli	t3,a7,0x10
20001ebc:	00e5d6b3          	srl	a3,a1,a4
20001ec0:	03c6d7b3          	divu	a5,a3,t3
20001ec4:	01089313          	slli	t1,a7,0x10
20001ec8:	01035313          	srli	t1,t1,0x10
20001ecc:	010595b3          	sll	a1,a1,a6
20001ed0:	00e55733          	srl	a4,a0,a4
20001ed4:	00b76733          	or	a4,a4,a1
20001ed8:	01061633          	sll	a2,a2,a6
20001edc:	03c6f6b3          	remu	a3,a3,t3
20001ee0:	02f30eb3          	mul	t4,t1,a5
20001ee4:	01069593          	slli	a1,a3,0x10
20001ee8:	01075693          	srli	a3,a4,0x10
20001eec:	00b6e6b3          	or	a3,a3,a1
20001ef0:	01d6fa63          	bgeu	a3,t4,20001f04 <__udivdi3+0x318>
20001ef4:	00d886b3          	add	a3,a7,a3
20001ef8:	01d6f463          	bgeu	a3,t4,20001f00 <__udivdi3+0x314>
20001efc:	0b16fc63          	bgeu	a3,a7,20001fb4 <__udivdi3+0x3c8>
20001f00:	fff78793          	addi	a5,a5,-1 # ffff <_start-0x1fff0001>
20001f04:	41d686b3          	sub	a3,a3,t4
20001f08:	03c6d5b3          	divu	a1,a3,t3
20001f0c:	01071713          	slli	a4,a4,0x10
20001f10:	01075713          	srli	a4,a4,0x10
20001f14:	03c6f6b3          	remu	a3,a3,t3
20001f18:	02b30333          	mul	t1,t1,a1
20001f1c:	01069693          	slli	a3,a3,0x10
20001f20:	00d76733          	or	a4,a4,a3
20001f24:	00677a63          	bgeu	a4,t1,20001f38 <__udivdi3+0x34c>
20001f28:	00e88733          	add	a4,a7,a4
20001f2c:	00677463          	bgeu	a4,t1,20001f34 <__udivdi3+0x348>
20001f30:	09177863          	bgeu	a4,a7,20001fc0 <__udivdi3+0x3d4>
20001f34:	fff58593          	addi	a1,a1,-1
20001f38:	01079793          	slli	a5,a5,0x10
20001f3c:	00b7e7b3          	or	a5,a5,a1
20001f40:	40670733          	sub	a4,a4,t1
20001f44:	01059593          	slli	a1,a1,0x10
20001f48:	01061313          	slli	t1,a2,0x10
20001f4c:	0105d593          	srli	a1,a1,0x10
20001f50:	0107d893          	srli	a7,a5,0x10
20001f54:	01035313          	srli	t1,t1,0x10
20001f58:	01065613          	srli	a2,a2,0x10
20001f5c:	02658e33          	mul	t3,a1,t1
20001f60:	02688333          	mul	t1,a7,t1
20001f64:	010e5693          	srli	a3,t3,0x10
20001f68:	02c585b3          	mul	a1,a1,a2
20001f6c:	006585b3          	add	a1,a1,t1
20001f70:	00b686b3          	add	a3,a3,a1
20001f74:	02c888b3          	mul	a7,a7,a2
20001f78:	0066f663          	bgeu	a3,t1,20001f84 <__udivdi3+0x398>
20001f7c:	00010637          	lui	a2,0x10
20001f80:	00c888b3          	add	a7,a7,a2
20001f84:	0106d613          	srli	a2,a3,0x10
20001f88:	01160633          	add	a2,a2,a7
20001f8c:	02c76063          	bltu	a4,a2,20001fac <__udivdi3+0x3c0>
20001f90:	010e1e13          	slli	t3,t3,0x10
20001f94:	01069693          	slli	a3,a3,0x10
20001f98:	010e5e13          	srli	t3,t3,0x10
20001f9c:	01051533          	sll	a0,a0,a6
20001fa0:	01c686b3          	add	a3,a3,t3
20001fa4:	eed574e3          	bgeu	a0,a3,20001e8c <__udivdi3+0x2a0>
20001fa8:	eec712e3          	bne	a4,a2,20001e8c <__udivdi3+0x2a0>
20001fac:	fff78793          	addi	a5,a5,-1
20001fb0:	eddff06f          	j	20001e8c <__udivdi3+0x2a0>
20001fb4:	ffe78793          	addi	a5,a5,-2
20001fb8:	011686b3          	add	a3,a3,a7
20001fbc:	f49ff06f          	j	20001f04 <__udivdi3+0x318>
20001fc0:	ffe58593          	addi	a1,a1,-2
20001fc4:	01170733          	add	a4,a4,a7
20001fc8:	f71ff06f          	j	20001f38 <__udivdi3+0x34c>
20001fcc:	00000893          	li	a7,0
20001fd0:	00000793          	li	a5,0
20001fd4:	cf1ff06f          	j	20001cc4 <__udivdi3+0xd8>

20001fd8 <__umoddi3>:
20001fd8:	00060813          	mv	a6,a2
20001fdc:	00050793          	mv	a5,a0
20001fe0:	00058713          	mv	a4,a1
20001fe4:	24069463          	bnez	a3,2000222c <__umoddi3+0x254>
20001fe8:	200056b7          	lui	a3,0x20005
20001fec:	80868693          	addi	a3,a3,-2040 # 20004808 <__clz_tab>
20001ff0:	0ec5f863          	bgeu	a1,a2,200020e0 <__umoddi3+0x108>
20001ff4:	000108b7          	lui	a7,0x10
20001ff8:	0d167a63          	bgeu	a2,a7,200020cc <__umoddi3+0xf4>
20001ffc:	10063893          	sltiu	a7,a2,256
20002000:	0018b893          	seqz	a7,a7
20002004:	00389893          	slli	a7,a7,0x3
20002008:	01165333          	srl	t1,a2,a7
2000200c:	006686b3          	add	a3,a3,t1
20002010:	0006c683          	lbu	a3,0(a3)
20002014:	02000313          	li	t1,32
20002018:	011686b3          	add	a3,a3,a7
2000201c:	40d308b3          	sub	a7,t1,a3
20002020:	00668c63          	beq	a3,t1,20002038 <__umoddi3+0x60>
20002024:	01159733          	sll	a4,a1,a7
20002028:	00d556b3          	srl	a3,a0,a3
2000202c:	01161833          	sll	a6,a2,a7
20002030:	00e6e733          	or	a4,a3,a4
20002034:	011517b3          	sll	a5,a0,a7
20002038:	01085513          	srli	a0,a6,0x10
2000203c:	02a756b3          	divu	a3,a4,a0
20002040:	01081313          	slli	t1,a6,0x10
20002044:	01035313          	srli	t1,t1,0x10
20002048:	02a77733          	remu	a4,a4,a0
2000204c:	026686b3          	mul	a3,a3,t1
20002050:	01071593          	slli	a1,a4,0x10
20002054:	0107d713          	srli	a4,a5,0x10
20002058:	00b76733          	or	a4,a4,a1
2000205c:	02d77063          	bgeu	a4,a3,2000207c <__umoddi3+0xa4>
20002060:	00e80733          	add	a4,a6,a4
20002064:	010735b3          	sltu	a1,a4,a6
20002068:	00d73633          	sltu	a2,a4,a3
2000206c:	0015b593          	seqz	a1,a1
20002070:	00b67633          	and	a2,a2,a1
20002074:	03060633          	mul	a2,a2,a6
20002078:	00e60733          	add	a4,a2,a4
2000207c:	40d70733          	sub	a4,a4,a3
20002080:	02a756b3          	divu	a3,a4,a0
20002084:	02a77733          	remu	a4,a4,a0
20002088:	026686b3          	mul	a3,a3,t1
2000208c:	01079513          	slli	a0,a5,0x10
20002090:	01071713          	slli	a4,a4,0x10
20002094:	01055513          	srli	a0,a0,0x10
20002098:	00e56533          	or	a0,a0,a4
2000209c:	02d57063          	bgeu	a0,a3,200020bc <__umoddi3+0xe4>
200020a0:	00a80533          	add	a0,a6,a0
200020a4:	01053733          	sltu	a4,a0,a6
200020a8:	00d537b3          	sltu	a5,a0,a3
200020ac:	00173713          	seqz	a4,a4
200020b0:	00e7f7b3          	and	a5,a5,a4
200020b4:	030787b3          	mul	a5,a5,a6
200020b8:	00a78533          	add	a0,a5,a0
200020bc:	40d50533          	sub	a0,a0,a3
200020c0:	01155533          	srl	a0,a0,a7
200020c4:	00000593          	li	a1,0
200020c8:	00008067          	ret
200020cc:	01000337          	lui	t1,0x1000
200020d0:	01800893          	li	a7,24
200020d4:	f2667ae3          	bgeu	a2,t1,20002008 <__umoddi3+0x30>
200020d8:	01000893          	li	a7,16
200020dc:	f2dff06f          	j	20002008 <__umoddi3+0x30>
200020e0:	00000713          	li	a4,0
200020e4:	00060c63          	beqz	a2,200020fc <__umoddi3+0x124>
200020e8:	00010737          	lui	a4,0x10
200020ec:	08e67463          	bgeu	a2,a4,20002174 <__umoddi3+0x19c>
200020f0:	10063713          	sltiu	a4,a2,256
200020f4:	00173713          	seqz	a4,a4
200020f8:	00371713          	slli	a4,a4,0x3
200020fc:	00e658b3          	srl	a7,a2,a4
20002100:	011686b3          	add	a3,a3,a7
20002104:	0006c683          	lbu	a3,0(a3)
20002108:	00e686b3          	add	a3,a3,a4
2000210c:	02000713          	li	a4,32
20002110:	40d708b3          	sub	a7,a4,a3
20002114:	06e69a63          	bne	a3,a4,20002188 <__umoddi3+0x1b0>
20002118:	40c586b3          	sub	a3,a1,a2
2000211c:	01085593          	srli	a1,a6,0x10
20002120:	02b6d633          	divu	a2,a3,a1
20002124:	01081313          	slli	t1,a6,0x10
20002128:	01035313          	srli	t1,t1,0x10
2000212c:	0107d713          	srli	a4,a5,0x10
20002130:	02b6f6b3          	remu	a3,a3,a1
20002134:	02660633          	mul	a2,a2,t1
20002138:	01069693          	slli	a3,a3,0x10
2000213c:	00d76733          	or	a4,a4,a3
20002140:	02c77063          	bgeu	a4,a2,20002160 <__umoddi3+0x188>
20002144:	00e80733          	add	a4,a6,a4
20002148:	01073533          	sltu	a0,a4,a6
2000214c:	00c736b3          	sltu	a3,a4,a2
20002150:	00153513          	seqz	a0,a0
20002154:	00a6f6b3          	and	a3,a3,a0
20002158:	030686b3          	mul	a3,a3,a6
2000215c:	00e68733          	add	a4,a3,a4
20002160:	40c70733          	sub	a4,a4,a2
20002164:	02b756b3          	divu	a3,a4,a1
20002168:	02b77733          	remu	a4,a4,a1
2000216c:	026686b3          	mul	a3,a3,t1
20002170:	f1dff06f          	j	2000208c <__umoddi3+0xb4>
20002174:	010008b7          	lui	a7,0x1000
20002178:	01800713          	li	a4,24
2000217c:	f91670e3          	bgeu	a2,a7,200020fc <__umoddi3+0x124>
20002180:	01000713          	li	a4,16
20002184:	f79ff06f          	j	200020fc <__umoddi3+0x124>
20002188:	01161833          	sll	a6,a2,a7
2000218c:	00d5d733          	srl	a4,a1,a3
20002190:	011517b3          	sll	a5,a0,a7
20002194:	011595b3          	sll	a1,a1,a7
20002198:	00d556b3          	srl	a3,a0,a3
2000219c:	01085513          	srli	a0,a6,0x10
200021a0:	00b6e6b3          	or	a3,a3,a1
200021a4:	02a755b3          	divu	a1,a4,a0
200021a8:	01081e13          	slli	t3,a6,0x10
200021ac:	010e5e13          	srli	t3,t3,0x10
200021b0:	02a77733          	remu	a4,a4,a0
200021b4:	03c585b3          	mul	a1,a1,t3
200021b8:	01071613          	slli	a2,a4,0x10
200021bc:	0106d713          	srli	a4,a3,0x10
200021c0:	00c76733          	or	a4,a4,a2
200021c4:	02b77063          	bgeu	a4,a1,200021e4 <__umoddi3+0x20c>
200021c8:	00e80733          	add	a4,a6,a4
200021cc:	01073333          	sltu	t1,a4,a6
200021d0:	00b73633          	sltu	a2,a4,a1
200021d4:	00133313          	seqz	t1,t1
200021d8:	00667633          	and	a2,a2,t1
200021dc:	03060633          	mul	a2,a2,a6
200021e0:	00e60733          	add	a4,a2,a4
200021e4:	40b70733          	sub	a4,a4,a1
200021e8:	02a75633          	divu	a2,a4,a0
200021ec:	01069693          	slli	a3,a3,0x10
200021f0:	0106d693          	srli	a3,a3,0x10
200021f4:	02a77733          	remu	a4,a4,a0
200021f8:	03c60633          	mul	a2,a2,t3
200021fc:	01071713          	slli	a4,a4,0x10
20002200:	00e6e6b3          	or	a3,a3,a4
20002204:	02c6f063          	bgeu	a3,a2,20002224 <__umoddi3+0x24c>
20002208:	00d806b3          	add	a3,a6,a3
2000220c:	0106b5b3          	sltu	a1,a3,a6
20002210:	00c6b733          	sltu	a4,a3,a2
20002214:	0015b593          	seqz	a1,a1
20002218:	00b77733          	and	a4,a4,a1
2000221c:	03070733          	mul	a4,a4,a6
20002220:	00d706b3          	add	a3,a4,a3
20002224:	40c686b3          	sub	a3,a3,a2
20002228:	ef5ff06f          	j	2000211c <__umoddi3+0x144>
2000222c:	1ad5e663          	bltu	a1,a3,200023d8 <__umoddi3+0x400>
20002230:	00010837          	lui	a6,0x10
20002234:	0506fc63          	bgeu	a3,a6,2000228c <__umoddi3+0x2b4>
20002238:	1006b893          	sltiu	a7,a3,256
2000223c:	0018b893          	seqz	a7,a7
20002240:	00389893          	slli	a7,a7,0x3
20002244:	20005837          	lui	a6,0x20005
20002248:	0116d333          	srl	t1,a3,a7
2000224c:	80880813          	addi	a6,a6,-2040 # 20004808 <__clz_tab>
20002250:	00680833          	add	a6,a6,t1
20002254:	00084803          	lbu	a6,0(a6)
20002258:	01180833          	add	a6,a6,a7
2000225c:	02000893          	li	a7,32
20002260:	05181063          	bne	a6,a7,200022a0 <__umoddi3+0x2c8>
20002264:	00c57463          	bgeu	a0,a2,2000226c <__umoddi3+0x294>
20002268:	00b6fc63          	bgeu	a3,a1,20002280 <__umoddi3+0x2a8>
2000226c:	40c50733          	sub	a4,a0,a2
20002270:	00070793          	mv	a5,a4
20002274:	40d586b3          	sub	a3,a1,a3
20002278:	00e53733          	sltu	a4,a0,a4
2000227c:	40e68733          	sub	a4,a3,a4
20002280:	00078513          	mv	a0,a5
20002284:	00070593          	mv	a1,a4
20002288:	00008067          	ret
2000228c:	01000837          	lui	a6,0x1000
20002290:	01800893          	li	a7,24
20002294:	fb06f8e3          	bgeu	a3,a6,20002244 <__umoddi3+0x26c>
20002298:	01000893          	li	a7,16
2000229c:	fa9ff06f          	j	20002244 <__umoddi3+0x26c>
200022a0:	410888b3          	sub	a7,a7,a6
200022a4:	011696b3          	sll	a3,a3,a7
200022a8:	01065333          	srl	t1,a2,a6
200022ac:	00d36333          	or	t1,t1,a3
200022b0:	0105d733          	srl	a4,a1,a6
200022b4:	01035e93          	srli	t4,t1,0x10
200022b8:	03d756b3          	divu	a3,a4,t4
200022bc:	01031e13          	slli	t3,t1,0x10
200022c0:	010e5e13          	srli	t3,t3,0x10
200022c4:	011597b3          	sll	a5,a1,a7
200022c8:	010555b3          	srl	a1,a0,a6
200022cc:	00f5e5b3          	or	a1,a1,a5
200022d0:	0105d793          	srli	a5,a1,0x10
200022d4:	01161633          	sll	a2,a2,a7
200022d8:	01151533          	sll	a0,a0,a7
200022dc:	03d77733          	remu	a4,a4,t4
200022e0:	02de0f33          	mul	t5,t3,a3
200022e4:	01071713          	slli	a4,a4,0x10
200022e8:	00e7e7b3          	or	a5,a5,a4
200022ec:	01e7fa63          	bgeu	a5,t5,20002300 <__umoddi3+0x328>
200022f0:	00f307b3          	add	a5,t1,a5
200022f4:	01e7f463          	bgeu	a5,t5,200022fc <__umoddi3+0x324>
200022f8:	0e67f263          	bgeu	a5,t1,200023dc <__umoddi3+0x404>
200022fc:	fff68693          	addi	a3,a3,-1
20002300:	41e787b3          	sub	a5,a5,t5
20002304:	03d7d733          	divu	a4,a5,t4
20002308:	01059593          	slli	a1,a1,0x10
2000230c:	0105d593          	srli	a1,a1,0x10
20002310:	03d7f7b3          	remu	a5,a5,t4
20002314:	02ee0e33          	mul	t3,t3,a4
20002318:	01079793          	slli	a5,a5,0x10
2000231c:	00f5e5b3          	or	a1,a1,a5
20002320:	01c5fa63          	bgeu	a1,t3,20002334 <__umoddi3+0x35c>
20002324:	00b305b3          	add	a1,t1,a1
20002328:	01c5f463          	bgeu	a1,t3,20002330 <__umoddi3+0x358>
2000232c:	0a65fe63          	bgeu	a1,t1,200023e8 <__umoddi3+0x410>
20002330:	fff70713          	addi	a4,a4,-1 # ffff <_start-0x1fff0001>
20002334:	01069693          	slli	a3,a3,0x10
20002338:	00e6e6b3          	or	a3,a3,a4
2000233c:	41c585b3          	sub	a1,a1,t3
20002340:	01071713          	slli	a4,a4,0x10
20002344:	01061e13          	slli	t3,a2,0x10
20002348:	01065793          	srli	a5,a2,0x10
2000234c:	01075713          	srli	a4,a4,0x10
20002350:	0106d693          	srli	a3,a3,0x10
20002354:	010e5e13          	srli	t3,t3,0x10
20002358:	03c70eb3          	mul	t4,a4,t3
2000235c:	03c68e33          	mul	t3,a3,t3
20002360:	02f70733          	mul	a4,a4,a5
20002364:	02f686b3          	mul	a3,a3,a5
20002368:	01c707b3          	add	a5,a4,t3
2000236c:	010ed713          	srli	a4,t4,0x10
20002370:	00f70733          	add	a4,a4,a5
20002374:	01c77663          	bgeu	a4,t3,20002380 <__umoddi3+0x3a8>
20002378:	000107b7          	lui	a5,0x10
2000237c:	00f686b3          	add	a3,a3,a5
20002380:	01075793          	srli	a5,a4,0x10
20002384:	010e9e93          	slli	t4,t4,0x10
20002388:	01071713          	slli	a4,a4,0x10
2000238c:	010ede93          	srli	t4,t4,0x10
20002390:	00d787b3          	add	a5,a5,a3
20002394:	01d70733          	add	a4,a4,t4
20002398:	00f5e663          	bltu	a1,a5,200023a4 <__umoddi3+0x3cc>
2000239c:	00e57e63          	bgeu	a0,a4,200023b8 <__umoddi3+0x3e0>
200023a0:	00f59c63          	bne	a1,a5,200023b8 <__umoddi3+0x3e0>
200023a4:	40c70633          	sub	a2,a4,a2
200023a8:	00c736b3          	sltu	a3,a4,a2
200023ac:	006686b3          	add	a3,a3,t1
200023b0:	00060713          	mv	a4,a2
200023b4:	40d787b3          	sub	a5,a5,a3
200023b8:	40e50733          	sub	a4,a0,a4
200023bc:	00e53533          	sltu	a0,a0,a4
200023c0:	40f585b3          	sub	a1,a1,a5
200023c4:	40a585b3          	sub	a1,a1,a0
200023c8:	01059833          	sll	a6,a1,a6
200023cc:	01175733          	srl	a4,a4,a7
200023d0:	00e86533          	or	a0,a6,a4
200023d4:	0115d5b3          	srl	a1,a1,a7
200023d8:	00008067          	ret
200023dc:	ffe68693          	addi	a3,a3,-2
200023e0:	006787b3          	add	a5,a5,t1
200023e4:	f1dff06f          	j	20002300 <__umoddi3+0x328>
200023e8:	ffe70713          	addi	a4,a4,-2
200023ec:	006585b3          	add	a1,a1,t1
200023f0:	f45ff06f          	j	20002334 <__umoddi3+0x35c>

200023f4 <_iprintf_r>:
200023f4:	fc010113          	addi	sp,sp,-64
200023f8:	02c12423          	sw	a2,40(sp)
200023fc:	02d12623          	sw	a3,44(sp)
20002400:	02e12823          	sw	a4,48(sp)
20002404:	02f12a23          	sw	a5,52(sp)
20002408:	03012c23          	sw	a6,56(sp)
2000240c:	03112e23          	sw	a7,60(sp)
20002410:	00058613          	mv	a2,a1
20002414:	00852583          	lw	a1,8(a0)
20002418:	02810693          	addi	a3,sp,40
2000241c:	00112e23          	sw	ra,28(sp)
20002420:	00d12623          	sw	a3,12(sp)
20002424:	6b8000ef          	jal	20002adc <_vfiprintf_r>
20002428:	01c12083          	lw	ra,28(sp)
2000242c:	04010113          	addi	sp,sp,64
20002430:	00008067          	ret

20002434 <iprintf>:
20002434:	fc010113          	addi	sp,sp,-64
20002438:	02f12a23          	sw	a5,52(sp)
2000243c:	200057b7          	lui	a5,0x20005
20002440:	d007a783          	lw	a5,-768(a5) # 20004d00 <_impure_ptr>
20002444:	02c12423          	sw	a2,40(sp)
20002448:	02d12623          	sw	a3,44(sp)
2000244c:	02b12223          	sw	a1,36(sp)
20002450:	02e12823          	sw	a4,48(sp)
20002454:	03012c23          	sw	a6,56(sp)
20002458:	03112e23          	sw	a7,60(sp)
2000245c:	0087a583          	lw	a1,8(a5)
20002460:	02410693          	addi	a3,sp,36
20002464:	00050613          	mv	a2,a0
20002468:	00078513          	mv	a0,a5
2000246c:	00112e23          	sw	ra,28(sp)
20002470:	00d12623          	sw	a3,12(sp)
20002474:	668000ef          	jal	20002adc <_vfiprintf_r>
20002478:	01c12083          	lw	ra,28(sp)
2000247c:	04010113          	addi	sp,sp,64
20002480:	00008067          	ret

20002484 <setvbuf>:
20002484:	fd010113          	addi	sp,sp,-48
20002488:	200057b7          	lui	a5,0x20005
2000248c:	01312e23          	sw	s3,28(sp)
20002490:	d007a983          	lw	s3,-768(a5) # 20004d00 <_impure_ptr>
20002494:	02812423          	sw	s0,40(sp)
20002498:	02912223          	sw	s1,36(sp)
2000249c:	03212023          	sw	s2,32(sp)
200024a0:	01412c23          	sw	s4,24(sp)
200024a4:	02112623          	sw	ra,44(sp)
200024a8:	01512a23          	sw	s5,20(sp)
200024ac:	00050413          	mv	s0,a0
200024b0:	00058913          	mv	s2,a1
200024b4:	00060a13          	mv	s4,a2
200024b8:	00068493          	mv	s1,a3
200024bc:	00098a63          	beqz	s3,200024d0 <setvbuf+0x4c>
200024c0:	0209a783          	lw	a5,32(s3)
200024c4:	00079663          	bnez	a5,200024d0 <setvbuf+0x4c>
200024c8:	00098513          	mv	a0,s3
200024cc:	3d0010ef          	jal	2000389c <__sinit>
200024d0:	00200793          	li	a5,2
200024d4:	00fa0863          	beq	s4,a5,200024e4 <setvbuf+0x60>
200024d8:	002a3793          	sltiu	a5,s4,2
200024dc:	18078a63          	beqz	a5,20002670 <setvbuf+0x1ec>
200024e0:	1804c863          	bltz	s1,20002670 <setvbuf+0x1ec>
200024e4:	00040593          	mv	a1,s0
200024e8:	00098513          	mv	a0,s3
200024ec:	08c010ef          	jal	20003578 <_fflush_r>
200024f0:	03442583          	lw	a1,52(s0)
200024f4:	00058c63          	beqz	a1,2000250c <setvbuf+0x88>
200024f8:	04440793          	addi	a5,s0,68
200024fc:	00f58663          	beq	a1,a5,20002508 <setvbuf+0x84>
20002500:	00098513          	mv	a0,s3
20002504:	180000ef          	jal	20002684 <_free_r>
20002508:	02042a23          	sw	zero,52(s0)
2000250c:	00c45783          	lhu	a5,12(s0)
20002510:	00042c23          	sw	zero,24(s0)
20002514:	00042223          	sw	zero,4(s0)
20002518:	0807f793          	andi	a5,a5,128
2000251c:	00078863          	beqz	a5,2000252c <setvbuf+0xa8>
20002520:	01042583          	lw	a1,16(s0)
20002524:	00098513          	mv	a0,s3
20002528:	15c000ef          	jal	20002684 <_free_r>
2000252c:	00c45783          	lhu	a5,12(s0)
20002530:	fffff737          	lui	a4,0xfffff
20002534:	35c70713          	addi	a4,a4,860 # fffff35c <__stack_top+0xdfff98f8>
20002538:	00e7f7b3          	and	a5,a5,a4
2000253c:	00f41623          	sh	a5,12(s0)
20002540:	00200793          	li	a5,2
20002544:	10fa0a63          	beq	s4,a5,20002658 <setvbuf+0x1d4>
20002548:	00c10693          	addi	a3,sp,12
2000254c:	00810613          	addi	a2,sp,8
20002550:	00040593          	mv	a1,s0
20002554:	00098513          	mv	a0,s3
20002558:	0ad010ef          	jal	20003e04 <__swhatbuf_r>
2000255c:	00c45783          	lhu	a5,12(s0)
20002560:	00a7e7b3          	or	a5,a5,a0
20002564:	00f41623          	sh	a5,12(s0)
20002568:	06049863          	bnez	s1,200025d8 <setvbuf+0x154>
2000256c:	00812483          	lw	s1,8(sp)
20002570:	00048513          	mv	a0,s1
20002574:	20c000ef          	jal	20002780 <malloc>
20002578:	00050913          	mv	s2,a0
2000257c:	00048a93          	mv	s5,s1
20002580:	0c051263          	bnez	a0,20002644 <setvbuf+0x1c0>
20002584:	00812a83          	lw	s5,8(sp)
20002588:	0a9a9663          	bne	s5,s1,20002634 <setvbuf+0x1b0>
2000258c:	fff00513          	li	a0,-1
20002590:	00c45783          	lhu	a5,12(s0)
20002594:	00042423          	sw	zero,8(s0)
20002598:	0027e793          	ori	a5,a5,2
2000259c:	00f41623          	sh	a5,12(s0)
200025a0:	04740793          	addi	a5,s0,71
200025a4:	00f42023          	sw	a5,0(s0)
200025a8:	00f42823          	sw	a5,16(s0)
200025ac:	00100793          	li	a5,1
200025b0:	00f42a23          	sw	a5,20(s0)
200025b4:	02c12083          	lw	ra,44(sp)
200025b8:	02812403          	lw	s0,40(sp)
200025bc:	02412483          	lw	s1,36(sp)
200025c0:	02012903          	lw	s2,32(sp)
200025c4:	01c12983          	lw	s3,28(sp)
200025c8:	01812a03          	lw	s4,24(sp)
200025cc:	01412a83          	lw	s5,20(sp)
200025d0:	03010113          	addi	sp,sp,48
200025d4:	00008067          	ret
200025d8:	f8090ce3          	beqz	s2,20002570 <setvbuf+0xec>
200025dc:	0209a783          	lw	a5,32(s3)
200025e0:	00079663          	bnez	a5,200025ec <setvbuf+0x168>
200025e4:	00098513          	mv	a0,s3
200025e8:	2b4010ef          	jal	2000389c <__sinit>
200025ec:	00100793          	li	a5,1
200025f0:	00fa1863          	bne	s4,a5,20002600 <setvbuf+0x17c>
200025f4:	00c45783          	lhu	a5,12(s0)
200025f8:	0147e7b3          	or	a5,a5,s4
200025fc:	00f41623          	sh	a5,12(s0)
20002600:	00c41783          	lh	a5,12(s0)
20002604:	01242023          	sw	s2,0(s0)
20002608:	01242823          	sw	s2,16(s0)
2000260c:	00942a23          	sw	s1,20(s0)
20002610:	0087f713          	andi	a4,a5,8
20002614:	04070a63          	beqz	a4,20002668 <setvbuf+0x1e4>
20002618:	0017f793          	andi	a5,a5,1
2000261c:	04078263          	beqz	a5,20002660 <setvbuf+0x1dc>
20002620:	409004b3          	neg	s1,s1
20002624:	00042423          	sw	zero,8(s0)
20002628:	00942c23          	sw	s1,24(s0)
2000262c:	00000513          	li	a0,0
20002630:	f85ff06f          	j	200025b4 <setvbuf+0x130>
20002634:	000a8513          	mv	a0,s5
20002638:	148000ef          	jal	20002780 <malloc>
2000263c:	00050913          	mv	s2,a0
20002640:	f40506e3          	beqz	a0,2000258c <setvbuf+0x108>
20002644:	00c45783          	lhu	a5,12(s0)
20002648:	000a8493          	mv	s1,s5
2000264c:	0807e793          	ori	a5,a5,128
20002650:	00f41623          	sh	a5,12(s0)
20002654:	f89ff06f          	j	200025dc <setvbuf+0x158>
20002658:	00000513          	li	a0,0
2000265c:	f35ff06f          	j	20002590 <setvbuf+0x10c>
20002660:	00942423          	sw	s1,8(s0)
20002664:	fc9ff06f          	j	2000262c <setvbuf+0x1a8>
20002668:	00042423          	sw	zero,8(s0)
2000266c:	fc1ff06f          	j	2000262c <setvbuf+0x1a8>
20002670:	fff00513          	li	a0,-1
20002674:	f41ff06f          	j	200025b4 <setvbuf+0x130>

20002678 <__errno>:
20002678:	200057b7          	lui	a5,0x20005
2000267c:	d007a503          	lw	a0,-768(a5) # 20004d00 <_impure_ptr>
20002680:	00008067          	ret

20002684 <_free_r>:
20002684:	0e058c63          	beqz	a1,2000277c <_free_r+0xf8>
20002688:	ffc5a783          	lw	a5,-4(a1)
2000268c:	fe010113          	addi	sp,sp,-32
20002690:	00812c23          	sw	s0,24(sp)
20002694:	00112e23          	sw	ra,28(sp)
20002698:	ffc58413          	addi	s0,a1,-4
2000269c:	0007d463          	bgez	a5,200026a4 <_free_r+0x20>
200026a0:	00f40433          	add	s0,s0,a5
200026a4:	00a12623          	sw	a0,12(sp)
200026a8:	340000ef          	jal	200029e8 <__malloc_lock>
200026ac:	20005737          	lui	a4,0x20005
200026b0:	e5872783          	lw	a5,-424(a4) # 20004e58 <__malloc_free_list>
200026b4:	00c12503          	lw	a0,12(sp)
200026b8:	00079e63          	bnez	a5,200026d4 <_free_r+0x50>
200026bc:	00042223          	sw	zero,4(s0)
200026c0:	e4872c23          	sw	s0,-424(a4)
200026c4:	01812403          	lw	s0,24(sp)
200026c8:	01c12083          	lw	ra,28(sp)
200026cc:	02010113          	addi	sp,sp,32
200026d0:	31c0006f          	j	200029ec <__malloc_unlock>
200026d4:	02f47463          	bgeu	s0,a5,200026fc <_free_r+0x78>
200026d8:	00042603          	lw	a2,0(s0)
200026dc:	00c406b3          	add	a3,s0,a2
200026e0:	00d79a63          	bne	a5,a3,200026f4 <_free_r+0x70>
200026e4:	0007a683          	lw	a3,0(a5)
200026e8:	0047a783          	lw	a5,4(a5)
200026ec:	00c686b3          	add	a3,a3,a2
200026f0:	00d42023          	sw	a3,0(s0)
200026f4:	00f42223          	sw	a5,4(s0)
200026f8:	fc9ff06f          	j	200026c0 <_free_r+0x3c>
200026fc:	00078713          	mv	a4,a5
20002700:	0047a783          	lw	a5,4(a5)
20002704:	00078463          	beqz	a5,2000270c <_free_r+0x88>
20002708:	fef47ae3          	bgeu	s0,a5,200026fc <_free_r+0x78>
2000270c:	00072683          	lw	a3,0(a4)
20002710:	00d70633          	add	a2,a4,a3
20002714:	02861863          	bne	a2,s0,20002744 <_free_r+0xc0>
20002718:	00042603          	lw	a2,0(s0)
2000271c:	00c686b3          	add	a3,a3,a2
20002720:	00d72023          	sw	a3,0(a4)
20002724:	00d70633          	add	a2,a4,a3
20002728:	f8c79ee3          	bne	a5,a2,200026c4 <_free_r+0x40>
2000272c:	0007a603          	lw	a2,0(a5)
20002730:	0047a783          	lw	a5,4(a5)
20002734:	00d606b3          	add	a3,a2,a3
20002738:	00d72023          	sw	a3,0(a4)
2000273c:	00f72223          	sw	a5,4(a4)
20002740:	f85ff06f          	j	200026c4 <_free_r+0x40>
20002744:	00c47863          	bgeu	s0,a2,20002754 <_free_r+0xd0>
20002748:	00c00793          	li	a5,12
2000274c:	00f52023          	sw	a5,0(a0)
20002750:	f75ff06f          	j	200026c4 <_free_r+0x40>
20002754:	00042603          	lw	a2,0(s0)
20002758:	00c406b3          	add	a3,s0,a2
2000275c:	00d79a63          	bne	a5,a3,20002770 <_free_r+0xec>
20002760:	0007a683          	lw	a3,0(a5)
20002764:	0047a783          	lw	a5,4(a5)
20002768:	00c686b3          	add	a3,a3,a2
2000276c:	00d42023          	sw	a3,0(s0)
20002770:	00f42223          	sw	a5,4(s0)
20002774:	00872223          	sw	s0,4(a4)
20002778:	f4dff06f          	j	200026c4 <_free_r+0x40>
2000277c:	00008067          	ret

20002780 <malloc>:
20002780:	200057b7          	lui	a5,0x20005
20002784:	00050593          	mv	a1,a0
20002788:	d007a503          	lw	a0,-768(a5) # 20004d00 <_impure_ptr>
2000278c:	09c0006f          	j	20002828 <_malloc_r>

20002790 <free>:
20002790:	200057b7          	lui	a5,0x20005
20002794:	00050593          	mv	a1,a0
20002798:	d007a503          	lw	a0,-768(a5) # 20004d00 <_impure_ptr>
2000279c:	ee9ff06f          	j	20002684 <_free_r>

200027a0 <sbrk_aligned>:
200027a0:	ff010113          	addi	sp,sp,-16
200027a4:	00812423          	sw	s0,8(sp)
200027a8:	20005437          	lui	s0,0x20005
200027ac:	e5442783          	lw	a5,-428(s0) # 20004e54 <__malloc_sbrk_start>
200027b0:	00912223          	sw	s1,4(sp)
200027b4:	01212023          	sw	s2,0(sp)
200027b8:	00112623          	sw	ra,12(sp)
200027bc:	00050913          	mv	s2,a0
200027c0:	00058493          	mv	s1,a1
200027c4:	00079863          	bnez	a5,200027d4 <sbrk_aligned+0x34>
200027c8:	00000593          	li	a1,0
200027cc:	629010ef          	jal	200045f4 <_sbrk_r>
200027d0:	e4a42a23          	sw	a0,-428(s0)
200027d4:	00048593          	mv	a1,s1
200027d8:	00090513          	mv	a0,s2
200027dc:	619010ef          	jal	200045f4 <_sbrk_r>
200027e0:	fff00493          	li	s1,-1
200027e4:	02951263          	bne	a0,s1,20002808 <sbrk_aligned+0x68>
200027e8:	fff00413          	li	s0,-1
200027ec:	00c12083          	lw	ra,12(sp)
200027f0:	00040513          	mv	a0,s0
200027f4:	00812403          	lw	s0,8(sp)
200027f8:	00412483          	lw	s1,4(sp)
200027fc:	00012903          	lw	s2,0(sp)
20002800:	01010113          	addi	sp,sp,16
20002804:	00008067          	ret
20002808:	00350413          	addi	s0,a0,3
2000280c:	ffc47413          	andi	s0,s0,-4
20002810:	fc850ee3          	beq	a0,s0,200027ec <sbrk_aligned+0x4c>
20002814:	40a405b3          	sub	a1,s0,a0
20002818:	00090513          	mv	a0,s2
2000281c:	5d9010ef          	jal	200045f4 <_sbrk_r>
20002820:	fc9516e3          	bne	a0,s1,200027ec <sbrk_aligned+0x4c>
20002824:	fc5ff06f          	j	200027e8 <sbrk_aligned+0x48>

20002828 <_malloc_r>:
20002828:	fe010113          	addi	sp,sp,-32
2000282c:	00912a23          	sw	s1,20(sp)
20002830:	00358493          	addi	s1,a1,3
20002834:	ffc4f493          	andi	s1,s1,-4
20002838:	00112e23          	sw	ra,28(sp)
2000283c:	00812c23          	sw	s0,24(sp)
20002840:	01212823          	sw	s2,16(sp)
20002844:	01312623          	sw	s3,12(sp)
20002848:	01412423          	sw	s4,8(sp)
2000284c:	00848493          	addi	s1,s1,8
20002850:	00c00793          	li	a5,12
20002854:	00f4f463          	bgeu	s1,a5,2000285c <_malloc_r+0x34>
20002858:	00078493          	mv	s1,a5
2000285c:	0004c463          	bltz	s1,20002864 <_malloc_r+0x3c>
20002860:	02b4f863          	bgeu	s1,a1,20002890 <_malloc_r+0x68>
20002864:	00c00793          	li	a5,12
20002868:	00f52023          	sw	a5,0(a0)
2000286c:	00000513          	li	a0,0
20002870:	01c12083          	lw	ra,28(sp)
20002874:	01812403          	lw	s0,24(sp)
20002878:	01412483          	lw	s1,20(sp)
2000287c:	01012903          	lw	s2,16(sp)
20002880:	00c12983          	lw	s3,12(sp)
20002884:	00812a03          	lw	s4,8(sp)
20002888:	02010113          	addi	sp,sp,32
2000288c:	00008067          	ret
20002890:	00050913          	mv	s2,a0
20002894:	200059b7          	lui	s3,0x20005
20002898:	150000ef          	jal	200029e8 <__malloc_lock>
2000289c:	e589a783          	lw	a5,-424(s3) # 20004e58 <__malloc_free_list>
200028a0:	00078413          	mv	s0,a5
200028a4:	08041063          	bnez	s0,20002924 <_malloc_r+0xfc>
200028a8:	00048593          	mv	a1,s1
200028ac:	00090513          	mv	a0,s2
200028b0:	ef1ff0ef          	jal	200027a0 <sbrk_aligned>
200028b4:	fff00793          	li	a5,-1
200028b8:	00050413          	mv	s0,a0
200028bc:	12f51263          	bne	a0,a5,200029e0 <_malloc_r+0x1b8>
200028c0:	e589a403          	lw	s0,-424(s3)
200028c4:	00040793          	mv	a5,s0
200028c8:	0e079263          	bnez	a5,200029ac <_malloc_r+0x184>
200028cc:	10040063          	beqz	s0,200029cc <_malloc_r+0x1a4>
200028d0:	00042a03          	lw	s4,0(s0)
200028d4:	00000593          	li	a1,0
200028d8:	00090513          	mv	a0,s2
200028dc:	01440a33          	add	s4,s0,s4
200028e0:	515010ef          	jal	200045f4 <_sbrk_r>
200028e4:	0eaa1463          	bne	s4,a0,200029cc <_malloc_r+0x1a4>
200028e8:	00042783          	lw	a5,0(s0)
200028ec:	00090513          	mv	a0,s2
200028f0:	40f484b3          	sub	s1,s1,a5
200028f4:	00048593          	mv	a1,s1
200028f8:	ea9ff0ef          	jal	200027a0 <sbrk_aligned>
200028fc:	fff00793          	li	a5,-1
20002900:	0cf50663          	beq	a0,a5,200029cc <_malloc_r+0x1a4>
20002904:	00042783          	lw	a5,0(s0)
20002908:	009787b3          	add	a5,a5,s1
2000290c:	00f42023          	sw	a5,0(s0)
20002910:	e589a783          	lw	a5,-424(s3)
20002914:	0047a703          	lw	a4,4(a5)
20002918:	0a071063          	bnez	a4,200029b8 <_malloc_r+0x190>
2000291c:	e409ac23          	sw	zero,-424(s3)
20002920:	0340006f          	j	20002954 <_malloc_r+0x12c>
20002924:	00042683          	lw	a3,0(s0)
20002928:	409686b3          	sub	a3,a3,s1
2000292c:	0606ca63          	bltz	a3,200029a0 <_malloc_r+0x178>
20002930:	00b00713          	li	a4,11
20002934:	04d77a63          	bgeu	a4,a3,20002988 <_malloc_r+0x160>
20002938:	00942023          	sw	s1,0(s0)
2000293c:	00940733          	add	a4,s0,s1
20002940:	04879063          	bne	a5,s0,20002980 <_malloc_r+0x158>
20002944:	e4e9ac23          	sw	a4,-424(s3)
20002948:	00442783          	lw	a5,4(s0)
2000294c:	00d72023          	sw	a3,0(a4)
20002950:	00f72223          	sw	a5,4(a4)
20002954:	00090513          	mv	a0,s2
20002958:	094000ef          	jal	200029ec <__malloc_unlock>
2000295c:	00b40513          	addi	a0,s0,11
20002960:	00440793          	addi	a5,s0,4
20002964:	ff857513          	andi	a0,a0,-8
20002968:	40f50733          	sub	a4,a0,a5
2000296c:	f0f502e3          	beq	a0,a5,20002870 <_malloc_r+0x48>
20002970:	00e40433          	add	s0,s0,a4
20002974:	40a787b3          	sub	a5,a5,a0
20002978:	00f42023          	sw	a5,0(s0)
2000297c:	ef5ff06f          	j	20002870 <_malloc_r+0x48>
20002980:	00e7a223          	sw	a4,4(a5)
20002984:	fc5ff06f          	j	20002948 <_malloc_r+0x120>
20002988:	00442703          	lw	a4,4(s0)
2000298c:	00879663          	bne	a5,s0,20002998 <_malloc_r+0x170>
20002990:	e4e9ac23          	sw	a4,-424(s3)
20002994:	fc1ff06f          	j	20002954 <_malloc_r+0x12c>
20002998:	00e7a223          	sw	a4,4(a5)
2000299c:	fb9ff06f          	j	20002954 <_malloc_r+0x12c>
200029a0:	00040793          	mv	a5,s0
200029a4:	00442403          	lw	s0,4(s0)
200029a8:	efdff06f          	j	200028a4 <_malloc_r+0x7c>
200029ac:	00078413          	mv	s0,a5
200029b0:	0047a783          	lw	a5,4(a5)
200029b4:	f15ff06f          	j	200028c8 <_malloc_r+0xa0>
200029b8:	00078713          	mv	a4,a5
200029bc:	0047a783          	lw	a5,4(a5)
200029c0:	fe879ce3          	bne	a5,s0,200029b8 <_malloc_r+0x190>
200029c4:	00072223          	sw	zero,4(a4)
200029c8:	f8dff06f          	j	20002954 <_malloc_r+0x12c>
200029cc:	00c00793          	li	a5,12
200029d0:	00f92023          	sw	a5,0(s2)
200029d4:	00090513          	mv	a0,s2
200029d8:	014000ef          	jal	200029ec <__malloc_unlock>
200029dc:	e91ff06f          	j	2000286c <_malloc_r+0x44>
200029e0:	00952023          	sw	s1,0(a0)
200029e4:	f71ff06f          	j	20002954 <_malloc_r+0x12c>

200029e8 <__malloc_lock>:
200029e8:	00008067          	ret

200029ec <__malloc_unlock>:
200029ec:	00008067          	ret

200029f0 <__sfputc_r>:
200029f0:	00862783          	lw	a5,8(a2) # 10008 <_start-0x1ffefff8>
200029f4:	fff78793          	addi	a5,a5,-1
200029f8:	00f62423          	sw	a5,8(a2)
200029fc:	0007dc63          	bgez	a5,20002a14 <__sfputc_r+0x24>
20002a00:	01862703          	lw	a4,24(a2)
20002a04:	00e7c663          	blt	a5,a4,20002a10 <__sfputc_r+0x20>
20002a08:	ff658793          	addi	a5,a1,-10
20002a0c:	00079463          	bnez	a5,20002a14 <__sfputc_r+0x24>
20002a10:	6880106f          	j	20004098 <__swbuf_r>
20002a14:	00062783          	lw	a5,0(a2)
20002a18:	00058513          	mv	a0,a1
20002a1c:	00178713          	addi	a4,a5,1
20002a20:	00e62023          	sw	a4,0(a2)
20002a24:	00b78023          	sb	a1,0(a5)
20002a28:	00008067          	ret

20002a2c <__sfputs_r>:
20002a2c:	fe010113          	addi	sp,sp,-32
20002a30:	00812c23          	sw	s0,24(sp)
20002a34:	00912a23          	sw	s1,20(sp)
20002a38:	01212823          	sw	s2,16(sp)
20002a3c:	01312623          	sw	s3,12(sp)
20002a40:	01412423          	sw	s4,8(sp)
20002a44:	00112e23          	sw	ra,28(sp)
20002a48:	00050993          	mv	s3,a0
20002a4c:	00058a13          	mv	s4,a1
20002a50:	00060413          	mv	s0,a2
20002a54:	00d604b3          	add	s1,a2,a3
20002a58:	fff00913          	li	s2,-1
20002a5c:	00941663          	bne	s0,s1,20002a68 <__sfputs_r+0x3c>
20002a60:	00000513          	li	a0,0
20002a64:	01c0006f          	j	20002a80 <__sfputs_r+0x54>
20002a68:	00044583          	lbu	a1,0(s0)
20002a6c:	000a0613          	mv	a2,s4
20002a70:	00098513          	mv	a0,s3
20002a74:	f7dff0ef          	jal	200029f0 <__sfputc_r>
20002a78:	00140413          	addi	s0,s0,1
20002a7c:	ff2510e3          	bne	a0,s2,20002a5c <__sfputs_r+0x30>
20002a80:	01c12083          	lw	ra,28(sp)
20002a84:	01812403          	lw	s0,24(sp)
20002a88:	01412483          	lw	s1,20(sp)
20002a8c:	01012903          	lw	s2,16(sp)
20002a90:	00c12983          	lw	s3,12(sp)
20002a94:	00812a03          	lw	s4,8(sp)
20002a98:	02010113          	addi	sp,sp,32
20002a9c:	00008067          	ret

20002aa0 <__sprint_r>:
20002aa0:	00862783          	lw	a5,8(a2)
20002aa4:	ff010113          	addi	sp,sp,-16
20002aa8:	00812423          	sw	s0,8(sp)
20002aac:	00112623          	sw	ra,12(sp)
20002ab0:	00060413          	mv	s0,a2
20002ab4:	02078063          	beqz	a5,20002ad4 <__sprint_r+0x34>
20002ab8:	645000ef          	jal	200038fc <__sfvwrite_r>
20002abc:	00042423          	sw	zero,8(s0)
20002ac0:	00c12083          	lw	ra,12(sp)
20002ac4:	00042223          	sw	zero,4(s0)
20002ac8:	00812403          	lw	s0,8(sp)
20002acc:	01010113          	addi	sp,sp,16
20002ad0:	00008067          	ret
20002ad4:	00000513          	li	a0,0
20002ad8:	fe9ff06f          	j	20002ac0 <__sprint_r+0x20>

20002adc <_vfiprintf_r>:
20002adc:	f5010113          	addi	sp,sp,-176
20002ae0:	0a812423          	sw	s0,168(sp)
20002ae4:	0a912223          	sw	s1,164(sp)
20002ae8:	09312e23          	sw	s3,156(sp)
20002aec:	09412c23          	sw	s4,152(sp)
20002af0:	0a112623          	sw	ra,172(sp)
20002af4:	0b212023          	sw	s2,160(sp)
20002af8:	09512a23          	sw	s5,148(sp)
20002afc:	09612823          	sw	s6,144(sp)
20002b00:	09712623          	sw	s7,140(sp)
20002b04:	09812423          	sw	s8,136(sp)
20002b08:	09912223          	sw	s9,132(sp)
20002b0c:	00050993          	mv	s3,a0
20002b10:	00058493          	mv	s1,a1
20002b14:	00060413          	mv	s0,a2
20002b18:	00068a13          	mv	s4,a3
20002b1c:	00050863          	beqz	a0,20002b2c <_vfiprintf_r+0x50>
20002b20:	02052783          	lw	a5,32(a0)
20002b24:	00079463          	bnez	a5,20002b2c <_vfiprintf_r+0x50>
20002b28:	575000ef          	jal	2000389c <__sinit>
20002b2c:	00c4d783          	lhu	a5,12(s1)
20002b30:	0087f793          	andi	a5,a5,8
20002b34:	10078a63          	beqz	a5,20002c48 <_vfiprintf_r+0x16c>
20002b38:	0104a783          	lw	a5,16(s1)
20002b3c:	10078663          	beqz	a5,20002c48 <_vfiprintf_r+0x16c>
20002b40:	02000793          	li	a5,32
20002b44:	02f10ca3          	sb	a5,57(sp)
20002b48:	01412e23          	sw	s4,28(sp)
20002b4c:	03000793          	li	a5,48
20002b50:	20005a37          	lui	s4,0x20005
20002b54:	02012a23          	sw	zero,52(sp)
20002b58:	02f10d23          	sb	a5,58(sp)
20002b5c:	fff00a93          	li	s5,-1
20002b60:	908a0a13          	addi	s4,s4,-1784 # 20004908 <__clz_tab+0x100>
20002b64:	00100b93          	li	s7,1
20002b68:	00a00b13          	li	s6,10
20002b6c:	00040c13          	mv	s8,s0
20002b70:	000c4783          	lbu	a5,0(s8)
20002b74:	00f03cb3          	snez	s9,a5
20002b78:	fdb78793          	addi	a5,a5,-37
20002b7c:	00f037b3          	snez	a5,a5
20002b80:	00fcfcb3          	and	s9,s9,a5
20002b84:	100c9663          	bnez	s9,20002c90 <_vfiprintf_r+0x1b4>
20002b88:	408c06b3          	sub	a3,s8,s0
20002b8c:	028c0663          	beq	s8,s0,20002bb8 <_vfiprintf_r+0xdc>
20002b90:	00040613          	mv	a2,s0
20002b94:	00048593          	mv	a1,s1
20002b98:	00098513          	mv	a0,s3
20002b9c:	00d12623          	sw	a3,12(sp)
20002ba0:	e8dff0ef          	jal	20002a2c <__sfputs_r>
20002ba4:	29550063          	beq	a0,s5,20002e24 <_vfiprintf_r+0x348>
20002ba8:	03412783          	lw	a5,52(sp)
20002bac:	00c12683          	lw	a3,12(sp)
20002bb0:	00d787b3          	add	a5,a5,a3
20002bb4:	02f12a23          	sw	a5,52(sp)
20002bb8:	000c4783          	lbu	a5,0(s8)
20002bbc:	26078463          	beqz	a5,20002e24 <_vfiprintf_r+0x348>
20002bc0:	001c0413          	addi	s0,s8,1
20002bc4:	02012023          	sw	zero,32(sp)
20002bc8:	02012623          	sw	zero,44(sp)
20002bcc:	03512223          	sw	s5,36(sp)
20002bd0:	02012423          	sw	zero,40(sp)
20002bd4:	060101a3          	sb	zero,99(sp)
20002bd8:	06012c23          	sw	zero,120(sp)
20002bdc:	00044583          	lbu	a1,0(s0)
20002be0:	00500613          	li	a2,5
20002be4:	000a0513          	mv	a0,s4
20002be8:	6dc010ef          	jal	200042c4 <memchr>
20002bec:	02012783          	lw	a5,32(sp)
20002bf0:	00140693          	addi	a3,s0,1
20002bf4:	0a051263          	bnez	a0,20002c98 <_vfiprintf_r+0x1bc>
20002bf8:	0107f713          	andi	a4,a5,16
20002bfc:	00070663          	beqz	a4,20002c08 <_vfiprintf_r+0x12c>
20002c00:	02000713          	li	a4,32
20002c04:	06e101a3          	sb	a4,99(sp)
20002c08:	0087f713          	andi	a4,a5,8
20002c0c:	00070663          	beqz	a4,20002c18 <_vfiprintf_r+0x13c>
20002c10:	02b00713          	li	a4,43
20002c14:	06e101a3          	sb	a4,99(sp)
20002c18:	00044603          	lbu	a2,0(s0)
20002c1c:	02a00713          	li	a4,42
20002c20:	08e60863          	beq	a2,a4,20002cb0 <_vfiprintf_r+0x1d4>
20002c24:	02c12783          	lw	a5,44(sp)
20002c28:	00000693          	li	a3,0
20002c2c:	00900613          	li	a2,9
20002c30:	00044703          	lbu	a4,0(s0)
20002c34:	fd070713          	addi	a4,a4,-48
20002c38:	0ee67263          	bgeu	a2,a4,20002d1c <_vfiprintf_r+0x240>
20002c3c:	08068863          	beqz	a3,20002ccc <_vfiprintf_r+0x1f0>
20002c40:	02f12623          	sw	a5,44(sp)
20002c44:	0880006f          	j	20002ccc <_vfiprintf_r+0x1f0>
20002c48:	00048593          	mv	a1,s1
20002c4c:	00098513          	mv	a0,s3
20002c50:	558010ef          	jal	200041a8 <__swsetup_r>
20002c54:	ee0506e3          	beqz	a0,20002b40 <_vfiprintf_r+0x64>
20002c58:	fff00513          	li	a0,-1
20002c5c:	0ac12083          	lw	ra,172(sp)
20002c60:	0a812403          	lw	s0,168(sp)
20002c64:	0a412483          	lw	s1,164(sp)
20002c68:	0a012903          	lw	s2,160(sp)
20002c6c:	09c12983          	lw	s3,156(sp)
20002c70:	09812a03          	lw	s4,152(sp)
20002c74:	09412a83          	lw	s5,148(sp)
20002c78:	09012b03          	lw	s6,144(sp)
20002c7c:	08c12b83          	lw	s7,140(sp)
20002c80:	08812c03          	lw	s8,136(sp)
20002c84:	08412c83          	lw	s9,132(sp)
20002c88:	0b010113          	addi	sp,sp,176
20002c8c:	00008067          	ret
20002c90:	001c0c13          	addi	s8,s8,1
20002c94:	eddff06f          	j	20002b70 <_vfiprintf_r+0x94>
20002c98:	41450533          	sub	a0,a0,s4
20002c9c:	00ab9533          	sll	a0,s7,a0
20002ca0:	00f56533          	or	a0,a0,a5
20002ca4:	02a12023          	sw	a0,32(sp)
20002ca8:	00068413          	mv	s0,a3
20002cac:	f31ff06f          	j	20002bdc <_vfiprintf_r+0x100>
20002cb0:	01c12703          	lw	a4,28(sp)
20002cb4:	00470613          	addi	a2,a4,4
20002cb8:	00072703          	lw	a4,0(a4)
20002cbc:	00c12e23          	sw	a2,28(sp)
20002cc0:	04074463          	bltz	a4,20002d08 <_vfiprintf_r+0x22c>
20002cc4:	02e12623          	sw	a4,44(sp)
20002cc8:	00068413          	mv	s0,a3
20002ccc:	00044703          	lbu	a4,0(s0)
20002cd0:	02e00793          	li	a5,46
20002cd4:	06f71e63          	bne	a4,a5,20002d50 <_vfiprintf_r+0x274>
20002cd8:	00144703          	lbu	a4,1(s0)
20002cdc:	02a00793          	li	a5,42
20002ce0:	04f71863          	bne	a4,a5,20002d30 <_vfiprintf_r+0x254>
20002ce4:	01c12783          	lw	a5,28(sp)
20002ce8:	00240413          	addi	s0,s0,2
20002cec:	00478713          	addi	a4,a5,4
20002cf0:	0007a783          	lw	a5,0(a5)
20002cf4:	00e12e23          	sw	a4,28(sp)
20002cf8:	0007d463          	bgez	a5,20002d00 <_vfiprintf_r+0x224>
20002cfc:	fff00793          	li	a5,-1
20002d00:	02f12223          	sw	a5,36(sp)
20002d04:	04c0006f          	j	20002d50 <_vfiprintf_r+0x274>
20002d08:	40e00733          	neg	a4,a4
20002d0c:	0027e793          	ori	a5,a5,2
20002d10:	02e12623          	sw	a4,44(sp)
20002d14:	02f12023          	sw	a5,32(sp)
20002d18:	fb1ff06f          	j	20002cc8 <_vfiprintf_r+0x1ec>
20002d1c:	036787b3          	mul	a5,a5,s6
20002d20:	00140413          	addi	s0,s0,1
20002d24:	00100693          	li	a3,1
20002d28:	00e787b3          	add	a5,a5,a4
20002d2c:	f05ff06f          	j	20002c30 <_vfiprintf_r+0x154>
20002d30:	00140413          	addi	s0,s0,1
20002d34:	02012223          	sw	zero,36(sp)
20002d38:	00000793          	li	a5,0
20002d3c:	00900693          	li	a3,9
20002d40:	00044703          	lbu	a4,0(s0)
20002d44:	fd070713          	addi	a4,a4,-48
20002d48:	08e6f863          	bgeu	a3,a4,20002dd8 <_vfiprintf_r+0x2fc>
20002d4c:	fa0c9ae3          	bnez	s9,20002d00 <_vfiprintf_r+0x224>
20002d50:	00044583          	lbu	a1,0(s0)
20002d54:	20005c37          	lui	s8,0x20005
20002d58:	00300613          	li	a2,3
20002d5c:	910c0513          	addi	a0,s8,-1776 # 20004910 <__clz_tab+0x108>
20002d60:	564010ef          	jal	200042c4 <memchr>
20002d64:	02050263          	beqz	a0,20002d88 <_vfiprintf_r+0x2ac>
20002d68:	02012783          	lw	a5,32(sp)
20002d6c:	910c0c13          	addi	s8,s8,-1776
20002d70:	41850533          	sub	a0,a0,s8
20002d74:	04000713          	li	a4,64
20002d78:	00a71733          	sll	a4,a4,a0
20002d7c:	00e7e7b3          	or	a5,a5,a4
20002d80:	00140413          	addi	s0,s0,1
20002d84:	02f12023          	sw	a5,32(sp)
20002d88:	00044583          	lbu	a1,0(s0)
20002d8c:	20005537          	lui	a0,0x20005
20002d90:	00600613          	li	a2,6
20002d94:	91450513          	addi	a0,a0,-1772 # 20004914 <__clz_tab+0x10c>
20002d98:	02b10c23          	sb	a1,56(sp)
20002d9c:	528010ef          	jal	200042c4 <memchr>
20002da0:	08050c63          	beqz	a0,20002e38 <_vfiprintf_r+0x35c>
20002da4:	00000793          	li	a5,0
20002da8:	04079a63          	bnez	a5,20002dfc <_vfiprintf_r+0x320>
20002dac:	02012703          	lw	a4,32(sp)
20002db0:	01c12783          	lw	a5,28(sp)
20002db4:	10077713          	andi	a4,a4,256
20002db8:	02070a63          	beqz	a4,20002dec <_vfiprintf_r+0x310>
20002dbc:	00478793          	addi	a5,a5,4
20002dc0:	00f12e23          	sw	a5,28(sp)
20002dc4:	03412783          	lw	a5,52(sp)
20002dc8:	00140413          	addi	s0,s0,1
20002dcc:	012787b3          	add	a5,a5,s2
20002dd0:	02f12a23          	sw	a5,52(sp)
20002dd4:	d99ff06f          	j	20002b6c <_vfiprintf_r+0x90>
20002dd8:	036787b3          	mul	a5,a5,s6
20002ddc:	00140413          	addi	s0,s0,1
20002de0:	00100c93          	li	s9,1
20002de4:	00e787b3          	add	a5,a5,a4
20002de8:	f59ff06f          	j	20002d40 <_vfiprintf_r+0x264>
20002dec:	00778793          	addi	a5,a5,7
20002df0:	ff87f793          	andi	a5,a5,-8
20002df4:	00878793          	addi	a5,a5,8
20002df8:	fc9ff06f          	j	20002dc0 <_vfiprintf_r+0x2e4>
20002dfc:	200036b7          	lui	a3,0x20003
20002e00:	01c10713          	addi	a4,sp,28
20002e04:	a2c68693          	addi	a3,a3,-1492 # 20002a2c <__sfputs_r>
20002e08:	00048613          	mv	a2,s1
20002e0c:	02010593          	addi	a1,sp,32
20002e10:	00098513          	mv	a0,s3
20002e14:	00000097          	auipc	ra,0x0
20002e18:	000000e7          	jalr	zero # 0 <_start-0x20000000>
20002e1c:	00050913          	mv	s2,a0
20002e20:	fb5512e3          	bne	a0,s5,20002dc4 <_vfiprintf_r+0x2e8>
20002e24:	00c4d783          	lhu	a5,12(s1)
20002e28:	0407f793          	andi	a5,a5,64
20002e2c:	e20796e3          	bnez	a5,20002c58 <_vfiprintf_r+0x17c>
20002e30:	03412503          	lw	a0,52(sp)
20002e34:	e29ff06f          	j	20002c5c <_vfiprintf_r+0x180>
20002e38:	200036b7          	lui	a3,0x20003
20002e3c:	01c10713          	addi	a4,sp,28
20002e40:	a2c68693          	addi	a3,a3,-1492 # 20002a2c <__sfputs_r>
20002e44:	00048613          	mv	a2,s1
20002e48:	02010593          	addi	a1,sp,32
20002e4c:	00098513          	mv	a0,s3
20002e50:	1d4000ef          	jal	20003024 <_printf_i>
20002e54:	fc9ff06f          	j	20002e1c <_vfiprintf_r+0x340>

20002e58 <vfiprintf>:
20002e58:	200057b7          	lui	a5,0x20005
20002e5c:	00060693          	mv	a3,a2
20002e60:	00058613          	mv	a2,a1
20002e64:	00050593          	mv	a1,a0
20002e68:	d007a503          	lw	a0,-768(a5) # 20004d00 <_impure_ptr>
20002e6c:	c71ff06f          	j	20002adc <_vfiprintf_r>

20002e70 <_printf_common>:
20002e70:	fd010113          	addi	sp,sp,-48
20002e74:	01312e23          	sw	s3,28(sp)
20002e78:	0105a783          	lw	a5,16(a1)
20002e7c:	00070993          	mv	s3,a4
20002e80:	0085a703          	lw	a4,8(a1)
20002e84:	02812423          	sw	s0,40(sp)
20002e88:	03212023          	sw	s2,32(sp)
20002e8c:	01612823          	sw	s6,16(sp)
20002e90:	01712623          	sw	s7,12(sp)
20002e94:	02112623          	sw	ra,44(sp)
20002e98:	02912223          	sw	s1,36(sp)
20002e9c:	01412c23          	sw	s4,24(sp)
20002ea0:	01512a23          	sw	s5,20(sp)
20002ea4:	00050b13          	mv	s6,a0
20002ea8:	00058413          	mv	s0,a1
20002eac:	00060913          	mv	s2,a2
20002eb0:	00068b93          	mv	s7,a3
20002eb4:	00e7d463          	bge	a5,a4,20002ebc <_printf_common+0x4c>
20002eb8:	00070793          	mv	a5,a4
20002ebc:	00f92023          	sw	a5,0(s2)
20002ec0:	04344703          	lbu	a4,67(s0)
20002ec4:	00070663          	beqz	a4,20002ed0 <_printf_common+0x60>
20002ec8:	00178793          	addi	a5,a5,1
20002ecc:	00f92023          	sw	a5,0(s2)
20002ed0:	00042783          	lw	a5,0(s0)
20002ed4:	0207f793          	andi	a5,a5,32
20002ed8:	00078863          	beqz	a5,20002ee8 <_printf_common+0x78>
20002edc:	00092783          	lw	a5,0(s2)
20002ee0:	00278793          	addi	a5,a5,2
20002ee4:	00f92023          	sw	a5,0(s2)
20002ee8:	00042483          	lw	s1,0(s0)
20002eec:	0064f493          	andi	s1,s1,6
20002ef0:	00049e63          	bnez	s1,20002f0c <_printf_common+0x9c>
20002ef4:	01940a13          	addi	s4,s0,25
20002ef8:	fff00a93          	li	s5,-1
20002efc:	00c42783          	lw	a5,12(s0)
20002f00:	00092703          	lw	a4,0(s2)
20002f04:	40e787b3          	sub	a5,a5,a4
20002f08:	08f4c463          	blt	s1,a5,20002f90 <_printf_common+0x120>
20002f0c:	00042783          	lw	a5,0(s0)
20002f10:	04344683          	lbu	a3,67(s0)
20002f14:	0207f793          	andi	a5,a5,32
20002f18:	00d036b3          	snez	a3,a3
20002f1c:	0c079263          	bnez	a5,20002fe0 <_printf_common+0x170>
20002f20:	04340613          	addi	a2,s0,67
20002f24:	000b8593          	mv	a1,s7
20002f28:	000b0513          	mv	a0,s6
20002f2c:	000980e7          	jalr	s3
20002f30:	fff00793          	li	a5,-1
20002f34:	06f50a63          	beq	a0,a5,20002fa8 <_printf_common+0x138>
20002f38:	00042783          	lw	a5,0(s0)
20002f3c:	00400713          	li	a4,4
20002f40:	00000493          	li	s1,0
20002f44:	0067f793          	andi	a5,a5,6
20002f48:	00e79e63          	bne	a5,a4,20002f64 <_printf_common+0xf4>
20002f4c:	00092783          	lw	a5,0(s2)
20002f50:	00c42483          	lw	s1,12(s0)
20002f54:	40f484b3          	sub	s1,s1,a5
20002f58:	fff4c793          	not	a5,s1
20002f5c:	41f7d793          	srai	a5,a5,0x1f
20002f60:	00f4f4b3          	and	s1,s1,a5
20002f64:	00842783          	lw	a5,8(s0)
20002f68:	01042703          	lw	a4,16(s0)
20002f6c:	00f75663          	bge	a4,a5,20002f78 <_printf_common+0x108>
20002f70:	40e787b3          	sub	a5,a5,a4
20002f74:	00f484b3          	add	s1,s1,a5
20002f78:	00000913          	li	s2,0
20002f7c:	01a40413          	addi	s0,s0,26
20002f80:	fff00a13          	li	s4,-1
20002f84:	09249063          	bne	s1,s2,20003004 <_printf_common+0x194>
20002f88:	00000513          	li	a0,0
20002f8c:	0200006f          	j	20002fac <_printf_common+0x13c>
20002f90:	00100693          	li	a3,1
20002f94:	000a0613          	mv	a2,s4
20002f98:	000b8593          	mv	a1,s7
20002f9c:	000b0513          	mv	a0,s6
20002fa0:	000980e7          	jalr	s3
20002fa4:	03551a63          	bne	a0,s5,20002fd8 <_printf_common+0x168>
20002fa8:	fff00513          	li	a0,-1
20002fac:	02c12083          	lw	ra,44(sp)
20002fb0:	02812403          	lw	s0,40(sp)
20002fb4:	02412483          	lw	s1,36(sp)
20002fb8:	02012903          	lw	s2,32(sp)
20002fbc:	01c12983          	lw	s3,28(sp)
20002fc0:	01812a03          	lw	s4,24(sp)
20002fc4:	01412a83          	lw	s5,20(sp)
20002fc8:	01012b03          	lw	s6,16(sp)
20002fcc:	00c12b83          	lw	s7,12(sp)
20002fd0:	03010113          	addi	sp,sp,48
20002fd4:	00008067          	ret
20002fd8:	00148493          	addi	s1,s1,1
20002fdc:	f21ff06f          	j	20002efc <_printf_common+0x8c>
20002fe0:	00d40733          	add	a4,s0,a3
20002fe4:	03000613          	li	a2,48
20002fe8:	04c701a3          	sb	a2,67(a4)
20002fec:	04544703          	lbu	a4,69(s0)
20002ff0:	00168793          	addi	a5,a3,1
20002ff4:	00f407b3          	add	a5,s0,a5
20002ff8:	00268693          	addi	a3,a3,2
20002ffc:	04e781a3          	sb	a4,67(a5)
20003000:	f21ff06f          	j	20002f20 <_printf_common+0xb0>
20003004:	00100693          	li	a3,1
20003008:	00040613          	mv	a2,s0
2000300c:	000b8593          	mv	a1,s7
20003010:	000b0513          	mv	a0,s6
20003014:	000980e7          	jalr	s3
20003018:	f94508e3          	beq	a0,s4,20002fa8 <_printf_common+0x138>
2000301c:	00190913          	addi	s2,s2,1
20003020:	f65ff06f          	j	20002f84 <_printf_common+0x114>

20003024 <_printf_i>:
20003024:	fc010113          	addi	sp,sp,-64
20003028:	02812c23          	sw	s0,56(sp)
2000302c:	02912a23          	sw	s1,52(sp)
20003030:	03412423          	sw	s4,40(sp)
20003034:	03512223          	sw	s5,36(sp)
20003038:	02112e23          	sw	ra,60(sp)
2000303c:	03212823          	sw	s2,48(sp)
20003040:	03312623          	sw	s3,44(sp)
20003044:	0185c783          	lbu	a5,24(a1)
20003048:	00068493          	mv	s1,a3
2000304c:	07800693          	li	a3,120
20003050:	00050a13          	mv	s4,a0
20003054:	00058413          	mv	s0,a1
20003058:	00060a93          	mv	s5,a2
2000305c:	00f6ee63          	bltu	a3,a5,20003078 <_printf_i+0x54>
20003060:	06200693          	li	a3,98
20003064:	04358613          	addi	a2,a1,67
20003068:	00f6ec63          	bltu	a3,a5,20003080 <_printf_i+0x5c>
2000306c:	28078263          	beqz	a5,200032f0 <_printf_i+0x2cc>
20003070:	05800693          	li	a3,88
20003074:	20d78e63          	beq	a5,a3,20003290 <_printf_i+0x26c>
20003078:	04240913          	addi	s2,s0,66
2000307c:	0400006f          	j	200030bc <_printf_i+0x98>
20003080:	f9d78693          	addi	a3,a5,-99
20003084:	0ff6f693          	zext.b	a3,a3
20003088:	01500593          	li	a1,21
2000308c:	fed5e6e3          	bltu	a1,a3,20003078 <_printf_i+0x54>
20003090:	200055b7          	lui	a1,0x20005
20003094:	00269693          	slli	a3,a3,0x2
20003098:	94458593          	addi	a1,a1,-1724 # 20004944 <__clz_tab+0x13c>
2000309c:	00b686b3          	add	a3,a3,a1
200030a0:	0006a683          	lw	a3,0(a3)
200030a4:	00068067          	jr	a3
200030a8:	00072783          	lw	a5,0(a4)
200030ac:	04240913          	addi	s2,s0,66
200030b0:	00478693          	addi	a3,a5,4
200030b4:	0007a783          	lw	a5,0(a5)
200030b8:	00d72023          	sw	a3,0(a4)
200030bc:	04f40123          	sb	a5,66(s0)
200030c0:	00100793          	li	a5,1
200030c4:	2680006f          	j	2000332c <_printf_i+0x308>
200030c8:	00042783          	lw	a5,0(s0)
200030cc:	00072503          	lw	a0,0(a4)
200030d0:	0807f693          	andi	a3,a5,128
200030d4:	00450593          	addi	a1,a0,4
200030d8:	02068663          	beqz	a3,20003104 <_printf_i+0xe0>
200030dc:	00052783          	lw	a5,0(a0)
200030e0:	00b72023          	sw	a1,0(a4)
200030e4:	200056b7          	lui	a3,0x20005
200030e8:	0007d863          	bgez	a5,200030f8 <_printf_i+0xd4>
200030ec:	02d00713          	li	a4,45
200030f0:	40f007b3          	neg	a5,a5
200030f4:	04e401a3          	sb	a4,67(s0)
200030f8:	91c68693          	addi	a3,a3,-1764 # 2000491c <__clz_tab+0x114>
200030fc:	00a00713          	li	a4,10
20003100:	0680006f          	j	20003168 <_printf_i+0x144>
20003104:	0407f693          	andi	a3,a5,64
20003108:	00052783          	lw	a5,0(a0)
2000310c:	00b72023          	sw	a1,0(a4)
20003110:	fc068ae3          	beqz	a3,200030e4 <_printf_i+0xc0>
20003114:	01079793          	slli	a5,a5,0x10
20003118:	4107d793          	srai	a5,a5,0x10
2000311c:	fc9ff06f          	j	200030e4 <_printf_i+0xc0>
20003120:	00042583          	lw	a1,0(s0)
20003124:	00072683          	lw	a3,0(a4)
20003128:	0805f513          	andi	a0,a1,128
2000312c:	0006a783          	lw	a5,0(a3)
20003130:	00468693          	addi	a3,a3,4
20003134:	00051a63          	bnez	a0,20003148 <_printf_i+0x124>
20003138:	0405f593          	andi	a1,a1,64
2000313c:	00058663          	beqz	a1,20003148 <_printf_i+0x124>
20003140:	01079793          	slli	a5,a5,0x10
20003144:	0107d793          	srli	a5,a5,0x10
20003148:	00d72023          	sw	a3,0(a4)
2000314c:	01844583          	lbu	a1,24(s0)
20003150:	200056b7          	lui	a3,0x20005
20003154:	06f00713          	li	a4,111
20003158:	91c68693          	addi	a3,a3,-1764 # 2000491c <__clz_tab+0x114>
2000315c:	14e59863          	bne	a1,a4,200032ac <_printf_i+0x288>
20003160:	00800713          	li	a4,8
20003164:	040401a3          	sb	zero,67(s0)
20003168:	00442583          	lw	a1,4(s0)
2000316c:	00b42423          	sw	a1,8(s0)
20003170:	0005ce63          	bltz	a1,2000318c <_printf_i+0x168>
20003174:	00042503          	lw	a0,0(s0)
20003178:	00b7e5b3          	or	a1,a5,a1
2000317c:	00060913          	mv	s2,a2
20003180:	ffb57513          	andi	a0,a0,-5
20003184:	00a42023          	sw	a0,0(s0)
20003188:	02058463          	beqz	a1,200031b0 <_printf_i+0x18c>
2000318c:	00060913          	mv	s2,a2
20003190:	02e7f5b3          	remu	a1,a5,a4
20003194:	fff90913          	addi	s2,s2,-1
20003198:	00b685b3          	add	a1,a3,a1
2000319c:	0005c583          	lbu	a1,0(a1)
200031a0:	00b90023          	sb	a1,0(s2)
200031a4:	00078593          	mv	a1,a5
200031a8:	02e7d7b3          	divu	a5,a5,a4
200031ac:	fee5f2e3          	bgeu	a1,a4,20003190 <_printf_i+0x16c>
200031b0:	00800793          	li	a5,8
200031b4:	02f71463          	bne	a4,a5,200031dc <_printf_i+0x1b8>
200031b8:	00042783          	lw	a5,0(s0)
200031bc:	0017f793          	andi	a5,a5,1
200031c0:	00078e63          	beqz	a5,200031dc <_printf_i+0x1b8>
200031c4:	00442703          	lw	a4,4(s0)
200031c8:	01042783          	lw	a5,16(s0)
200031cc:	00e7c863          	blt	a5,a4,200031dc <_printf_i+0x1b8>
200031d0:	03000793          	li	a5,48
200031d4:	fef90fa3          	sb	a5,-1(s2)
200031d8:	fff90913          	addi	s2,s2,-1
200031dc:	41260633          	sub	a2,a2,s2
200031e0:	00c42823          	sw	a2,16(s0)
200031e4:	00048713          	mv	a4,s1
200031e8:	000a8693          	mv	a3,s5
200031ec:	01c10613          	addi	a2,sp,28
200031f0:	00040593          	mv	a1,s0
200031f4:	000a0513          	mv	a0,s4
200031f8:	c79ff0ef          	jal	20002e70 <_printf_common>
200031fc:	fff00993          	li	s3,-1
20003200:	13351c63          	bne	a0,s3,20003338 <_printf_i+0x314>
20003204:	fff00513          	li	a0,-1
20003208:	03c12083          	lw	ra,60(sp)
2000320c:	03812403          	lw	s0,56(sp)
20003210:	03412483          	lw	s1,52(sp)
20003214:	03012903          	lw	s2,48(sp)
20003218:	02c12983          	lw	s3,44(sp)
2000321c:	02812a03          	lw	s4,40(sp)
20003220:	02412a83          	lw	s5,36(sp)
20003224:	04010113          	addi	sp,sp,64
20003228:	00008067          	ret
2000322c:	00042783          	lw	a5,0(s0)
20003230:	0207e793          	ori	a5,a5,32
20003234:	00f42023          	sw	a5,0(s0)
20003238:	200056b7          	lui	a3,0x20005
2000323c:	07800793          	li	a5,120
20003240:	93068693          	addi	a3,a3,-1744 # 20004930 <__clz_tab+0x128>
20003244:	04f402a3          	sb	a5,69(s0)
20003248:	00042583          	lw	a1,0(s0)
2000324c:	00072503          	lw	a0,0(a4)
20003250:	0805f813          	andi	a6,a1,128
20003254:	00052783          	lw	a5,0(a0)
20003258:	00450513          	addi	a0,a0,4
2000325c:	00081a63          	bnez	a6,20003270 <_printf_i+0x24c>
20003260:	0405f813          	andi	a6,a1,64
20003264:	00080663          	beqz	a6,20003270 <_printf_i+0x24c>
20003268:	01079793          	slli	a5,a5,0x10
2000326c:	0107d793          	srli	a5,a5,0x10
20003270:	00a72023          	sw	a0,0(a4)
20003274:	0015f713          	andi	a4,a1,1
20003278:	00070663          	beqz	a4,20003284 <_printf_i+0x260>
2000327c:	0205e593          	ori	a1,a1,32
20003280:	00b42023          	sw	a1,0(s0)
20003284:	00078c63          	beqz	a5,2000329c <_printf_i+0x278>
20003288:	01000713          	li	a4,16
2000328c:	ed9ff06f          	j	20003164 <_printf_i+0x140>
20003290:	200056b7          	lui	a3,0x20005
20003294:	91c68693          	addi	a3,a3,-1764 # 2000491c <__clz_tab+0x114>
20003298:	fadff06f          	j	20003244 <_printf_i+0x220>
2000329c:	00042703          	lw	a4,0(s0)
200032a0:	fdf77713          	andi	a4,a4,-33
200032a4:	00e42023          	sw	a4,0(s0)
200032a8:	fe1ff06f          	j	20003288 <_printf_i+0x264>
200032ac:	00a00713          	li	a4,10
200032b0:	eb5ff06f          	j	20003164 <_printf_i+0x140>
200032b4:	00042683          	lw	a3,0(s0)
200032b8:	00072783          	lw	a5,0(a4)
200032bc:	01442583          	lw	a1,20(s0)
200032c0:	0806f813          	andi	a6,a3,128
200032c4:	00478513          	addi	a0,a5,4
200032c8:	00080a63          	beqz	a6,200032dc <_printf_i+0x2b8>
200032cc:	00a72023          	sw	a0,0(a4)
200032d0:	0007a783          	lw	a5,0(a5)
200032d4:	00b7a023          	sw	a1,0(a5)
200032d8:	0180006f          	j	200032f0 <_printf_i+0x2cc>
200032dc:	00a72023          	sw	a0,0(a4)
200032e0:	0406f693          	andi	a3,a3,64
200032e4:	0007a783          	lw	a5,0(a5)
200032e8:	fe0686e3          	beqz	a3,200032d4 <_printf_i+0x2b0>
200032ec:	00b79023          	sh	a1,0(a5)
200032f0:	00042823          	sw	zero,16(s0)
200032f4:	00060913          	mv	s2,a2
200032f8:	eedff06f          	j	200031e4 <_printf_i+0x1c0>
200032fc:	00072783          	lw	a5,0(a4)
20003300:	00442603          	lw	a2,4(s0)
20003304:	00000593          	li	a1,0
20003308:	00478693          	addi	a3,a5,4
2000330c:	00d72023          	sw	a3,0(a4)
20003310:	0007a903          	lw	s2,0(a5)
20003314:	00090513          	mv	a0,s2
20003318:	7ad000ef          	jal	200042c4 <memchr>
2000331c:	00050663          	beqz	a0,20003328 <_printf_i+0x304>
20003320:	41250533          	sub	a0,a0,s2
20003324:	00a42223          	sw	a0,4(s0)
20003328:	00442783          	lw	a5,4(s0)
2000332c:	00f42823          	sw	a5,16(s0)
20003330:	040401a3          	sb	zero,67(s0)
20003334:	eb1ff06f          	j	200031e4 <_printf_i+0x1c0>
20003338:	01042683          	lw	a3,16(s0)
2000333c:	00090613          	mv	a2,s2
20003340:	000a8593          	mv	a1,s5
20003344:	000a0513          	mv	a0,s4
20003348:	000480e7          	jalr	s1
2000334c:	eb350ce3          	beq	a0,s3,20003204 <_printf_i+0x1e0>
20003350:	00042783          	lw	a5,0(s0)
20003354:	0027f793          	andi	a5,a5,2
20003358:	04079663          	bnez	a5,200033a4 <_printf_i+0x380>
2000335c:	01c12783          	lw	a5,28(sp)
20003360:	00c42503          	lw	a0,12(s0)
20003364:	eaf552e3          	bge	a0,a5,20003208 <_printf_i+0x1e4>
20003368:	00078513          	mv	a0,a5
2000336c:	e9dff06f          	j	20003208 <_printf_i+0x1e4>
20003370:	00100693          	li	a3,1
20003374:	000a8593          	mv	a1,s5
20003378:	000a0513          	mv	a0,s4
2000337c:	00c12623          	sw	a2,12(sp)
20003380:	000480e7          	jalr	s1
20003384:	e93500e3          	beq	a0,s3,20003204 <_printf_i+0x1e0>
20003388:	00c12603          	lw	a2,12(sp)
2000338c:	00190913          	addi	s2,s2,1
20003390:	00c42783          	lw	a5,12(s0)
20003394:	01c12703          	lw	a4,28(sp)
20003398:	40e787b3          	sub	a5,a5,a4
2000339c:	fcf94ae3          	blt	s2,a5,20003370 <_printf_i+0x34c>
200033a0:	fbdff06f          	j	2000335c <_printf_i+0x338>
200033a4:	00000913          	li	s2,0
200033a8:	01940613          	addi	a2,s0,25
200033ac:	fe5ff06f          	j	20003390 <_printf_i+0x36c>

200033b0 <__sflush_r>:
200033b0:	00c59783          	lh	a5,12(a1)
200033b4:	fe010113          	addi	sp,sp,-32
200033b8:	00812c23          	sw	s0,24(sp)
200033bc:	00912a23          	sw	s1,20(sp)
200033c0:	00112e23          	sw	ra,28(sp)
200033c4:	01212823          	sw	s2,16(sp)
200033c8:	0087f713          	andi	a4,a5,8
200033cc:	00050493          	mv	s1,a0
200033d0:	00058413          	mv	s0,a1
200033d4:	12071263          	bnez	a4,200034f8 <__sflush_r+0x148>
200033d8:	0045a703          	lw	a4,4(a1)
200033dc:	00e04663          	bgtz	a4,200033e8 <__sflush_r+0x38>
200033e0:	0405a703          	lw	a4,64(a1)
200033e4:	10e05663          	blez	a4,200034f0 <__sflush_r+0x140>
200033e8:	02c42703          	lw	a4,44(s0)
200033ec:	10070263          	beqz	a4,200034f0 <__sflush_r+0x140>
200033f0:	0004a903          	lw	s2,0(s1)
200033f4:	01379693          	slli	a3,a5,0x13
200033f8:	0004a023          	sw	zero,0(s1)
200033fc:	0a06dc63          	bgez	a3,200034b4 <__sflush_r+0x104>
20003400:	05442603          	lw	a2,84(s0)
20003404:	00c45783          	lhu	a5,12(s0)
20003408:	0047f793          	andi	a5,a5,4
2000340c:	00078e63          	beqz	a5,20003428 <__sflush_r+0x78>
20003410:	00442783          	lw	a5,4(s0)
20003414:	40f60633          	sub	a2,a2,a5
20003418:	03442783          	lw	a5,52(s0)
2000341c:	00078663          	beqz	a5,20003428 <__sflush_r+0x78>
20003420:	04042783          	lw	a5,64(s0)
20003424:	40f60633          	sub	a2,a2,a5
20003428:	02c42783          	lw	a5,44(s0)
2000342c:	02042583          	lw	a1,32(s0)
20003430:	00000693          	li	a3,0
20003434:	00048513          	mv	a0,s1
20003438:	000780e7          	jalr	a5
2000343c:	fff00713          	li	a4,-1
20003440:	00c41783          	lh	a5,12(s0)
20003444:	02e51263          	bne	a0,a4,20003468 <__sflush_r+0xb8>
20003448:	0004a683          	lw	a3,0(s1)
2000344c:	01d00713          	li	a4,29
20003450:	0ed76c63          	bltu	a4,a3,20003548 <__sflush_r+0x198>
20003454:	20400737          	lui	a4,0x20400
20003458:	00170713          	addi	a4,a4,1 # 20400001 <__stack_top+0x3fa59d>
2000345c:	00d75733          	srl	a4,a4,a3
20003460:	00177713          	andi	a4,a4,1
20003464:	0e070263          	beqz	a4,20003548 <__sflush_r+0x198>
20003468:	01042703          	lw	a4,16(s0)
2000346c:	00042223          	sw	zero,4(s0)
20003470:	00e42023          	sw	a4,0(s0)
20003474:	01379713          	slli	a4,a5,0x13
20003478:	00075c63          	bgez	a4,20003490 <__sflush_r+0xe0>
2000347c:	fff00793          	li	a5,-1
20003480:	00f51663          	bne	a0,a5,2000348c <__sflush_r+0xdc>
20003484:	0004a783          	lw	a5,0(s1)
20003488:	00079463          	bnez	a5,20003490 <__sflush_r+0xe0>
2000348c:	04a42a23          	sw	a0,84(s0)
20003490:	03442583          	lw	a1,52(s0)
20003494:	0124a023          	sw	s2,0(s1)
20003498:	04058c63          	beqz	a1,200034f0 <__sflush_r+0x140>
2000349c:	04440793          	addi	a5,s0,68
200034a0:	00f58663          	beq	a1,a5,200034ac <__sflush_r+0xfc>
200034a4:	00048513          	mv	a0,s1
200034a8:	9dcff0ef          	jal	20002684 <_free_r>
200034ac:	02042a23          	sw	zero,52(s0)
200034b0:	0400006f          	j	200034f0 <__sflush_r+0x140>
200034b4:	02042583          	lw	a1,32(s0)
200034b8:	00000613          	li	a2,0
200034bc:	00100693          	li	a3,1
200034c0:	00048513          	mv	a0,s1
200034c4:	000700e7          	jalr	a4
200034c8:	fff00793          	li	a5,-1
200034cc:	00050613          	mv	a2,a0
200034d0:	f2f51ae3          	bne	a0,a5,20003404 <__sflush_r+0x54>
200034d4:	0004a783          	lw	a5,0(s1)
200034d8:	f20786e3          	beqz	a5,20003404 <__sflush_r+0x54>
200034dc:	fe378713          	addi	a4,a5,-29
200034e0:	00070663          	beqz	a4,200034ec <__sflush_r+0x13c>
200034e4:	fea78793          	addi	a5,a5,-22
200034e8:	04079e63          	bnez	a5,20003544 <__sflush_r+0x194>
200034ec:	0124a023          	sw	s2,0(s1)
200034f0:	00000513          	li	a0,0
200034f4:	0600006f          	j	20003554 <__sflush_r+0x1a4>
200034f8:	0105a603          	lw	a2,16(a1)
200034fc:	fe060ae3          	beqz	a2,200034f0 <__sflush_r+0x140>
20003500:	0005a683          	lw	a3,0(a1)
20003504:	0037f793          	andi	a5,a5,3
20003508:	00c5a023          	sw	a2,0(a1)
2000350c:	40c68933          	sub	s2,a3,a2
20003510:	00000713          	li	a4,0
20003514:	00079463          	bnez	a5,2000351c <__sflush_r+0x16c>
20003518:	0145a703          	lw	a4,20(a1)
2000351c:	00e42423          	sw	a4,8(s0)
20003520:	fd2058e3          	blez	s2,200034f0 <__sflush_r+0x140>
20003524:	02842783          	lw	a5,40(s0)
20003528:	02042583          	lw	a1,32(s0)
2000352c:	00090693          	mv	a3,s2
20003530:	00048513          	mv	a0,s1
20003534:	00c12623          	sw	a2,12(sp)
20003538:	000780e7          	jalr	a5
2000353c:	00c12603          	lw	a2,12(sp)
20003540:	02a04663          	bgtz	a0,2000356c <__sflush_r+0x1bc>
20003544:	00c45783          	lhu	a5,12(s0)
20003548:	0407e793          	ori	a5,a5,64
2000354c:	00f41623          	sh	a5,12(s0)
20003550:	fff00513          	li	a0,-1
20003554:	01c12083          	lw	ra,28(sp)
20003558:	01812403          	lw	s0,24(sp)
2000355c:	01412483          	lw	s1,20(sp)
20003560:	01012903          	lw	s2,16(sp)
20003564:	02010113          	addi	sp,sp,32
20003568:	00008067          	ret
2000356c:	00a60633          	add	a2,a2,a0
20003570:	40a90933          	sub	s2,s2,a0
20003574:	fadff06f          	j	20003520 <__sflush_r+0x170>

20003578 <_fflush_r>:
20003578:	0105a783          	lw	a5,16(a1)
2000357c:	04078e63          	beqz	a5,200035d8 <_fflush_r+0x60>
20003580:	fe010113          	addi	sp,sp,-32
20003584:	00812c23          	sw	s0,24(sp)
20003588:	00112e23          	sw	ra,28(sp)
2000358c:	00050413          	mv	s0,a0
20003590:	00050c63          	beqz	a0,200035a8 <_fflush_r+0x30>
20003594:	02052783          	lw	a5,32(a0)
20003598:	00079863          	bnez	a5,200035a8 <_fflush_r+0x30>
2000359c:	00b12623          	sw	a1,12(sp)
200035a0:	2fc000ef          	jal	2000389c <__sinit>
200035a4:	00c12583          	lw	a1,12(sp)
200035a8:	00c59783          	lh	a5,12(a1)
200035ac:	00078c63          	beqz	a5,200035c4 <_fflush_r+0x4c>
200035b0:	00040513          	mv	a0,s0
200035b4:	01812403          	lw	s0,24(sp)
200035b8:	01c12083          	lw	ra,28(sp)
200035bc:	02010113          	addi	sp,sp,32
200035c0:	df1ff06f          	j	200033b0 <__sflush_r>
200035c4:	01c12083          	lw	ra,28(sp)
200035c8:	01812403          	lw	s0,24(sp)
200035cc:	00000513          	li	a0,0
200035d0:	02010113          	addi	sp,sp,32
200035d4:	00008067          	ret
200035d8:	00000513          	li	a0,0
200035dc:	00008067          	ret

200035e0 <fflush>:
200035e0:	00050593          	mv	a1,a0
200035e4:	02051063          	bnez	a0,20003604 <fflush+0x24>
200035e8:	20005637          	lui	a2,0x20005
200035ec:	200035b7          	lui	a1,0x20003
200035f0:	20005537          	lui	a0,0x20005
200035f4:	cf460613          	addi	a2,a2,-780 # 20004cf4 <__sglue>
200035f8:	57858593          	addi	a1,a1,1400 # 20003578 <_fflush_r>
200035fc:	ca850513          	addi	a0,a0,-856 # 20004ca8 <_impure_data>
20003600:	75c0006f          	j	20003d5c <_fwalk_sglue>
20003604:	200057b7          	lui	a5,0x20005
20003608:	d007a503          	lw	a0,-768(a5) # 20004d00 <_impure_ptr>
2000360c:	f6dff06f          	j	20003578 <_fflush_r>

20003610 <__fp_lock>:
20003610:	00000513          	li	a0,0
20003614:	00008067          	ret

20003618 <std>:
20003618:	ff010113          	addi	sp,sp,-16
2000361c:	00812423          	sw	s0,8(sp)
20003620:	00112623          	sw	ra,12(sp)
20003624:	00050413          	mv	s0,a0
20003628:	00b51623          	sh	a1,12(a0)
2000362c:	00c51723          	sh	a2,14(a0)
20003630:	00052023          	sw	zero,0(a0)
20003634:	00052223          	sw	zero,4(a0)
20003638:	00052423          	sw	zero,8(a0)
2000363c:	06052223          	sw	zero,100(a0)
20003640:	00052823          	sw	zero,16(a0)
20003644:	00052a23          	sw	zero,20(a0)
20003648:	00052c23          	sw	zero,24(a0)
2000364c:	00800613          	li	a2,8
20003650:	00000593          	li	a1,0
20003654:	05c50513          	addi	a0,a0,92
20003658:	078010ef          	jal	200046d0 <memset>
2000365c:	200047b7          	lui	a5,0x20004
20003660:	f5c78793          	addi	a5,a5,-164 # 20003f5c <__sread>
20003664:	02f42223          	sw	a5,36(s0)
20003668:	200047b7          	lui	a5,0x20004
2000366c:	fb478793          	addi	a5,a5,-76 # 20003fb4 <__swrite>
20003670:	02f42423          	sw	a5,40(s0)
20003674:	200047b7          	lui	a5,0x20004
20003678:	03878793          	addi	a5,a5,56 # 20004038 <__sseek>
2000367c:	02f42623          	sw	a5,44(s0)
20003680:	200047b7          	lui	a5,0x20004
20003684:	09078793          	addi	a5,a5,144 # 20004090 <__sclose>
20003688:	00c12083          	lw	ra,12(sp)
2000368c:	02842023          	sw	s0,32(s0)
20003690:	02f42823          	sw	a5,48(s0)
20003694:	00812403          	lw	s0,8(sp)
20003698:	01010113          	addi	sp,sp,16
2000369c:	00008067          	ret

200036a0 <stdio_exit_handler>:
200036a0:	20005637          	lui	a2,0x20005
200036a4:	200035b7          	lui	a1,0x20003
200036a8:	20005537          	lui	a0,0x20005
200036ac:	cf460613          	addi	a2,a2,-780 # 20004cf4 <__sglue>
200036b0:	57858593          	addi	a1,a1,1400 # 20003578 <_fflush_r>
200036b4:	ca850513          	addi	a0,a0,-856 # 20004ca8 <_impure_data>
200036b8:	6a40006f          	j	20003d5c <_fwalk_sglue>

200036bc <cleanup_stdio>:
200036bc:	00452583          	lw	a1,4(a0)
200036c0:	ff010113          	addi	sp,sp,-16
200036c4:	200057b7          	lui	a5,0x20005
200036c8:	00812423          	sw	s0,8(sp)
200036cc:	00112623          	sw	ra,12(sp)
200036d0:	d1478793          	addi	a5,a5,-748 # 20004d14 <__sf>
200036d4:	00050413          	mv	s0,a0
200036d8:	00f58463          	beq	a1,a5,200036e0 <cleanup_stdio+0x24>
200036dc:	e9dff0ef          	jal	20003578 <_fflush_r>
200036e0:	00842583          	lw	a1,8(s0)
200036e4:	200057b7          	lui	a5,0x20005
200036e8:	d7c78793          	addi	a5,a5,-644 # 20004d7c <__sf+0x68>
200036ec:	00f58663          	beq	a1,a5,200036f8 <cleanup_stdio+0x3c>
200036f0:	00040513          	mv	a0,s0
200036f4:	e85ff0ef          	jal	20003578 <_fflush_r>
200036f8:	00c42583          	lw	a1,12(s0)
200036fc:	200057b7          	lui	a5,0x20005
20003700:	de478793          	addi	a5,a5,-540 # 20004de4 <__sf+0xd0>
20003704:	00f58c63          	beq	a1,a5,2000371c <cleanup_stdio+0x60>
20003708:	00040513          	mv	a0,s0
2000370c:	00812403          	lw	s0,8(sp)
20003710:	00c12083          	lw	ra,12(sp)
20003714:	01010113          	addi	sp,sp,16
20003718:	e61ff06f          	j	20003578 <_fflush_r>
2000371c:	00c12083          	lw	ra,12(sp)
20003720:	00812403          	lw	s0,8(sp)
20003724:	01010113          	addi	sp,sp,16
20003728:	00008067          	ret

2000372c <global_stdio_init.part.0>:
2000372c:	200037b7          	lui	a5,0x20003
20003730:	20005537          	lui	a0,0x20005
20003734:	ff010113          	addi	sp,sp,-16
20003738:	20005737          	lui	a4,0x20005
2000373c:	6a078793          	addi	a5,a5,1696 # 200036a0 <stdio_exit_handler>
20003740:	00000613          	li	a2,0
20003744:	00400593          	li	a1,4
20003748:	d1450513          	addi	a0,a0,-748 # 20004d14 <__sf>
2000374c:	00112623          	sw	ra,12(sp)
20003750:	e4f72e23          	sw	a5,-420(a4) # 20004e5c <__stdio_exit_handler>
20003754:	ec5ff0ef          	jal	20003618 <std>
20003758:	20005537          	lui	a0,0x20005
2000375c:	00100613          	li	a2,1
20003760:	00900593          	li	a1,9
20003764:	d7c50513          	addi	a0,a0,-644 # 20004d7c <__sf+0x68>
20003768:	eb1ff0ef          	jal	20003618 <std>
2000376c:	00c12083          	lw	ra,12(sp)
20003770:	20005537          	lui	a0,0x20005
20003774:	00200613          	li	a2,2
20003778:	01200593          	li	a1,18
2000377c:	de450513          	addi	a0,a0,-540 # 20004de4 <__sf+0xd0>
20003780:	01010113          	addi	sp,sp,16
20003784:	e95ff06f          	j	20003618 <std>

20003788 <__fp_unlock>:
20003788:	00000513          	li	a0,0
2000378c:	00008067          	ret

20003790 <__sfp>:
20003790:	200057b7          	lui	a5,0x20005
20003794:	e5c7a783          	lw	a5,-420(a5) # 20004e5c <__stdio_exit_handler>
20003798:	ff010113          	addi	sp,sp,-16
2000379c:	01212023          	sw	s2,0(sp)
200037a0:	00112623          	sw	ra,12(sp)
200037a4:	00812423          	sw	s0,8(sp)
200037a8:	00912223          	sw	s1,4(sp)
200037ac:	00050913          	mv	s2,a0
200037b0:	00079463          	bnez	a5,200037b8 <__sfp+0x28>
200037b4:	f79ff0ef          	jal	2000372c <global_stdio_init.part.0>
200037b8:	200054b7          	lui	s1,0x20005
200037bc:	cf448493          	addi	s1,s1,-780 # 20004cf4 <__sglue>
200037c0:	0084a403          	lw	s0,8(s1)
200037c4:	0044a783          	lw	a5,4(s1)
200037c8:	fff78793          	addi	a5,a5,-1
200037cc:	0207d863          	bgez	a5,200037fc <__sfp+0x6c>
200037d0:	0004a403          	lw	s0,0(s1)
200037d4:	0c041063          	bnez	s0,20003894 <__sfp+0x104>
200037d8:	1ac00593          	li	a1,428
200037dc:	00090513          	mv	a0,s2
200037e0:	848ff0ef          	jal	20002828 <_malloc_r>
200037e4:	00050413          	mv	s0,a0
200037e8:	08051463          	bnez	a0,20003870 <__sfp+0xe0>
200037ec:	0004a023          	sw	zero,0(s1)
200037f0:	00c00793          	li	a5,12
200037f4:	00f92023          	sw	a5,0(s2)
200037f8:	0540006f          	j	2000384c <__sfp+0xbc>
200037fc:	00c41703          	lh	a4,12(s0)
20003800:	06071463          	bnez	a4,20003868 <__sfp+0xd8>
20003804:	ffff07b7          	lui	a5,0xffff0
20003808:	00178793          	addi	a5,a5,1 # ffff0001 <__stack_top+0xdffea59d>
2000380c:	06042223          	sw	zero,100(s0)
20003810:	00042023          	sw	zero,0(s0)
20003814:	00042223          	sw	zero,4(s0)
20003818:	00042423          	sw	zero,8(s0)
2000381c:	00f42623          	sw	a5,12(s0)
20003820:	00042823          	sw	zero,16(s0)
20003824:	00042a23          	sw	zero,20(s0)
20003828:	00042c23          	sw	zero,24(s0)
2000382c:	00800613          	li	a2,8
20003830:	00000593          	li	a1,0
20003834:	05c40513          	addi	a0,s0,92
20003838:	699000ef          	jal	200046d0 <memset>
2000383c:	02042a23          	sw	zero,52(s0)
20003840:	02042c23          	sw	zero,56(s0)
20003844:	04042423          	sw	zero,72(s0)
20003848:	04042623          	sw	zero,76(s0)
2000384c:	00c12083          	lw	ra,12(sp)
20003850:	00040513          	mv	a0,s0
20003854:	00812403          	lw	s0,8(sp)
20003858:	00412483          	lw	s1,4(sp)
2000385c:	00012903          	lw	s2,0(sp)
20003860:	01010113          	addi	sp,sp,16
20003864:	00008067          	ret
20003868:	06840413          	addi	s0,s0,104
2000386c:	f5dff06f          	j	200037c8 <__sfp+0x38>
20003870:	00400793          	li	a5,4
20003874:	00052023          	sw	zero,0(a0)
20003878:	00f52223          	sw	a5,4(a0)
2000387c:	00c50513          	addi	a0,a0,12
20003880:	00a42423          	sw	a0,8(s0)
20003884:	1a000613          	li	a2,416
20003888:	00000593          	li	a1,0
2000388c:	645000ef          	jal	200046d0 <memset>
20003890:	0084a023          	sw	s0,0(s1)
20003894:	00040493          	mv	s1,s0
20003898:	f29ff06f          	j	200037c0 <__sfp+0x30>

2000389c <__sinit>:
2000389c:	02052783          	lw	a5,32(a0)
200038a0:	02079063          	bnez	a5,200038c0 <__sinit+0x24>
200038a4:	200037b7          	lui	a5,0x20003
200038a8:	6bc78793          	addi	a5,a5,1724 # 200036bc <cleanup_stdio>
200038ac:	02f52023          	sw	a5,32(a0)
200038b0:	200057b7          	lui	a5,0x20005
200038b4:	e5c7a783          	lw	a5,-420(a5) # 20004e5c <__stdio_exit_handler>
200038b8:	00079463          	bnez	a5,200038c0 <__sinit+0x24>
200038bc:	e71ff06f          	j	2000372c <global_stdio_init.part.0>
200038c0:	00008067          	ret

200038c4 <__sfp_lock_acquire>:
200038c4:	00008067          	ret

200038c8 <__sfp_lock_release>:
200038c8:	00008067          	ret

200038cc <__fp_lock_all>:
200038cc:	20005637          	lui	a2,0x20005
200038d0:	200035b7          	lui	a1,0x20003
200038d4:	cf460613          	addi	a2,a2,-780 # 20004cf4 <__sglue>
200038d8:	61058593          	addi	a1,a1,1552 # 20003610 <__fp_lock>
200038dc:	00000513          	li	a0,0
200038e0:	47c0006f          	j	20003d5c <_fwalk_sglue>

200038e4 <__fp_unlock_all>:
200038e4:	20005637          	lui	a2,0x20005
200038e8:	200035b7          	lui	a1,0x20003
200038ec:	cf460613          	addi	a2,a2,-780 # 20004cf4 <__sglue>
200038f0:	78858593          	addi	a1,a1,1928 # 20003788 <__fp_unlock>
200038f4:	00000513          	li	a0,0
200038f8:	4640006f          	j	20003d5c <_fwalk_sglue>

200038fc <__sfvwrite_r>:
200038fc:	00862783          	lw	a5,8(a2)
20003900:	04079663          	bnez	a5,2000394c <__sfvwrite_r+0x50>
20003904:	00000513          	li	a0,0
20003908:	00008067          	ret
2000390c:	00000513          	li	a0,0
20003910:	03c12083          	lw	ra,60(sp)
20003914:	03812403          	lw	s0,56(sp)
20003918:	03412483          	lw	s1,52(sp)
2000391c:	03012903          	lw	s2,48(sp)
20003920:	02c12983          	lw	s3,44(sp)
20003924:	02812a03          	lw	s4,40(sp)
20003928:	02412a83          	lw	s5,36(sp)
2000392c:	02012b03          	lw	s6,32(sp)
20003930:	01c12b83          	lw	s7,28(sp)
20003934:	01812c03          	lw	s8,24(sp)
20003938:	01412c83          	lw	s9,20(sp)
2000393c:	01012d03          	lw	s10,16(sp)
20003940:	00c12d83          	lw	s11,12(sp)
20003944:	04010113          	addi	sp,sp,64
20003948:	00008067          	ret
2000394c:	00c5d783          	lhu	a5,12(a1)
20003950:	fc010113          	addi	sp,sp,-64
20003954:	02812c23          	sw	s0,56(sp)
20003958:	03312623          	sw	s3,44(sp)
2000395c:	03512223          	sw	s5,36(sp)
20003960:	02112e23          	sw	ra,60(sp)
20003964:	02912a23          	sw	s1,52(sp)
20003968:	03212823          	sw	s2,48(sp)
2000396c:	03412423          	sw	s4,40(sp)
20003970:	03612023          	sw	s6,32(sp)
20003974:	01712e23          	sw	s7,28(sp)
20003978:	01812c23          	sw	s8,24(sp)
2000397c:	01912a23          	sw	s9,20(sp)
20003980:	01a12823          	sw	s10,16(sp)
20003984:	01b12623          	sw	s11,12(sp)
20003988:	0087f793          	andi	a5,a5,8
2000398c:	00060a93          	mv	s5,a2
20003990:	00058413          	mv	s0,a1
20003994:	00050993          	mv	s3,a0
20003998:	0e078263          	beqz	a5,20003a7c <__sfvwrite_r+0x180>
2000399c:	0105a783          	lw	a5,16(a1)
200039a0:	0c078e63          	beqz	a5,20003a7c <__sfvwrite_r+0x180>
200039a4:	00c41783          	lh	a5,12(s0)
200039a8:	000aaa03          	lw	s4,0(s5)
200039ac:	0027f713          	andi	a4,a5,2
200039b0:	12071c63          	bnez	a4,20003ae8 <__sfvwrite_r+0x1ec>
200039b4:	0017f793          	andi	a5,a5,1
200039b8:	1c078c63          	beqz	a5,20003b90 <__sfvwrite_r+0x294>
200039bc:	00000b93          	li	s7,0
200039c0:	00000513          	li	a0,0
200039c4:	00000b13          	li	s6,0
200039c8:	00000913          	li	s2,0
200039cc:	32090663          	beqz	s2,20003cf8 <__sfvwrite_r+0x3fc>
200039d0:	02051263          	bnez	a0,200039f4 <__sfvwrite_r+0xf8>
200039d4:	00090613          	mv	a2,s2
200039d8:	00a00593          	li	a1,10
200039dc:	000b0513          	mv	a0,s6
200039e0:	0e5000ef          	jal	200042c4 <memchr>
200039e4:	00190b93          	addi	s7,s2,1
200039e8:	00050663          	beqz	a0,200039f4 <__sfvwrite_r+0xf8>
200039ec:	00150513          	addi	a0,a0,1
200039f0:	41650bb3          	sub	s7,a0,s6
200039f4:	000b8c13          	mv	s8,s7
200039f8:	01797463          	bgeu	s2,s7,20003a00 <__sfvwrite_r+0x104>
200039fc:	00090c13          	mv	s8,s2
20003a00:	01442683          	lw	a3,20(s0)
20003a04:	00842483          	lw	s1,8(s0)
20003a08:	00042503          	lw	a0,0(s0)
20003a0c:	01042783          	lw	a5,16(s0)
20003a10:	009684b3          	add	s1,a3,s1
20003a14:	2ea7fc63          	bgeu	a5,a0,20003d0c <__sfvwrite_r+0x410>
20003a18:	2f84da63          	bge	s1,s8,20003d0c <__sfvwrite_r+0x410>
20003a1c:	000b0593          	mv	a1,s6
20003a20:	00048613          	mv	a2,s1
20003a24:	471000ef          	jal	20004694 <memmove>
20003a28:	00042783          	lw	a5,0(s0)
20003a2c:	00040593          	mv	a1,s0
20003a30:	00098513          	mv	a0,s3
20003a34:	009787b3          	add	a5,a5,s1
20003a38:	00f42023          	sw	a5,0(s0)
20003a3c:	b3dff0ef          	jal	20003578 <_fflush_r>
20003a40:	14051063          	bnez	a0,20003b80 <__sfvwrite_r+0x284>
20003a44:	409b8bb3          	sub	s7,s7,s1
20003a48:	00100513          	li	a0,1
20003a4c:	000b9a63          	bnez	s7,20003a60 <__sfvwrite_r+0x164>
20003a50:	00040593          	mv	a1,s0
20003a54:	00098513          	mv	a0,s3
20003a58:	b21ff0ef          	jal	20003578 <_fflush_r>
20003a5c:	12051263          	bnez	a0,20003b80 <__sfvwrite_r+0x284>
20003a60:	008aa783          	lw	a5,8(s5)
20003a64:	409787b3          	sub	a5,a5,s1
20003a68:	00faa423          	sw	a5,8(s5)
20003a6c:	ea0780e3          	beqz	a5,2000390c <__sfvwrite_r+0x10>
20003a70:	009b0b33          	add	s6,s6,s1
20003a74:	40990933          	sub	s2,s2,s1
20003a78:	f55ff06f          	j	200039cc <__sfvwrite_r+0xd0>
20003a7c:	00040593          	mv	a1,s0
20003a80:	00098513          	mv	a0,s3
20003a84:	724000ef          	jal	200041a8 <__swsetup_r>
20003a88:	f0050ee3          	beqz	a0,200039a4 <__sfvwrite_r+0xa8>
20003a8c:	fff00513          	li	a0,-1
20003a90:	e81ff06f          	j	20003910 <__sfvwrite_r+0x14>
20003a94:	000a2903          	lw	s2,0(s4)
20003a98:	004a2483          	lw	s1,4(s4)
20003a9c:	008a0a13          	addi	s4,s4,8
20003aa0:	fe048ae3          	beqz	s1,20003a94 <__sfvwrite_r+0x198>
20003aa4:	00048693          	mv	a3,s1
20003aa8:	009b7663          	bgeu	s6,s1,20003ab4 <__sfvwrite_r+0x1b8>
20003aac:	800006b7          	lui	a3,0x80000
20003ab0:	c0068693          	addi	a3,a3,-1024 # 7ffffc00 <__stack_top+0x5fffa19c>
20003ab4:	02842783          	lw	a5,40(s0)
20003ab8:	02042583          	lw	a1,32(s0)
20003abc:	00090613          	mv	a2,s2
20003ac0:	00098513          	mv	a0,s3
20003ac4:	000780e7          	jalr	a5
20003ac8:	0aa05c63          	blez	a0,20003b80 <__sfvwrite_r+0x284>
20003acc:	008aa783          	lw	a5,8(s5)
20003ad0:	40a787b3          	sub	a5,a5,a0
20003ad4:	00faa423          	sw	a5,8(s5)
20003ad8:	e2078ae3          	beqz	a5,2000390c <__sfvwrite_r+0x10>
20003adc:	00a90933          	add	s2,s2,a0
20003ae0:	40a484b3          	sub	s1,s1,a0
20003ae4:	fbdff06f          	j	20003aa0 <__sfvwrite_r+0x1a4>
20003ae8:	80000b37          	lui	s6,0x80000
20003aec:	00000913          	li	s2,0
20003af0:	00000493          	li	s1,0
20003af4:	c00b0b13          	addi	s6,s6,-1024 # 7ffffc00 <__stack_top+0x5fffa19c>
20003af8:	fa9ff06f          	j	20003aa0 <__sfvwrite_r+0x1a4>
20003afc:	000a2b03          	lw	s6,0(s4)
20003b00:	004a2483          	lw	s1,4(s4)
20003b04:	008a0a13          	addi	s4,s4,8
20003b08:	fe048ae3          	beqz	s1,20003afc <__sfvwrite_r+0x200>
20003b0c:	00c41783          	lh	a5,12(s0)
20003b10:	00842d03          	lw	s10,8(s0)
20003b14:	00042503          	lw	a0,0(s0)
20003b18:	2007f713          	andi	a4,a5,512
20003b1c:	14070863          	beqz	a4,20003c6c <__sfvwrite_r+0x370>
20003b20:	000d0d93          	mv	s11,s10
20003b24:	13a4ec63          	bltu	s1,s10,20003c5c <__sfvwrite_r+0x360>
20003b28:	4807f713          	andi	a4,a5,1152
20003b2c:	12070c63          	beqz	a4,20003c64 <__sfvwrite_r+0x368>
20003b30:	01442903          	lw	s2,20(s0)
20003b34:	01042583          	lw	a1,16(s0)
20003b38:	03890933          	mul	s2,s2,s8
20003b3c:	40b50db3          	sub	s11,a0,a1
20003b40:	001d8713          	addi	a4,s11,1
20003b44:	00970733          	add	a4,a4,s1
20003b48:	03994933          	div	s2,s2,s9
20003b4c:	00090613          	mv	a2,s2
20003b50:	00e97663          	bgeu	s2,a4,20003b5c <__sfvwrite_r+0x260>
20003b54:	00070913          	mv	s2,a4
20003b58:	00070613          	mv	a2,a4
20003b5c:	4007f793          	andi	a5,a5,1024
20003b60:	0c078863          	beqz	a5,20003c30 <__sfvwrite_r+0x334>
20003b64:	00060593          	mv	a1,a2
20003b68:	00098513          	mv	a0,s3
20003b6c:	cbdfe0ef          	jal	20002828 <_malloc_r>
20003b70:	00050d13          	mv	s10,a0
20003b74:	02051c63          	bnez	a0,20003bac <__sfvwrite_r+0x2b0>
20003b78:	00c00793          	li	a5,12
20003b7c:	00f9a023          	sw	a5,0(s3)
20003b80:	00c45783          	lhu	a5,12(s0)
20003b84:	0407e793          	ori	a5,a5,64
20003b88:	00f41623          	sh	a5,12(s0)
20003b8c:	f01ff06f          	j	20003a8c <__sfvwrite_r+0x190>
20003b90:	80000bb7          	lui	s7,0x80000
20003b94:	00000b13          	li	s6,0
20003b98:	00000493          	li	s1,0
20003b9c:	fffb8b93          	addi	s7,s7,-1 # 7fffffff <__stack_top+0x5fffa59b>
20003ba0:	00300c13          	li	s8,3
20003ba4:	00200c93          	li	s9,2
20003ba8:	f61ff06f          	j	20003b08 <__sfvwrite_r+0x20c>
20003bac:	01042583          	lw	a1,16(s0)
20003bb0:	000d8613          	mv	a2,s11
20003bb4:	339000ef          	jal	200046ec <memcpy>
20003bb8:	00c45783          	lhu	a5,12(s0)
20003bbc:	b7f7f793          	andi	a5,a5,-1153
20003bc0:	0807e793          	ori	a5,a5,128
20003bc4:	00f41623          	sh	a5,12(s0)
20003bc8:	01a42823          	sw	s10,16(s0)
20003bcc:	01242a23          	sw	s2,20(s0)
20003bd0:	01bd0d33          	add	s10,s10,s11
20003bd4:	41b90933          	sub	s2,s2,s11
20003bd8:	01a42023          	sw	s10,0(s0)
20003bdc:	01242423          	sw	s2,8(s0)
20003be0:	00048d13          	mv	s10,s1
20003be4:	00048913          	mv	s2,s1
20003be8:	00048d93          	mv	s11,s1
20003bec:	00042503          	lw	a0,0(s0)
20003bf0:	000d8613          	mv	a2,s11
20003bf4:	000b0593          	mv	a1,s6
20003bf8:	29d000ef          	jal	20004694 <memmove>
20003bfc:	00842783          	lw	a5,8(s0)
20003c00:	41a787b3          	sub	a5,a5,s10
20003c04:	00f42423          	sw	a5,8(s0)
20003c08:	00042783          	lw	a5,0(s0)
20003c0c:	01b787b3          	add	a5,a5,s11
20003c10:	00f42023          	sw	a5,0(s0)
20003c14:	008aa783          	lw	a5,8(s5)
20003c18:	412787b3          	sub	a5,a5,s2
20003c1c:	00faa423          	sw	a5,8(s5)
20003c20:	ce0786e3          	beqz	a5,2000390c <__sfvwrite_r+0x10>
20003c24:	012b0b33          	add	s6,s6,s2
20003c28:	412484b3          	sub	s1,s1,s2
20003c2c:	eddff06f          	j	20003b08 <__sfvwrite_r+0x20c>
20003c30:	00098513          	mv	a0,s3
20003c34:	2dd000ef          	jal	20004710 <_realloc_r>
20003c38:	00050d13          	mv	s10,a0
20003c3c:	f80516e3          	bnez	a0,20003bc8 <__sfvwrite_r+0x2cc>
20003c40:	01042583          	lw	a1,16(s0)
20003c44:	00098513          	mv	a0,s3
20003c48:	a3dfe0ef          	jal	20002684 <_free_r>
20003c4c:	00c45783          	lhu	a5,12(s0)
20003c50:	f7f7f793          	andi	a5,a5,-129
20003c54:	00f41623          	sh	a5,12(s0)
20003c58:	f21ff06f          	j	20003b78 <__sfvwrite_r+0x27c>
20003c5c:	00048d13          	mv	s10,s1
20003c60:	f85ff06f          	j	20003be4 <__sfvwrite_r+0x2e8>
20003c64:	00048913          	mv	s2,s1
20003c68:	f85ff06f          	j	20003bec <__sfvwrite_r+0x2f0>
20003c6c:	01042783          	lw	a5,16(s0)
20003c70:	00a7e663          	bltu	a5,a0,20003c7c <__sfvwrite_r+0x380>
20003c74:	01442683          	lw	a3,20(s0)
20003c78:	04d4f663          	bgeu	s1,a3,20003cc4 <__sfvwrite_r+0x3c8>
20003c7c:	000d0913          	mv	s2,s10
20003c80:	01a4f463          	bgeu	s1,s10,20003c88 <__sfvwrite_r+0x38c>
20003c84:	00048913          	mv	s2,s1
20003c88:	00090613          	mv	a2,s2
20003c8c:	000b0593          	mv	a1,s6
20003c90:	205000ef          	jal	20004694 <memmove>
20003c94:	00842783          	lw	a5,8(s0)
20003c98:	00042703          	lw	a4,0(s0)
20003c9c:	412787b3          	sub	a5,a5,s2
20003ca0:	01270733          	add	a4,a4,s2
20003ca4:	00f42423          	sw	a5,8(s0)
20003ca8:	00e42023          	sw	a4,0(s0)
20003cac:	f60794e3          	bnez	a5,20003c14 <__sfvwrite_r+0x318>
20003cb0:	00040593          	mv	a1,s0
20003cb4:	00098513          	mv	a0,s3
20003cb8:	8c1ff0ef          	jal	20003578 <_fflush_r>
20003cbc:	f4050ce3          	beqz	a0,20003c14 <__sfvwrite_r+0x318>
20003cc0:	ec1ff06f          	j	20003b80 <__sfvwrite_r+0x284>
20003cc4:	00048793          	mv	a5,s1
20003cc8:	009bf463          	bgeu	s7,s1,20003cd0 <__sfvwrite_r+0x3d4>
20003ccc:	000b8793          	mv	a5,s7
20003cd0:	02d7c7b3          	div	a5,a5,a3
20003cd4:	02842703          	lw	a4,40(s0)
20003cd8:	02042583          	lw	a1,32(s0)
20003cdc:	000b0613          	mv	a2,s6
20003ce0:	00098513          	mv	a0,s3
20003ce4:	02d786b3          	mul	a3,a5,a3
20003ce8:	000700e7          	jalr	a4
20003cec:	00050913          	mv	s2,a0
20003cf0:	f2a042e3          	bgtz	a0,20003c14 <__sfvwrite_r+0x318>
20003cf4:	e8dff06f          	j	20003b80 <__sfvwrite_r+0x284>
20003cf8:	000a2b03          	lw	s6,0(s4)
20003cfc:	004a2903          	lw	s2,4(s4)
20003d00:	00000513          	li	a0,0
20003d04:	008a0a13          	addi	s4,s4,8
20003d08:	cc5ff06f          	j	200039cc <__sfvwrite_r+0xd0>
20003d0c:	02dc4263          	blt	s8,a3,20003d30 <__sfvwrite_r+0x434>
20003d10:	02842783          	lw	a5,40(s0)
20003d14:	02042583          	lw	a1,32(s0)
20003d18:	000b0613          	mv	a2,s6
20003d1c:	00098513          	mv	a0,s3
20003d20:	000780e7          	jalr	a5
20003d24:	00050493          	mv	s1,a0
20003d28:	d0a04ee3          	bgtz	a0,20003a44 <__sfvwrite_r+0x148>
20003d2c:	e55ff06f          	j	20003b80 <__sfvwrite_r+0x284>
20003d30:	000c0613          	mv	a2,s8
20003d34:	000b0593          	mv	a1,s6
20003d38:	15d000ef          	jal	20004694 <memmove>
20003d3c:	00842783          	lw	a5,8(s0)
20003d40:	000c0493          	mv	s1,s8
20003d44:	418787b3          	sub	a5,a5,s8
20003d48:	00f42423          	sw	a5,8(s0)
20003d4c:	00042783          	lw	a5,0(s0)
20003d50:	018787b3          	add	a5,a5,s8
20003d54:	00f42023          	sw	a5,0(s0)
20003d58:	cedff06f          	j	20003a44 <__sfvwrite_r+0x148>

20003d5c <_fwalk_sglue>:
20003d5c:	fd010113          	addi	sp,sp,-48
20003d60:	02812423          	sw	s0,40(sp)
20003d64:	03212023          	sw	s2,32(sp)
20003d68:	01312e23          	sw	s3,28(sp)
20003d6c:	01412c23          	sw	s4,24(sp)
20003d70:	01512a23          	sw	s5,20(sp)
20003d74:	02112623          	sw	ra,44(sp)
20003d78:	02912223          	sw	s1,36(sp)
20003d7c:	00050a13          	mv	s4,a0
20003d80:	00058a93          	mv	s5,a1
20003d84:	00000413          	li	s0,0
20003d88:	00100913          	li	s2,1
20003d8c:	fff00993          	li	s3,-1
20003d90:	00862583          	lw	a1,8(a2)
20003d94:	00462483          	lw	s1,4(a2)
20003d98:	fff48493          	addi	s1,s1,-1
20003d9c:	0204da63          	bgez	s1,20003dd0 <_fwalk_sglue+0x74>
20003da0:	00062603          	lw	a2,0(a2)
20003da4:	fe0616e3          	bnez	a2,20003d90 <_fwalk_sglue+0x34>
20003da8:	02c12083          	lw	ra,44(sp)
20003dac:	00040513          	mv	a0,s0
20003db0:	02812403          	lw	s0,40(sp)
20003db4:	02412483          	lw	s1,36(sp)
20003db8:	02012903          	lw	s2,32(sp)
20003dbc:	01c12983          	lw	s3,28(sp)
20003dc0:	01812a03          	lw	s4,24(sp)
20003dc4:	01412a83          	lw	s5,20(sp)
20003dc8:	03010113          	addi	sp,sp,48
20003dcc:	00008067          	ret
20003dd0:	00c5d783          	lhu	a5,12(a1)
20003dd4:	02f97463          	bgeu	s2,a5,20003dfc <_fwalk_sglue+0xa0>
20003dd8:	00e59783          	lh	a5,14(a1)
20003ddc:	03378063          	beq	a5,s3,20003dfc <_fwalk_sglue+0xa0>
20003de0:	000a0513          	mv	a0,s4
20003de4:	00c12623          	sw	a2,12(sp)
20003de8:	00b12423          	sw	a1,8(sp)
20003dec:	000a80e7          	jalr	s5
20003df0:	00c12603          	lw	a2,12(sp)
20003df4:	00812583          	lw	a1,8(sp)
20003df8:	00a46433          	or	s0,s0,a0
20003dfc:	06858593          	addi	a1,a1,104
20003e00:	f99ff06f          	j	20003d98 <_fwalk_sglue+0x3c>

20003e04 <__swhatbuf_r>:
20003e04:	f8010113          	addi	sp,sp,-128
20003e08:	06812c23          	sw	s0,120(sp)
20003e0c:	00058413          	mv	s0,a1
20003e10:	00e59583          	lh	a1,14(a1)
20003e14:	06912a23          	sw	s1,116(sp)
20003e18:	06112e23          	sw	ra,124(sp)
20003e1c:	00060493          	mv	s1,a2
20003e20:	0205da63          	bgez	a1,20003e54 <__swhatbuf_r+0x50>
20003e24:	00c45783          	lhu	a5,12(s0)
20003e28:	0807f793          	andi	a5,a5,128
20003e2c:	04079c63          	bnez	a5,20003e84 <__swhatbuf_r+0x80>
20003e30:	40000713          	li	a4,1024
20003e34:	07c12083          	lw	ra,124(sp)
20003e38:	07812403          	lw	s0,120(sp)
20003e3c:	00f6a023          	sw	a5,0(a3)
20003e40:	00e4a023          	sw	a4,0(s1)
20003e44:	00000513          	li	a0,0
20003e48:	07412483          	lw	s1,116(sp)
20003e4c:	08010113          	addi	sp,sp,128
20003e50:	00008067          	ret
20003e54:	01810613          	addi	a2,sp,24
20003e58:	00d12623          	sw	a3,12(sp)
20003e5c:	654000ef          	jal	200044b0 <_fstat_r>
20003e60:	00c12683          	lw	a3,12(sp)
20003e64:	fc0540e3          	bltz	a0,20003e24 <__swhatbuf_r+0x20>
20003e68:	01c12783          	lw	a5,28(sp)
20003e6c:	0000f737          	lui	a4,0xf
20003e70:	00e7f7b3          	and	a5,a5,a4
20003e74:	ffffe737          	lui	a4,0xffffe
20003e78:	00e787b3          	add	a5,a5,a4
20003e7c:	0017b793          	seqz	a5,a5
20003e80:	fb1ff06f          	j	20003e30 <__swhatbuf_r+0x2c>
20003e84:	00000793          	li	a5,0
20003e88:	04000713          	li	a4,64
20003e8c:	fa9ff06f          	j	20003e34 <__swhatbuf_r+0x30>

20003e90 <__smakebuf_r>:
20003e90:	00c5d703          	lhu	a4,12(a1)
20003e94:	fd010113          	addi	sp,sp,-48
20003e98:	02812423          	sw	s0,40(sp)
20003e9c:	02112623          	sw	ra,44(sp)
20003ea0:	02912223          	sw	s1,36(sp)
20003ea4:	00277713          	andi	a4,a4,2
20003ea8:	00058413          	mv	s0,a1
20003eac:	02070663          	beqz	a4,20003ed8 <__smakebuf_r+0x48>
20003eb0:	04740793          	addi	a5,s0,71
20003eb4:	00f42023          	sw	a5,0(s0)
20003eb8:	00f42823          	sw	a5,16(s0)
20003ebc:	00100793          	li	a5,1
20003ec0:	00f42a23          	sw	a5,20(s0)
20003ec4:	02c12083          	lw	ra,44(sp)
20003ec8:	02812403          	lw	s0,40(sp)
20003ecc:	02412483          	lw	s1,36(sp)
20003ed0:	03010113          	addi	sp,sp,48
20003ed4:	00008067          	ret
20003ed8:	01c10693          	addi	a3,sp,28
20003edc:	01810613          	addi	a2,sp,24
20003ee0:	00050493          	mv	s1,a0
20003ee4:	f21ff0ef          	jal	20003e04 <__swhatbuf_r>
20003ee8:	01812583          	lw	a1,24(sp)
20003eec:	00048513          	mv	a0,s1
20003ef0:	00b12623          	sw	a1,12(sp)
20003ef4:	935fe0ef          	jal	20002828 <_malloc_r>
20003ef8:	00c41783          	lh	a5,12(s0)
20003efc:	00c12583          	lw	a1,12(sp)
20003f00:	00051e63          	bnez	a0,20003f1c <__smakebuf_r+0x8c>
20003f04:	2007f713          	andi	a4,a5,512
20003f08:	fa071ee3          	bnez	a4,20003ec4 <__smakebuf_r+0x34>
20003f0c:	ffc7f793          	andi	a5,a5,-4
20003f10:	0027e793          	ori	a5,a5,2
20003f14:	00f41623          	sh	a5,12(s0)
20003f18:	f99ff06f          	j	20003eb0 <__smakebuf_r+0x20>
20003f1c:	0807e793          	ori	a5,a5,128
20003f20:	00f41623          	sh	a5,12(s0)
20003f24:	01c12783          	lw	a5,28(sp)
20003f28:	00a42023          	sw	a0,0(s0)
20003f2c:	00a42823          	sw	a0,16(s0)
20003f30:	00b42a23          	sw	a1,20(s0)
20003f34:	f80788e3          	beqz	a5,20003ec4 <__smakebuf_r+0x34>
20003f38:	00e41583          	lh	a1,14(s0)
20003f3c:	00048513          	mv	a0,s1
20003f40:	5c0000ef          	jal	20004500 <_isatty_r>
20003f44:	f80500e3          	beqz	a0,20003ec4 <__smakebuf_r+0x34>
20003f48:	00c45783          	lhu	a5,12(s0)
20003f4c:	ffc7f793          	andi	a5,a5,-4
20003f50:	0017e793          	ori	a5,a5,1
20003f54:	00f41623          	sh	a5,12(s0)
20003f58:	f6dff06f          	j	20003ec4 <__smakebuf_r+0x34>

20003f5c <__sread>:
20003f5c:	ff010113          	addi	sp,sp,-16
20003f60:	00812423          	sw	s0,8(sp)
20003f64:	00058413          	mv	s0,a1
20003f68:	00e59583          	lh	a1,14(a1)
20003f6c:	00112623          	sw	ra,12(sp)
20003f70:	630000ef          	jal	200045a0 <_read_r>
20003f74:	02054063          	bltz	a0,20003f94 <__sread+0x38>
20003f78:	05442783          	lw	a5,84(s0)
20003f7c:	00a787b3          	add	a5,a5,a0
20003f80:	04f42a23          	sw	a5,84(s0)
20003f84:	00c12083          	lw	ra,12(sp)
20003f88:	00812403          	lw	s0,8(sp)
20003f8c:	01010113          	addi	sp,sp,16
20003f90:	00008067          	ret
20003f94:	00c45783          	lhu	a5,12(s0)
20003f98:	fffff737          	lui	a4,0xfffff
20003f9c:	fff70713          	addi	a4,a4,-1 # ffffefff <__stack_top+0xdfff959b>
20003fa0:	00e7f7b3          	and	a5,a5,a4
20003fa4:	00f41623          	sh	a5,12(s0)
20003fa8:	fddff06f          	j	20003f84 <__sread+0x28>

20003fac <__seofread>:
20003fac:	00000513          	li	a0,0
20003fb0:	00008067          	ret

20003fb4 <__swrite>:
20003fb4:	00c5d783          	lhu	a5,12(a1)
20003fb8:	fe010113          	addi	sp,sp,-32
20003fbc:	00812c23          	sw	s0,24(sp)
20003fc0:	00912a23          	sw	s1,20(sp)
20003fc4:	01212823          	sw	s2,16(sp)
20003fc8:	01312623          	sw	s3,12(sp)
20003fcc:	00112e23          	sw	ra,28(sp)
20003fd0:	1007f793          	andi	a5,a5,256
20003fd4:	00050493          	mv	s1,a0
20003fd8:	00058413          	mv	s0,a1
20003fdc:	00060913          	mv	s2,a2
20003fe0:	00068993          	mv	s3,a3
20003fe4:	00078a63          	beqz	a5,20003ff8 <__swrite+0x44>
20003fe8:	00e59583          	lh	a1,14(a1)
20003fec:	00200693          	li	a3,2
20003ff0:	00000613          	li	a2,0
20003ff4:	558000ef          	jal	2000454c <_lseek_r>
20003ff8:	00c45783          	lhu	a5,12(s0)
20003ffc:	fffff737          	lui	a4,0xfffff
20004000:	fff70713          	addi	a4,a4,-1 # ffffefff <__stack_top+0xdfff959b>
20004004:	00e7f7b3          	and	a5,a5,a4
20004008:	00e41583          	lh	a1,14(s0)
2000400c:	00f41623          	sh	a5,12(s0)
20004010:	01812403          	lw	s0,24(sp)
20004014:	01c12083          	lw	ra,28(sp)
20004018:	00098693          	mv	a3,s3
2000401c:	00090613          	mv	a2,s2
20004020:	00c12983          	lw	s3,12(sp)
20004024:	01012903          	lw	s2,16(sp)
20004028:	00048513          	mv	a0,s1
2000402c:	01412483          	lw	s1,20(sp)
20004030:	02010113          	addi	sp,sp,32
20004034:	60c0006f          	j	20004640 <_write_r>

20004038 <__sseek>:
20004038:	ff010113          	addi	sp,sp,-16
2000403c:	00812423          	sw	s0,8(sp)
20004040:	00058413          	mv	s0,a1
20004044:	00e59583          	lh	a1,14(a1)
20004048:	00112623          	sw	ra,12(sp)
2000404c:	500000ef          	jal	2000454c <_lseek_r>
20004050:	fff00713          	li	a4,-1
20004054:	00c41783          	lh	a5,12(s0)
20004058:	02e51263          	bne	a0,a4,2000407c <__sseek+0x44>
2000405c:	80050713          	addi	a4,a0,-2048
20004060:	80070713          	addi	a4,a4,-2048
20004064:	00e7f7b3          	and	a5,a5,a4
20004068:	00f41623          	sh	a5,12(s0)
2000406c:	00c12083          	lw	ra,12(sp)
20004070:	00812403          	lw	s0,8(sp)
20004074:	01010113          	addi	sp,sp,16
20004078:	00008067          	ret
2000407c:	00001737          	lui	a4,0x1
20004080:	00e7e7b3          	or	a5,a5,a4
20004084:	00f41623          	sh	a5,12(s0)
20004088:	04a42a23          	sw	a0,84(s0)
2000408c:	fe1ff06f          	j	2000406c <__sseek+0x34>

20004090 <__sclose>:
20004090:	00e59583          	lh	a1,14(a1)
20004094:	2540006f          	j	200042e8 <_close_r>

20004098 <__swbuf_r>:
20004098:	fe010113          	addi	sp,sp,-32
2000409c:	00812c23          	sw	s0,24(sp)
200040a0:	00912a23          	sw	s1,20(sp)
200040a4:	01312623          	sw	s3,12(sp)
200040a8:	00112e23          	sw	ra,28(sp)
200040ac:	01212823          	sw	s2,16(sp)
200040b0:	00050493          	mv	s1,a0
200040b4:	00058993          	mv	s3,a1
200040b8:	00060413          	mv	s0,a2
200040bc:	00050863          	beqz	a0,200040cc <__swbuf_r+0x34>
200040c0:	02052783          	lw	a5,32(a0)
200040c4:	00079463          	bnez	a5,200040cc <__swbuf_r+0x34>
200040c8:	fd4ff0ef          	jal	2000389c <__sinit>
200040cc:	01842783          	lw	a5,24(s0)
200040d0:	00f42423          	sw	a5,8(s0)
200040d4:	00c45783          	lhu	a5,12(s0)
200040d8:	0087f793          	andi	a5,a5,8
200040dc:	00078663          	beqz	a5,200040e8 <__swbuf_r+0x50>
200040e0:	01042783          	lw	a5,16(s0)
200040e4:	02079c63          	bnez	a5,2000411c <__swbuf_r+0x84>
200040e8:	00040593          	mv	a1,s0
200040ec:	00048513          	mv	a0,s1
200040f0:	0b8000ef          	jal	200041a8 <__swsetup_r>
200040f4:	02050463          	beqz	a0,2000411c <__swbuf_r+0x84>
200040f8:	fff00913          	li	s2,-1
200040fc:	01c12083          	lw	ra,28(sp)
20004100:	01812403          	lw	s0,24(sp)
20004104:	01412483          	lw	s1,20(sp)
20004108:	00c12983          	lw	s3,12(sp)
2000410c:	00090513          	mv	a0,s2
20004110:	01012903          	lw	s2,16(sp)
20004114:	02010113          	addi	sp,sp,32
20004118:	00008067          	ret
2000411c:	01042783          	lw	a5,16(s0)
20004120:	00042503          	lw	a0,0(s0)
20004124:	40f50533          	sub	a0,a0,a5
20004128:	01442783          	lw	a5,20(s0)
2000412c:	00f54a63          	blt	a0,a5,20004140 <__swbuf_r+0xa8>
20004130:	00040593          	mv	a1,s0
20004134:	00048513          	mv	a0,s1
20004138:	c40ff0ef          	jal	20003578 <_fflush_r>
2000413c:	fa051ee3          	bnez	a0,200040f8 <__swbuf_r+0x60>
20004140:	00842783          	lw	a5,8(s0)
20004144:	00150513          	addi	a0,a0,1
20004148:	0ff9f913          	zext.b	s2,s3
2000414c:	fff78793          	addi	a5,a5,-1
20004150:	00f42423          	sw	a5,8(s0)
20004154:	00042783          	lw	a5,0(s0)
20004158:	00178713          	addi	a4,a5,1
2000415c:	00e42023          	sw	a4,0(s0)
20004160:	01378023          	sb	s3,0(a5)
20004164:	01442783          	lw	a5,20(s0)
20004168:	00a78c63          	beq	a5,a0,20004180 <__swbuf_r+0xe8>
2000416c:	00c45783          	lhu	a5,12(s0)
20004170:	0017f793          	andi	a5,a5,1
20004174:	f80784e3          	beqz	a5,200040fc <__swbuf_r+0x64>
20004178:	ff690793          	addi	a5,s2,-10
2000417c:	f80790e3          	bnez	a5,200040fc <__swbuf_r+0x64>
20004180:	00040593          	mv	a1,s0
20004184:	00048513          	mv	a0,s1
20004188:	bf0ff0ef          	jal	20003578 <_fflush_r>
2000418c:	f60508e3          	beqz	a0,200040fc <__swbuf_r+0x64>
20004190:	f69ff06f          	j	200040f8 <__swbuf_r+0x60>

20004194 <__swbuf>:
20004194:	200057b7          	lui	a5,0x20005
20004198:	00058613          	mv	a2,a1
2000419c:	00050593          	mv	a1,a0
200041a0:	d007a503          	lw	a0,-768(a5) # 20004d00 <_impure_ptr>
200041a4:	ef5ff06f          	j	20004098 <__swbuf_r>

200041a8 <__swsetup_r>:
200041a8:	ff010113          	addi	sp,sp,-16
200041ac:	200057b7          	lui	a5,0x20005
200041b0:	00912223          	sw	s1,4(sp)
200041b4:	00050493          	mv	s1,a0
200041b8:	d007a503          	lw	a0,-768(a5) # 20004d00 <_impure_ptr>
200041bc:	00812423          	sw	s0,8(sp)
200041c0:	00112623          	sw	ra,12(sp)
200041c4:	00058413          	mv	s0,a1
200041c8:	00050863          	beqz	a0,200041d8 <__swsetup_r+0x30>
200041cc:	02052783          	lw	a5,32(a0)
200041d0:	00079463          	bnez	a5,200041d8 <__swsetup_r+0x30>
200041d4:	ec8ff0ef          	jal	2000389c <__sinit>
200041d8:	00c41783          	lh	a5,12(s0)
200041dc:	0087f713          	andi	a4,a5,8
200041e0:	06071263          	bnez	a4,20004244 <__swsetup_r+0x9c>
200041e4:	0107f713          	andi	a4,a5,16
200041e8:	00071e63          	bnez	a4,20004204 <__swsetup_r+0x5c>
200041ec:	00900713          	li	a4,9
200041f0:	00e4a023          	sw	a4,0(s1)
200041f4:	0407e793          	ori	a5,a5,64
200041f8:	00f41623          	sh	a5,12(s0)
200041fc:	fff00513          	li	a0,-1
20004200:	0980006f          	j	20004298 <__swsetup_r+0xf0>
20004204:	0047f713          	andi	a4,a5,4
20004208:	02070a63          	beqz	a4,2000423c <__swsetup_r+0x94>
2000420c:	03442583          	lw	a1,52(s0)
20004210:	00058c63          	beqz	a1,20004228 <__swsetup_r+0x80>
20004214:	04440793          	addi	a5,s0,68
20004218:	00f58663          	beq	a1,a5,20004224 <__swsetup_r+0x7c>
2000421c:	00048513          	mv	a0,s1
20004220:	c64fe0ef          	jal	20002684 <_free_r>
20004224:	02042a23          	sw	zero,52(s0)
20004228:	00c45783          	lhu	a5,12(s0)
2000422c:	01042703          	lw	a4,16(s0)
20004230:	00042223          	sw	zero,4(s0)
20004234:	fdb7f793          	andi	a5,a5,-37
20004238:	00e42023          	sw	a4,0(s0)
2000423c:	0087e793          	ori	a5,a5,8
20004240:	00f41623          	sh	a5,12(s0)
20004244:	01042783          	lw	a5,16(s0)
20004248:	02079063          	bnez	a5,20004268 <__swsetup_r+0xc0>
2000424c:	00c42783          	lw	a5,12(s0)
20004250:	20000713          	li	a4,512
20004254:	2807f793          	andi	a5,a5,640
20004258:	00e78863          	beq	a5,a4,20004268 <__swsetup_r+0xc0>
2000425c:	00040593          	mv	a1,s0
20004260:	00048513          	mv	a0,s1
20004264:	c2dff0ef          	jal	20003e90 <__smakebuf_r>
20004268:	00c41783          	lh	a5,12(s0)
2000426c:	0017f713          	andi	a4,a5,1
20004270:	02070e63          	beqz	a4,200042ac <__swsetup_r+0x104>
20004274:	01442703          	lw	a4,20(s0)
20004278:	00042423          	sw	zero,8(s0)
2000427c:	40e00733          	neg	a4,a4
20004280:	00e42c23          	sw	a4,24(s0)
20004284:	01042703          	lw	a4,16(s0)
20004288:	00000513          	li	a0,0
2000428c:	00071663          	bnez	a4,20004298 <__swsetup_r+0xf0>
20004290:	0807f713          	andi	a4,a5,128
20004294:	f60710e3          	bnez	a4,200041f4 <__swsetup_r+0x4c>
20004298:	00c12083          	lw	ra,12(sp)
2000429c:	00812403          	lw	s0,8(sp)
200042a0:	00412483          	lw	s1,4(sp)
200042a4:	01010113          	addi	sp,sp,16
200042a8:	00008067          	ret
200042ac:	0027f713          	andi	a4,a5,2
200042b0:	00000693          	li	a3,0
200042b4:	00071463          	bnez	a4,200042bc <__swsetup_r+0x114>
200042b8:	01442683          	lw	a3,20(s0)
200042bc:	00d42423          	sw	a3,8(s0)
200042c0:	fc5ff06f          	j	20004284 <__swsetup_r+0xdc>

200042c4 <memchr>:
200042c4:	0ff5f593          	zext.b	a1,a1
200042c8:	00c50633          	add	a2,a0,a2
200042cc:	00c51663          	bne	a0,a2,200042d8 <memchr+0x14>
200042d0:	00000513          	li	a0,0
200042d4:	00008067          	ret
200042d8:	00054783          	lbu	a5,0(a0)
200042dc:	feb78ce3          	beq	a5,a1,200042d4 <memchr+0x10>
200042e0:	00150513          	addi	a0,a0,1
200042e4:	fe9ff06f          	j	200042cc <memchr+0x8>

200042e8 <_close_r>:
200042e8:	ff010113          	addi	sp,sp,-16
200042ec:	00812423          	sw	s0,8(sp)
200042f0:	00912223          	sw	s1,4(sp)
200042f4:	20005437          	lui	s0,0x20005
200042f8:	00050493          	mv	s1,a0
200042fc:	00058513          	mv	a0,a1
20004300:	00112623          	sw	ra,12(sp)
20004304:	e6042023          	sw	zero,-416(s0) # 20004e60 <errno>
20004308:	eb0fd0ef          	jal	200019b8 <_close>
2000430c:	fff00793          	li	a5,-1
20004310:	00f51863          	bne	a0,a5,20004320 <_close_r+0x38>
20004314:	e6042783          	lw	a5,-416(s0)
20004318:	00078463          	beqz	a5,20004320 <_close_r+0x38>
2000431c:	00f4a023          	sw	a5,0(s1)
20004320:	00c12083          	lw	ra,12(sp)
20004324:	00812403          	lw	s0,8(sp)
20004328:	00412483          	lw	s1,4(sp)
2000432c:	01010113          	addi	sp,sp,16
20004330:	00008067          	ret

20004334 <_reclaim_reent>:
20004334:	200057b7          	lui	a5,0x20005
20004338:	d007a783          	lw	a5,-768(a5) # 20004d00 <_impure_ptr>
2000433c:	16a78863          	beq	a5,a0,200044ac <_reclaim_reent+0x178>
20004340:	01c52783          	lw	a5,28(a0)
20004344:	fe010113          	addi	sp,sp,-32
20004348:	00812c23          	sw	s0,24(sp)
2000434c:	00112e23          	sw	ra,28(sp)
20004350:	00912a23          	sw	s1,20(sp)
20004354:	01212823          	sw	s2,16(sp)
20004358:	01312623          	sw	s3,12(sp)
2000435c:	00050413          	mv	s0,a0
20004360:	08078463          	beqz	a5,200043e8 <_reclaim_reent+0xb4>
20004364:	00c7a783          	lw	a5,12(a5)
20004368:	02078c63          	beqz	a5,200043a0 <_reclaim_reent+0x6c>
2000436c:	00000493          	li	s1,0
20004370:	08000913          	li	s2,128
20004374:	01c42783          	lw	a5,28(s0)
20004378:	00c7a783          	lw	a5,12(a5)
2000437c:	009787b3          	add	a5,a5,s1
20004380:	0007a583          	lw	a1,0(a5)
20004384:	04059863          	bnez	a1,200043d4 <_reclaim_reent+0xa0>
20004388:	00448493          	addi	s1,s1,4
2000438c:	ff2494e3          	bne	s1,s2,20004374 <_reclaim_reent+0x40>
20004390:	01c42783          	lw	a5,28(s0)
20004394:	00040513          	mv	a0,s0
20004398:	00c7a583          	lw	a1,12(a5)
2000439c:	ae8fe0ef          	jal	20002684 <_free_r>
200043a0:	01c42783          	lw	a5,28(s0)
200043a4:	0007a583          	lw	a1,0(a5)
200043a8:	00058663          	beqz	a1,200043b4 <_reclaim_reent+0x80>
200043ac:	00040513          	mv	a0,s0
200043b0:	ad4fe0ef          	jal	20002684 <_free_r>
200043b4:	01c42783          	lw	a5,28(s0)
200043b8:	0087a483          	lw	s1,8(a5)
200043bc:	02048663          	beqz	s1,200043e8 <_reclaim_reent+0xb4>
200043c0:	00048593          	mv	a1,s1
200043c4:	00040513          	mv	a0,s0
200043c8:	0004a483          	lw	s1,0(s1)
200043cc:	ab8fe0ef          	jal	20002684 <_free_r>
200043d0:	fedff06f          	j	200043bc <_reclaim_reent+0x88>
200043d4:	0005a983          	lw	s3,0(a1)
200043d8:	00040513          	mv	a0,s0
200043dc:	aa8fe0ef          	jal	20002684 <_free_r>
200043e0:	00098593          	mv	a1,s3
200043e4:	fa1ff06f          	j	20004384 <_reclaim_reent+0x50>
200043e8:	01442583          	lw	a1,20(s0)
200043ec:	00058663          	beqz	a1,200043f8 <_reclaim_reent+0xc4>
200043f0:	00040513          	mv	a0,s0
200043f4:	a90fe0ef          	jal	20002684 <_free_r>
200043f8:	01c42583          	lw	a1,28(s0)
200043fc:	00058663          	beqz	a1,20004408 <_reclaim_reent+0xd4>
20004400:	00040513          	mv	a0,s0
20004404:	a80fe0ef          	jal	20002684 <_free_r>
20004408:	03042583          	lw	a1,48(s0)
2000440c:	00058663          	beqz	a1,20004418 <_reclaim_reent+0xe4>
20004410:	00040513          	mv	a0,s0
20004414:	a70fe0ef          	jal	20002684 <_free_r>
20004418:	03442583          	lw	a1,52(s0)
2000441c:	00058663          	beqz	a1,20004428 <_reclaim_reent+0xf4>
20004420:	00040513          	mv	a0,s0
20004424:	a60fe0ef          	jal	20002684 <_free_r>
20004428:	03842583          	lw	a1,56(s0)
2000442c:	00058663          	beqz	a1,20004438 <_reclaim_reent+0x104>
20004430:	00040513          	mv	a0,s0
20004434:	a50fe0ef          	jal	20002684 <_free_r>
20004438:	04842583          	lw	a1,72(s0)
2000443c:	00058663          	beqz	a1,20004448 <_reclaim_reent+0x114>
20004440:	00040513          	mv	a0,s0
20004444:	a40fe0ef          	jal	20002684 <_free_r>
20004448:	04442583          	lw	a1,68(s0)
2000444c:	00058663          	beqz	a1,20004458 <_reclaim_reent+0x124>
20004450:	00040513          	mv	a0,s0
20004454:	a30fe0ef          	jal	20002684 <_free_r>
20004458:	02c42583          	lw	a1,44(s0)
2000445c:	00058663          	beqz	a1,20004468 <_reclaim_reent+0x134>
20004460:	00040513          	mv	a0,s0
20004464:	a20fe0ef          	jal	20002684 <_free_r>
20004468:	02042783          	lw	a5,32(s0)
2000446c:	02078263          	beqz	a5,20004490 <_reclaim_reent+0x15c>
20004470:	00040513          	mv	a0,s0
20004474:	01812403          	lw	s0,24(sp)
20004478:	01c12083          	lw	ra,28(sp)
2000447c:	01412483          	lw	s1,20(sp)
20004480:	01012903          	lw	s2,16(sp)
20004484:	00c12983          	lw	s3,12(sp)
20004488:	02010113          	addi	sp,sp,32
2000448c:	00078067          	jr	a5
20004490:	01c12083          	lw	ra,28(sp)
20004494:	01812403          	lw	s0,24(sp)
20004498:	01412483          	lw	s1,20(sp)
2000449c:	01012903          	lw	s2,16(sp)
200044a0:	00c12983          	lw	s3,12(sp)
200044a4:	02010113          	addi	sp,sp,32
200044a8:	00008067          	ret
200044ac:	00008067          	ret

200044b0 <_fstat_r>:
200044b0:	ff010113          	addi	sp,sp,-16
200044b4:	00812423          	sw	s0,8(sp)
200044b8:	00912223          	sw	s1,4(sp)
200044bc:	20005437          	lui	s0,0x20005
200044c0:	00050493          	mv	s1,a0
200044c4:	00058513          	mv	a0,a1
200044c8:	00060593          	mv	a1,a2
200044cc:	00112623          	sw	ra,12(sp)
200044d0:	e6042023          	sw	zero,-416(s0) # 20004e60 <errno>
200044d4:	d44fd0ef          	jal	20001a18 <_fstat>
200044d8:	fff00793          	li	a5,-1
200044dc:	00f51863          	bne	a0,a5,200044ec <_fstat_r+0x3c>
200044e0:	e6042783          	lw	a5,-416(s0)
200044e4:	00078463          	beqz	a5,200044ec <_fstat_r+0x3c>
200044e8:	00f4a023          	sw	a5,0(s1)
200044ec:	00c12083          	lw	ra,12(sp)
200044f0:	00812403          	lw	s0,8(sp)
200044f4:	00412483          	lw	s1,4(sp)
200044f8:	01010113          	addi	sp,sp,16
200044fc:	00008067          	ret

20004500 <_isatty_r>:
20004500:	ff010113          	addi	sp,sp,-16
20004504:	00812423          	sw	s0,8(sp)
20004508:	00912223          	sw	s1,4(sp)
2000450c:	20005437          	lui	s0,0x20005
20004510:	00050493          	mv	s1,a0
20004514:	00058513          	mv	a0,a1
20004518:	00112623          	sw	ra,12(sp)
2000451c:	e6042023          	sw	zero,-416(s0) # 20004e60 <errno>
20004520:	d68fd0ef          	jal	20001a88 <_isatty>
20004524:	fff00793          	li	a5,-1
20004528:	00f51863          	bne	a0,a5,20004538 <_isatty_r+0x38>
2000452c:	e6042783          	lw	a5,-416(s0)
20004530:	00078463          	beqz	a5,20004538 <_isatty_r+0x38>
20004534:	00f4a023          	sw	a5,0(s1)
20004538:	00c12083          	lw	ra,12(sp)
2000453c:	00812403          	lw	s0,8(sp)
20004540:	00412483          	lw	s1,4(sp)
20004544:	01010113          	addi	sp,sp,16
20004548:	00008067          	ret

2000454c <_lseek_r>:
2000454c:	ff010113          	addi	sp,sp,-16
20004550:	00812423          	sw	s0,8(sp)
20004554:	00912223          	sw	s1,4(sp)
20004558:	20005437          	lui	s0,0x20005
2000455c:	00050493          	mv	s1,a0
20004560:	00058513          	mv	a0,a1
20004564:	00060593          	mv	a1,a2
20004568:	00068613          	mv	a2,a3
2000456c:	00112623          	sw	ra,12(sp)
20004570:	e6042023          	sw	zero,-416(s0) # 20004e60 <errno>
20004574:	ce0fd0ef          	jal	20001a54 <_lseek>
20004578:	fff00793          	li	a5,-1
2000457c:	00f51863          	bne	a0,a5,2000458c <_lseek_r+0x40>
20004580:	e6042783          	lw	a5,-416(s0)
20004584:	00078463          	beqz	a5,2000458c <_lseek_r+0x40>
20004588:	00f4a023          	sw	a5,0(s1)
2000458c:	00c12083          	lw	ra,12(sp)
20004590:	00812403          	lw	s0,8(sp)
20004594:	00412483          	lw	s1,4(sp)
20004598:	01010113          	addi	sp,sp,16
2000459c:	00008067          	ret

200045a0 <_read_r>:
200045a0:	ff010113          	addi	sp,sp,-16
200045a4:	00812423          	sw	s0,8(sp)
200045a8:	00912223          	sw	s1,4(sp)
200045ac:	20005437          	lui	s0,0x20005
200045b0:	00050493          	mv	s1,a0
200045b4:	00058513          	mv	a0,a1
200045b8:	00060593          	mv	a1,a2
200045bc:	00068613          	mv	a2,a3
200045c0:	00112623          	sw	ra,12(sp)
200045c4:	e6042023          	sw	zero,-416(s0) # 20004e60 <errno>
200045c8:	d54fd0ef          	jal	20001b1c <_read>
200045cc:	fff00793          	li	a5,-1
200045d0:	00f51863          	bne	a0,a5,200045e0 <_read_r+0x40>
200045d4:	e6042783          	lw	a5,-416(s0)
200045d8:	00078463          	beqz	a5,200045e0 <_read_r+0x40>
200045dc:	00f4a023          	sw	a5,0(s1)
200045e0:	00c12083          	lw	ra,12(sp)
200045e4:	00812403          	lw	s0,8(sp)
200045e8:	00412483          	lw	s1,4(sp)
200045ec:	01010113          	addi	sp,sp,16
200045f0:	00008067          	ret

200045f4 <_sbrk_r>:
200045f4:	ff010113          	addi	sp,sp,-16
200045f8:	00812423          	sw	s0,8(sp)
200045fc:	00912223          	sw	s1,4(sp)
20004600:	20005437          	lui	s0,0x20005
20004604:	00050493          	mv	s1,a0
20004608:	00058513          	mv	a0,a1
2000460c:	00112623          	sw	ra,12(sp)
20004610:	e6042023          	sw	zero,-416(s0) # 20004e60 <errno>
20004614:	854fd0ef          	jal	20001668 <_sbrk>
20004618:	fff00793          	li	a5,-1
2000461c:	00f51863          	bne	a0,a5,2000462c <_sbrk_r+0x38>
20004620:	e6042783          	lw	a5,-416(s0)
20004624:	00078463          	beqz	a5,2000462c <_sbrk_r+0x38>
20004628:	00f4a023          	sw	a5,0(s1)
2000462c:	00c12083          	lw	ra,12(sp)
20004630:	00812403          	lw	s0,8(sp)
20004634:	00412483          	lw	s1,4(sp)
20004638:	01010113          	addi	sp,sp,16
2000463c:	00008067          	ret

20004640 <_write_r>:
20004640:	ff010113          	addi	sp,sp,-16
20004644:	00812423          	sw	s0,8(sp)
20004648:	00912223          	sw	s1,4(sp)
2000464c:	20005437          	lui	s0,0x20005
20004650:	00050493          	mv	s1,a0
20004654:	00058513          	mv	a0,a1
20004658:	00060593          	mv	a1,a2
2000465c:	00068613          	mv	a2,a3
20004660:	00112623          	sw	ra,12(sp)
20004664:	e6042023          	sw	zero,-416(s0) # 20004e60 <errno>
20004668:	c4cfd0ef          	jal	20001ab4 <_write>
2000466c:	fff00793          	li	a5,-1
20004670:	00f51863          	bne	a0,a5,20004680 <_write_r+0x40>
20004674:	e6042783          	lw	a5,-416(s0)
20004678:	00078463          	beqz	a5,20004680 <_write_r+0x40>
2000467c:	00f4a023          	sw	a5,0(s1)
20004680:	00c12083          	lw	ra,12(sp)
20004684:	00812403          	lw	s0,8(sp)
20004688:	00412483          	lw	s1,4(sp)
2000468c:	01010113          	addi	sp,sp,16
20004690:	00008067          	ret

20004694 <memmove>:
20004694:	02060c63          	beqz	a2,200046cc <memmove+0x38>
20004698:	00050313          	mv	t1,a0
2000469c:	00100693          	li	a3,1
200046a0:	00b56a63          	bltu	a0,a1,200046b4 <memmove+0x20>
200046a4:	fff00693          	li	a3,-1
200046a8:	fff60713          	addi	a4,a2,-1
200046ac:	00e30333          	add	t1,t1,a4
200046b0:	00e585b3          	add	a1,a1,a4
200046b4:	00058383          	lb	t2,0(a1)
200046b8:	00730023          	sb	t2,0(t1) # 1000000 <_start-0x1f000000>
200046bc:	fff60613          	addi	a2,a2,-1
200046c0:	00d30333          	add	t1,t1,a3
200046c4:	00d585b3          	add	a1,a1,a3
200046c8:	fe0616e3          	bnez	a2,200046b4 <memmove+0x20>
200046cc:	00008067          	ret

200046d0 <memset>:
200046d0:	00050313          	mv	t1,a0
200046d4:	00060a63          	beqz	a2,200046e8 <memset+0x18>
200046d8:	00b30023          	sb	a1,0(t1)
200046dc:	fff60613          	addi	a2,a2,-1
200046e0:	00130313          	addi	t1,t1,1
200046e4:	fe061ae3          	bnez	a2,200046d8 <memset+0x8>
200046e8:	00008067          	ret

200046ec <memcpy>:
200046ec:	00050313          	mv	t1,a0
200046f0:	00060e63          	beqz	a2,2000470c <memcpy+0x20>
200046f4:	00058383          	lb	t2,0(a1)
200046f8:	00730023          	sb	t2,0(t1)
200046fc:	fff60613          	addi	a2,a2,-1
20004700:	00130313          	addi	t1,t1,1
20004704:	00158593          	addi	a1,a1,1
20004708:	fe0616e3          	bnez	a2,200046f4 <memcpy+0x8>
2000470c:	00008067          	ret

20004710 <_realloc_r>:
20004710:	00059663          	bnez	a1,2000471c <_realloc_r+0xc>
20004714:	00060593          	mv	a1,a2
20004718:	910fe06f          	j	20002828 <_malloc_r>
2000471c:	fe010113          	addi	sp,sp,-32
20004720:	00812c23          	sw	s0,24(sp)
20004724:	01412423          	sw	s4,8(sp)
20004728:	00112e23          	sw	ra,28(sp)
2000472c:	00912a23          	sw	s1,20(sp)
20004730:	01212823          	sw	s2,16(sp)
20004734:	01312623          	sw	s3,12(sp)
20004738:	00060413          	mv	s0,a2
2000473c:	00050a13          	mv	s4,a0
20004740:	02061863          	bnez	a2,20004770 <_realloc_r+0x60>
20004744:	f41fd0ef          	jal	20002684 <_free_r>
20004748:	00000493          	li	s1,0
2000474c:	01c12083          	lw	ra,28(sp)
20004750:	01812403          	lw	s0,24(sp)
20004754:	01012903          	lw	s2,16(sp)
20004758:	00c12983          	lw	s3,12(sp)
2000475c:	00812a03          	lw	s4,8(sp)
20004760:	00048513          	mv	a0,s1
20004764:	01412483          	lw	s1,20(sp)
20004768:	02010113          	addi	sp,sp,32
2000476c:	00008067          	ret
20004770:	00058493          	mv	s1,a1
20004774:	058000ef          	jal	200047cc <_malloc_usable_size_r>
20004778:	00050913          	mv	s2,a0
2000477c:	00856663          	bltu	a0,s0,20004788 <_realloc_r+0x78>
20004780:	00155793          	srli	a5,a0,0x1
20004784:	fc87e4e3          	bltu	a5,s0,2000474c <_realloc_r+0x3c>
20004788:	00040593          	mv	a1,s0
2000478c:	000a0513          	mv	a0,s4
20004790:	898fe0ef          	jal	20002828 <_malloc_r>
20004794:	00050993          	mv	s3,a0
20004798:	00051663          	bnez	a0,200047a4 <_realloc_r+0x94>
2000479c:	00098493          	mv	s1,s3
200047a0:	fadff06f          	j	2000474c <_realloc_r+0x3c>
200047a4:	00040613          	mv	a2,s0
200047a8:	00897463          	bgeu	s2,s0,200047b0 <_realloc_r+0xa0>
200047ac:	00090613          	mv	a2,s2
200047b0:	00048593          	mv	a1,s1
200047b4:	00098513          	mv	a0,s3
200047b8:	f35ff0ef          	jal	200046ec <memcpy>
200047bc:	00048593          	mv	a1,s1
200047c0:	000a0513          	mv	a0,s4
200047c4:	ec1fd0ef          	jal	20002684 <_free_r>
200047c8:	fd5ff06f          	j	2000479c <_realloc_r+0x8c>

200047cc <_malloc_usable_size_r>:
200047cc:	ffc5a783          	lw	a5,-4(a1)
200047d0:	ffc78513          	addi	a0,a5,-4
200047d4:	0007d863          	bgez	a5,200047e4 <_malloc_usable_size_r+0x18>
200047d8:	00a585b3          	add	a1,a1,a0
200047dc:	0005a783          	lw	a5,0(a1)
200047e0:	00f50533          	add	a0,a0,a5
200047e4:	00008067          	ret
200047e8:	500a                	.insn	2, 0x500a
200047ea:	6f72                	.insn	2, 0x6f72
200047ec:	6d617267          	.insn	4, 0x6d617267
200047f0:	6520                	.insn	2, 0x6520
200047f2:	6978                	.insn	2, 0x6978
200047f4:	6574                	.insn	2, 0x6574
200047f6:	2064                	.insn	2, 0x2064
200047f8:	68746977          	.insn	4, 0x68746977
200047fc:	6320                	.insn	2, 0x6320
200047fe:	2065646f          	jal	s0,2005aa04 <__stack_top+0x54fa0>
20004802:	6425                	.insn	2, 0x6425
20004804:	000a                	.insn	2, 0x000a
	...

20004808 <__clz_tab>:
20004808:	0100 0202 0303 0303 0404 0404 0404 0404     ................
20004818:	0505 0505 0505 0505 0505 0505 0505 0505     ................
20004828:	0606 0606 0606 0606 0606 0606 0606 0606     ................
20004838:	0606 0606 0606 0606 0606 0606 0606 0606     ................
20004848:	0707 0707 0707 0707 0707 0707 0707 0707     ................
20004858:	0707 0707 0707 0707 0707 0707 0707 0707     ................
20004868:	0707 0707 0707 0707 0707 0707 0707 0707     ................
20004878:	0707 0707 0707 0707 0707 0707 0707 0707     ................
20004888:	0808 0808 0808 0808 0808 0808 0808 0808     ................
20004898:	0808 0808 0808 0808 0808 0808 0808 0808     ................
200048a8:	0808 0808 0808 0808 0808 0808 0808 0808     ................
200048b8:	0808 0808 0808 0808 0808 0808 0808 0808     ................
200048c8:	0808 0808 0808 0808 0808 0808 0808 0808     ................
200048d8:	0808 0808 0808 0808 0808 0808 0808 0808     ................
200048e8:	0808 0808 0808 0808 0808 0808 0808 0808     ................
200048f8:	0808 0808 0808 0808 0808 0808 0808 0808     ................
20004908:	2d23 2b30 0020 0000 6c68 004c 6665 4567     #-0+ ...hlL.efgE
20004918:	4746 0000 3130 3332 3534 3736 3938 4241     FG..0123456789AB
20004928:	4443 4645 0000 0000 3130 3332 3534 3736     CDEF....01234567
20004938:	3938 6261 6463 6665 0000 0000 30a8 2000     89abcdef.....0. 
20004948:	30c8 2000 3078 2000 3078 2000 3078 2000     .0. x0. x0. x0. 
20004958:	3078 2000 30c8 2000 3078 2000 3078 2000     x0. .0. x0. x0. 
20004968:	3078 2000 3078 2000 32b4 2000 3120 2000     x0. x0. .2.  1. 
20004978:	322c 2000 3078 2000 3078 2000 32fc 2000     ,2. x0. x0. .2. 
20004988:	3078 2000 3120 2000 3078 2000 3078 2000     x0.  1. x0. x0. 
20004998:	3238 2000                                   82. 
