
build/labb-4.elf:     file format elf32-littleriscv


Disassembly of section .text:

20000000 <_start>:
20000000:	2001c137          	lui	sp,0x2001c
20000004:	5ad030ef          	jal	20003db0 <_crt_init>
20000008:	00001297          	auipc	t0,0x1
2000000c:	cf028293          	addi	t0,t0,-784 # 20000cf8 <main>
20000010:	00000097          	auipc	ra,0x0
20000014:	01c08093          	addi	ra,ra,28 # 2000002c <exit>
20000018:	34129073          	csrw	mepc,t0
2000001c:	00004337          	lui	t1,0x4
20000020:	88030313          	addi	t1,t1,-1920 # 3880 <_start-0x1fffc780>
20000024:	30031073          	csrw	mstatus,t1
20000028:	30200073          	mret

2000002c <exit>:
2000002c:	7cd030ef          	jal	20003ff8 <_crt_deinit>
20000030:	0000006f          	j	20000030 <exit+0x4>

20000034 <init_gpio>:
#include "gpio.h"

void init_gpio() {
20000034:	ff010113          	addi	sp,sp,-16 # 2001bff0 <__stack_top+0x11e2c>
20000038:	00112623          	sw	ra,12(sp)
2000003c:	00812423          	sw	s0,8(sp)
20000040:	01010413          	addi	s0,sp,16
  // GPIOD [0:7] keypad
  // - cols [0:3] (input, pull-up)
  // - rows [4:7] (output, open drain, 2 MHz)
  GPIOD->CFGLR = 0x66668888;
20000044:	400117b7          	lui	a5,0x40011
20000048:	40078793          	addi	a5,a5,1024 # 40011400 <__stack_top+0x2000723c>
2000004c:	66669737          	lui	a4,0x66669
20000050:	88870713          	addi	a4,a4,-1912 # 66668888 <__stack_top+0x4665e6c4>
20000054:	00e7a023          	sw	a4,0(a5)
  GPIOD->BSR = 0xF << 0;
20000058:	400117b7          	lui	a5,0x40011
2000005c:	40078793          	addi	a5,a5,1024 # 40011400 <__stack_top+0x2000723c>
20000060:	00f00713          	li	a4,15
20000064:	00e79823          	sh	a4,16(a5)
  // Activate all rows
  GPIOD->BCR = 0xF << 4;
20000068:	400117b7          	lui	a5,0x40011
2000006c:	40078793          	addi	a5,a5,1024 # 40011400 <__stack_top+0x2000723c>
20000070:	0f000713          	li	a4,240
20000074:	00e79a23          	sh	a4,20(a5)
  // GPIOE [0] buzzer (output, push/pull, 2 MHz)
  GPIOE->CFGLR &= ~(0xF << 0);
20000078:	400127b7          	lui	a5,0x40012
2000007c:	80078793          	addi	a5,a5,-2048 # 40011800 <__stack_top+0x2000763c>
20000080:	0007a703          	lw	a4,0(a5)
20000084:	400127b7          	lui	a5,0x40012
20000088:	80078793          	addi	a5,a5,-2048 # 40011800 <__stack_top+0x2000763c>
2000008c:	ff077713          	andi	a4,a4,-16
20000090:	00e7a023          	sw	a4,0(a5)
  GPIOE->CFGLR |=  (0x2 << 0);
20000094:	400127b7          	lui	a5,0x40012
20000098:	80078793          	addi	a5,a5,-2048 # 40011800 <__stack_top+0x2000763c>
2000009c:	0007a703          	lw	a4,0(a5)
200000a0:	400127b7          	lui	a5,0x40012
200000a4:	80078793          	addi	a5,a5,-2048 # 40011800 <__stack_top+0x2000763c>
200000a8:	00276713          	ori	a4,a4,2
200000ac:	00e7a023          	sw	a4,0(a5)
  // GPIOD [8:15] bargraph (output, push/pull, 2 MHz)
  GPIOD->CFGHR = 0x22222222;
200000b0:	400117b7          	lui	a5,0x40011
200000b4:	40078793          	addi	a5,a5,1024 # 40011400 <__stack_top+0x2000723c>
200000b8:	22222737          	lui	a4,0x22222
200000bc:	22270713          	addi	a4,a4,546 # 22222222 <__stack_top+0x221805e>
200000c0:	00e7a223          	sw	a4,4(a5)
  // turn off all leds
  GPIOD->BCR = 0xFF << 8;
200000c4:	400117b7          	lui	a5,0x40011
200000c8:	40078793          	addi	a5,a5,1024 # 40011400 <__stack_top+0x2000723c>
200000cc:	f0000713          	li	a4,-256
200000d0:	00e79a23          	sh	a4,20(a5)
}
200000d4:	00000013          	nop
200000d8:	00c12083          	lw	ra,12(sp)
200000dc:	00812403          	lw	s0,8(sp)
200000e0:	01010113          	addi	sp,sp,16
200000e4:	00008067          	ret

200000e8 <init_interrupts>:
#include "afio.h"
#include "exti.h"
#include "pfic.h"

void init_interrupts() {
200000e8:	ff010113          	addi	sp,sp,-16
200000ec:	00112623          	sw	ra,12(sp)
200000f0:	00812423          	sw	s0,8(sp)
200000f4:	01010413          	addi	s0,sp,16
  // Enable systick interrupts
  IENR_SET(12);
200000f8:	e000e7b7          	lui	a5,0xe000e
200000fc:	10078793          	addi	a5,a5,256 # e000e100 <__stack_top+0xc0003f3c>
20000100:	0007a683          	lw	a3,0(a5)
20000104:	e000e7b7          	lui	a5,0xe000e
20000108:	10078793          	addi	a5,a5,256 # e000e100 <__stack_top+0xc0003f3c>
2000010c:	00001737          	lui	a4,0x1
20000110:	00e6e733          	or	a4,a3,a4
20000114:	00e7a023          	sw	a4,0(a5)
  // Enable EXTI{0,1,2,3}
  IENR_SET(22);
20000118:	e000e7b7          	lui	a5,0xe000e
2000011c:	10078793          	addi	a5,a5,256 # e000e100 <__stack_top+0xc0003f3c>
20000120:	0007a683          	lw	a3,0(a5)
20000124:	e000e7b7          	lui	a5,0xe000e
20000128:	10078793          	addi	a5,a5,256 # e000e100 <__stack_top+0xc0003f3c>
2000012c:	00400737          	lui	a4,0x400
20000130:	00e6e733          	or	a4,a3,a4
20000134:	00e7a023          	sw	a4,0(a5)
  IENR_SET(23);
20000138:	e000e7b7          	lui	a5,0xe000e
2000013c:	10078793          	addi	a5,a5,256 # e000e100 <__stack_top+0xc0003f3c>
20000140:	0007a683          	lw	a3,0(a5)
20000144:	e000e7b7          	lui	a5,0xe000e
20000148:	10078793          	addi	a5,a5,256 # e000e100 <__stack_top+0xc0003f3c>
2000014c:	00800737          	lui	a4,0x800
20000150:	00e6e733          	or	a4,a3,a4
20000154:	00e7a023          	sw	a4,0(a5)
  IENR_SET(24);
20000158:	e000e7b7          	lui	a5,0xe000e
2000015c:	10078793          	addi	a5,a5,256 # e000e100 <__stack_top+0xc0003f3c>
20000160:	0007a683          	lw	a3,0(a5)
20000164:	e000e7b7          	lui	a5,0xe000e
20000168:	10078793          	addi	a5,a5,256 # e000e100 <__stack_top+0xc0003f3c>
2000016c:	01000737          	lui	a4,0x1000
20000170:	00e6e733          	or	a4,a3,a4
20000174:	00e7a023          	sw	a4,0(a5)
  IENR_SET(25);
20000178:	e000e7b7          	lui	a5,0xe000e
2000017c:	10078793          	addi	a5,a5,256 # e000e100 <__stack_top+0xc0003f3c>
20000180:	0007a683          	lw	a3,0(a5)
20000184:	e000e7b7          	lui	a5,0xe000e
20000188:	10078793          	addi	a5,a5,256 # e000e100 <__stack_top+0xc0003f3c>
2000018c:	02000737          	lui	a4,0x2000
20000190:	00e6e733          	or	a4,a3,a4
20000194:	00e7a023          	sw	a4,0(a5)
  // Connect EXTI{0,1,2,3} to port D
  AFIO->EXTICR1 = 0x3333;
20000198:	400107b7          	lui	a5,0x40010
2000019c:	00003737          	lui	a4,0x3
200001a0:	33370713          	addi	a4,a4,819 # 3333 <_start-0x1fffcccd>
200001a4:	00e79423          	sh	a4,8(a5) # 40010008 <__stack_top+0x20005e44>
  // Use rising and falling triggers on lines {0,1,2,3}
  //EXTI->RTENR |= 0xF << 0;
  EXTI->FTENR |= 0xF << 0;
200001a8:	400107b7          	lui	a5,0x40010
200001ac:	40078793          	addi	a5,a5,1024 # 40010400 <__stack_top+0x2000623c>
200001b0:	00c7a703          	lw	a4,12(a5)
200001b4:	400107b7          	lui	a5,0x40010
200001b8:	40078793          	addi	a5,a5,1024 # 40010400 <__stack_top+0x2000623c>
200001bc:	00f76713          	ori	a4,a4,15
200001c0:	00e7a623          	sw	a4,12(a5)
  // Enable interrupts on lines {0,1,2,3}
  EXTI->INTENR |= 0xF << 0;
200001c4:	400107b7          	lui	a5,0x40010
200001c8:	40078793          	addi	a5,a5,1024 # 40010400 <__stack_top+0x2000623c>
200001cc:	0007a703          	lw	a4,0(a5)
200001d0:	400107b7          	lui	a5,0x40010
200001d4:	40078793          	addi	a5,a5,1024 # 40010400 <__stack_top+0x2000623c>
200001d8:	00f76713          	ori	a4,a4,15
200001dc:	00e7a023          	sw	a4,0(a5)
}
200001e0:	00000013          	nop
200001e4:	00c12083          	lw	ra,12(sp)
200001e8:	00812403          	lw	s0,8(sp)
200001ec:	01010113          	addi	sp,sp,16
200001f0:	00008067          	ret

200001f4 <keypad>:
#include "gpio.h"
#include "keypad.h"

uint8_t keypad() {
200001f4:	fe010113          	addi	sp,sp,-32
200001f8:	00112e23          	sw	ra,28(sp)
200001fc:	00812c23          	sw	s0,24(sp)
20000200:	02010413          	addi	s0,sp,32
  int row;
  int col;
  uint16_t idr;
  // Deactivate all rows
  GPIOD->BSR = 0xF << 4;
20000204:	400117b7          	lui	a5,0x40011
20000208:	40078793          	addi	a5,a5,1024 # 40011400 <__stack_top+0x2000723c>
2000020c:	0f000713          	li	a4,240
20000210:	00e79823          	sh	a4,16(a5)
  // For each row:
  for (row = 0; row < 4; row++) {
20000214:	fe042623          	sw	zero,-20(s0)
20000218:	0cc0006f          	j	200002e4 <keypad+0xf0>
    // Activate row
    GPIOD->BCR = 1 << (row + 4);
2000021c:	fec42783          	lw	a5,-20(s0)
20000220:	00478793          	addi	a5,a5,4
20000224:	00100713          	li	a4,1
20000228:	00f71733          	sll	a4,a4,a5
2000022c:	400117b7          	lui	a5,0x40011
20000230:	40078793          	addi	a5,a5,1024 # 40011400 <__stack_top+0x2000723c>
20000234:	01071713          	slli	a4,a4,0x10
20000238:	01075713          	srli	a4,a4,0x10
2000023c:	00e79a23          	sh	a4,20(a5)
    // pin update speed set to 2 MHz
    // => need to wait for 500 ns before reading columns
    // but can't overwrite systick, so we'll waste time with an empty loop
    for (int i = 0; i < 100; i++) {
20000240:	fe042223          	sw	zero,-28(s0)
20000244:	0100006f          	j	20000254 <keypad+0x60>
20000248:	fe442783          	lw	a5,-28(s0)
2000024c:	00178793          	addi	a5,a5,1
20000250:	fef42223          	sw	a5,-28(s0)
20000254:	fe442703          	lw	a4,-28(s0)
20000258:	06300793          	li	a5,99
2000025c:	fee7d6e3          	bge	a5,a4,20000248 <keypad+0x54>
    }
    // For each column:
    // if column is active, activate all rows and return key index
    idr = GPIOD->IDR;
20000260:	400117b7          	lui	a5,0x40011
20000264:	40078793          	addi	a5,a5,1024 # 40011400 <__stack_top+0x2000723c>
20000268:	0087d783          	lhu	a5,8(a5)
2000026c:	fef41123          	sh	a5,-30(s0)
    for (col = 0; col < 4; col++) {
20000270:	fe042423          	sw	zero,-24(s0)
20000274:	0580006f          	j	200002cc <keypad+0xd8>
      if ((idr & (1 << col)) == 0) {
20000278:	fe245703          	lhu	a4,-30(s0)
2000027c:	fe842783          	lw	a5,-24(s0)
20000280:	40f757b3          	sra	a5,a4,a5
20000284:	0017f793          	andi	a5,a5,1
20000288:	02079c63          	bnez	a5,200002c0 <keypad+0xcc>
        GPIOD->BCR = 0xF << 4;
2000028c:	400117b7          	lui	a5,0x40011
20000290:	40078793          	addi	a5,a5,1024 # 40011400 <__stack_top+0x2000723c>
20000294:	0f000713          	li	a4,240
20000298:	00e79a23          	sh	a4,20(a5)
        return 4 * row + col;
2000029c:	fec42783          	lw	a5,-20(s0)
200002a0:	0ff7f793          	zext.b	a5,a5
200002a4:	00279793          	slli	a5,a5,0x2
200002a8:	0ff7f713          	zext.b	a4,a5
200002ac:	fe842783          	lw	a5,-24(s0)
200002b0:	0ff7f793          	zext.b	a5,a5
200002b4:	00f707b3          	add	a5,a4,a5
200002b8:	0ff7f793          	zext.b	a5,a5
200002bc:	0480006f          	j	20000304 <keypad+0x110>
    for (col = 0; col < 4; col++) {
200002c0:	fe842783          	lw	a5,-24(s0)
200002c4:	00178793          	addi	a5,a5,1
200002c8:	fef42423          	sw	a5,-24(s0)
200002cc:	fe842703          	lw	a4,-24(s0)
200002d0:	00300793          	li	a5,3
200002d4:	fae7d2e3          	bge	a5,a4,20000278 <keypad+0x84>
  for (row = 0; row < 4; row++) {
200002d8:	fec42783          	lw	a5,-20(s0)
200002dc:	00178793          	addi	a5,a5,1
200002e0:	fef42623          	sw	a5,-20(s0)
200002e4:	fec42703          	lw	a4,-20(s0)
200002e8:	00300793          	li	a5,3
200002ec:	f2e7d8e3          	bge	a5,a4,2000021c <keypad+0x28>
      }
    }
  }
  // No key pressed. Activate all rows and return error code
  GPIOD->BCR = 0xF << 4;
200002f0:	400117b7          	lui	a5,0x40011
200002f4:	40078793          	addi	a5,a5,1024 # 40011400 <__stack_top+0x2000723c>
200002f8:	0f000713          	li	a4,240
200002fc:	00e79a23          	sh	a4,20(a5)
  return 0xFF;
20000300:	0ff00793          	li	a5,255
}
20000304:	00078513          	mv	a0,a5
20000308:	01c12083          	lw	ra,28(sp)
2000030c:	01812403          	lw	s0,24(sp)
20000310:	02010113          	addi	sp,sp,32
20000314:	00008067          	ret

20000318 <resetball>:
    0, 0, 0, 0,
    P2DOWN, 0, 0, P1DOWN
};


void resetball(){
20000318:	ff010113          	addi	sp,sp,-16
2000031c:	00112623          	sw	ra,12(sp)
20000320:	00812423          	sw	s0,8(sp)
20000324:	01010413          	addi	s0,sp,16
    ball.x = 240;
20000328:	200097b7          	lui	a5,0x20009
2000032c:	38878793          	addi	a5,a5,904 # 20009388 <ball>
20000330:	0f000713          	li	a4,240
20000334:	00e7a023          	sw	a4,0(a5)
    ball.y = 160;
20000338:	200097b7          	lui	a5,0x20009
2000033c:	38878793          	addi	a5,a5,904 # 20009388 <ball>
20000340:	0a000713          	li	a4,160
20000344:	00e7a223          	sw	a4,4(a5)
    ball.speed_x = 3;
20000348:	200097b7          	lui	a5,0x20009
2000034c:	38878793          	addi	a5,a5,904 # 20009388 <ball>
20000350:	00300713          	li	a4,3
20000354:	00e7a423          	sw	a4,8(a5)
    ball.speed_y = 1;
20000358:	200097b7          	lui	a5,0x20009
2000035c:	38878793          	addi	a5,a5,904 # 20009388 <ball>
20000360:	00100713          	li	a4,1
20000364:	00e7a623          	sw	a4,12(a5)
    ball.size = 10;  // x, y, speed_x, speed_y, size
20000368:	200097b7          	lui	a5,0x20009
2000036c:	38878793          	addi	a5,a5,904 # 20009388 <ball>
20000370:	00a00713          	li	a4,10
20000374:	00e7a823          	sw	a4,16(a5)
    if (P1.score == 4|| P2.score == 4){
20000378:	200097b7          	lui	a5,0x20009
2000037c:	36078793          	addi	a5,a5,864 # 20009360 <P1>
20000380:	0107a703          	lw	a4,16(a5)
20000384:	00400793          	li	a5,4
20000388:	00f70c63          	beq	a4,a5,200003a0 <resetball+0x88>
2000038c:	200097b7          	lui	a5,0x20009
20000390:	37478793          	addi	a5,a5,884 # 20009374 <P2>
20000394:	0107a703          	lw	a4,16(a5)
20000398:	00400793          	li	a5,4
2000039c:	00f71e63          	bne	a4,a5,200003b8 <resetball+0xa0>
        P1.score = 0;
200003a0:	200097b7          	lui	a5,0x20009
200003a4:	36078793          	addi	a5,a5,864 # 20009360 <P1>
200003a8:	0007a823          	sw	zero,16(a5)
        P2.score = 0;
200003ac:	200097b7          	lui	a5,0x20009
200003b0:	37478793          	addi	a5,a5,884 # 20009374 <P2>
200003b4:	0007a823          	sw	zero,16(a5)
    }
}
200003b8:	00000013          	nop
200003bc:	00c12083          	lw	ra,12(sp)
200003c0:	00812403          	lw	s0,8(sp)
200003c4:	01010113          	addi	sp,sp,16
200003c8:	00008067          	ret

200003cc <toggleBuzzer>:
// volatile int counter = 0;
volatile int buzzCount = 0;
void toggleBuzzer(){
200003cc:	ff010113          	addi	sp,sp,-16
200003d0:	00112623          	sw	ra,12(sp)
200003d4:	00812423          	sw	s0,8(sp)
200003d8:	01010413          	addi	s0,sp,16
    GPIOE->ODR ^= (1<<0);
200003dc:	400127b7          	lui	a5,0x40012
200003e0:	80078793          	addi	a5,a5,-2048 # 40011800 <__stack_top+0x2000763c>
200003e4:	00c7d783          	lhu	a5,12(a5)
200003e8:	01079713          	slli	a4,a5,0x10
200003ec:	01075713          	srli	a4,a4,0x10
200003f0:	400127b7          	lui	a5,0x40012
200003f4:	80078793          	addi	a5,a5,-2048 # 40011800 <__stack_top+0x2000763c>
200003f8:	00174713          	xori	a4,a4,1
200003fc:	01071713          	slli	a4,a4,0x10
20000400:	01075713          	srli	a4,a4,0x10
20000404:	00e79623          	sh	a4,12(a5)
}
20000408:	00000013          	nop
2000040c:	00c12083          	lw	ra,12(sp)
20000410:	00812403          	lw	s0,8(sp)
20000414:	01010113          	addi	sp,sp,16
20000418:	00008067          	ret

2000041c <update_bargraph>:


void update_bargraph() {
2000041c:	fe010113          	addi	sp,sp,-32
20000420:	00112e23          	sw	ra,28(sp)
20000424:	00812c23          	sw	s0,24(sp)
20000428:	02010413          	addi	s0,sp,32
    uint16_t bargraph = 0;
2000042c:	fe041723          	sh	zero,-18(s0)
    for (int i = 0; i < P1.score; i++) {
20000430:	fe042423          	sw	zero,-24(s0)
20000434:	0380006f          	j	2000046c <update_bargraph+0x50>
        bargraph |= (1 << i);
20000438:	fe842783          	lw	a5,-24(s0)
2000043c:	00100713          	li	a4,1
20000440:	00f717b3          	sll	a5,a4,a5
20000444:	01079713          	slli	a4,a5,0x10
20000448:	41075713          	srai	a4,a4,0x10
2000044c:	fee41783          	lh	a5,-18(s0)
20000450:	00f767b3          	or	a5,a4,a5
20000454:	01079793          	slli	a5,a5,0x10
20000458:	4107d793          	srai	a5,a5,0x10
2000045c:	fef41723          	sh	a5,-18(s0)
    for (int i = 0; i < P1.score; i++) {
20000460:	fe842783          	lw	a5,-24(s0)
20000464:	00178793          	addi	a5,a5,1
20000468:	fef42423          	sw	a5,-24(s0)
2000046c:	200097b7          	lui	a5,0x20009
20000470:	36078793          	addi	a5,a5,864 # 20009360 <P1>
20000474:	0107a783          	lw	a5,16(a5)
20000478:	fe842703          	lw	a4,-24(s0)
2000047c:	faf74ee3          	blt	a4,a5,20000438 <update_bargraph+0x1c>
    }
    for (int i = 0; i < P2.score; i++) {
20000480:	fe042223          	sw	zero,-28(s0)
20000484:	0400006f          	j	200004c4 <update_bargraph+0xa8>
        bargraph |= (1 << (7 - i));
20000488:	00700713          	li	a4,7
2000048c:	fe442783          	lw	a5,-28(s0)
20000490:	40f707b3          	sub	a5,a4,a5
20000494:	00100713          	li	a4,1
20000498:	00f717b3          	sll	a5,a4,a5
2000049c:	01079713          	slli	a4,a5,0x10
200004a0:	41075713          	srai	a4,a4,0x10
200004a4:	fee41783          	lh	a5,-18(s0)
200004a8:	00f767b3          	or	a5,a4,a5
200004ac:	01079793          	slli	a5,a5,0x10
200004b0:	4107d793          	srai	a5,a5,0x10
200004b4:	fef41723          	sh	a5,-18(s0)
    for (int i = 0; i < P2.score; i++) {
200004b8:	fe442783          	lw	a5,-28(s0)
200004bc:	00178793          	addi	a5,a5,1
200004c0:	fef42223          	sw	a5,-28(s0)
200004c4:	200097b7          	lui	a5,0x20009
200004c8:	37478793          	addi	a5,a5,884 # 20009374 <P2>
200004cc:	0107a783          	lw	a5,16(a5)
200004d0:	fe442703          	lw	a4,-28(s0)
200004d4:	faf74ae3          	blt	a4,a5,20000488 <update_bargraph+0x6c>
    }
    GPIOD->ODR = (GPIOD->ODR & 0x00FF) | (bargraph << 8);
200004d8:	400117b7          	lui	a5,0x40011
200004dc:	40078793          	addi	a5,a5,1024 # 40011400 <__stack_top+0x2000723c>
200004e0:	00c7d783          	lhu	a5,12(a5)
200004e4:	01079793          	slli	a5,a5,0x10
200004e8:	0107d793          	srli	a5,a5,0x10
200004ec:	01079793          	slli	a5,a5,0x10
200004f0:	4107d793          	srai	a5,a5,0x10
200004f4:	0ff7f793          	zext.b	a5,a5
200004f8:	01079713          	slli	a4,a5,0x10
200004fc:	41075713          	srai	a4,a4,0x10
20000500:	fee41783          	lh	a5,-18(s0)
20000504:	00879793          	slli	a5,a5,0x8
20000508:	01079793          	slli	a5,a5,0x10
2000050c:	4107d793          	srai	a5,a5,0x10
20000510:	00f767b3          	or	a5,a4,a5
20000514:	01079713          	slli	a4,a5,0x10
20000518:	41075713          	srai	a4,a4,0x10
2000051c:	400117b7          	lui	a5,0x40011
20000520:	40078793          	addi	a5,a5,1024 # 40011400 <__stack_top+0x2000723c>
20000524:	01071713          	slli	a4,a4,0x10
20000528:	01075713          	srli	a4,a4,0x10
2000052c:	00e79623          	sh	a4,12(a5)
}
20000530:	00000013          	nop
20000534:	01c12083          	lw	ra,28(sp)
20000538:	01812403          	lw	s0,24(sp)
2000053c:	02010113          	addi	sp,sp,32
20000540:	00008067          	ret

20000544 <systick_handler>:
__attribute__((interrupt("machine")))
void systick_handler() {
20000544:	f5010113          	addi	sp,sp,-176
20000548:	0a112623          	sw	ra,172(sp)
2000054c:	0a512423          	sw	t0,168(sp)
20000550:	003022f3          	frcsr	t0
20000554:	0a512223          	sw	t0,164(sp)
20000558:	0a612023          	sw	t1,160(sp)
2000055c:	08712e23          	sw	t2,156(sp)
20000560:	08812c23          	sw	s0,152(sp)
20000564:	08a12a23          	sw	a0,148(sp)
20000568:	08b12823          	sw	a1,144(sp)
2000056c:	08c12623          	sw	a2,140(sp)
20000570:	08d12423          	sw	a3,136(sp)
20000574:	08e12223          	sw	a4,132(sp)
20000578:	08f12023          	sw	a5,128(sp)
2000057c:	07012e23          	sw	a6,124(sp)
20000580:	07112c23          	sw	a7,120(sp)
20000584:	07c12a23          	sw	t3,116(sp)
20000588:	07d12823          	sw	t4,112(sp)
2000058c:	07e12623          	sw	t5,108(sp)
20000590:	07f12423          	sw	t6,104(sp)
20000594:	04012627          	fsw	ft0,76(sp)
20000598:	04112427          	fsw	ft1,72(sp)
2000059c:	04212227          	fsw	ft2,68(sp)
200005a0:	04312027          	fsw	ft3,64(sp)
200005a4:	02412e27          	fsw	ft4,60(sp)
200005a8:	02512c27          	fsw	ft5,56(sp)
200005ac:	02612a27          	fsw	ft6,52(sp)
200005b0:	02712827          	fsw	ft7,48(sp)
200005b4:	02a12627          	fsw	fa0,44(sp)
200005b8:	02b12427          	fsw	fa1,40(sp)
200005bc:	02c12227          	fsw	fa2,36(sp)
200005c0:	02d12027          	fsw	fa3,32(sp)
200005c4:	00e12e27          	fsw	fa4,28(sp)
200005c8:	00f12c27          	fsw	fa5,24(sp)
200005cc:	01012a27          	fsw	fa6,20(sp)
200005d0:	01112827          	fsw	fa7,16(sp)
200005d4:	01c12627          	fsw	ft8,12(sp)
200005d8:	01d12427          	fsw	ft9,8(sp)
200005dc:	01e12227          	fsw	ft10,4(sp)
200005e0:	01f12027          	fsw	ft11,0(sp)
200005e4:	0b010413          	addi	s0,sp,176
    if(buzzCount > 0){
200005e8:	200097b7          	lui	a5,0x20009
200005ec:	5987a783          	lw	a5,1432(a5) # 20009598 <buzzCount>
200005f0:	00f05e63          	blez	a5,2000060c <systick_handler+0xc8>
        toggleBuzzer();
200005f4:	dd9ff0ef          	jal	200003cc <toggleBuzzer>
        buzzCount--;
200005f8:	200097b7          	lui	a5,0x20009
200005fc:	5987a783          	lw	a5,1432(a5) # 20009598 <buzzCount>
20000600:	fff78713          	addi	a4,a5,-1
20000604:	200097b7          	lui	a5,0x20009
20000608:	58e7ac23          	sw	a4,1432(a5) # 20009598 <buzzCount>
    }
    //ERASE

    // Erase old ball
    tft_ellipse(ball.x, ball.y, ball.size, ball.size, COLOR_BLUE, 1);
2000060c:	200097b7          	lui	a5,0x20009
20000610:	5a07a803          	lw	a6,1440(a5) # 200095a0 <tft_ellipse>
20000614:	200097b7          	lui	a5,0x20009
20000618:	38878793          	addi	a5,a5,904 # 20009388 <ball>
2000061c:	0007a503          	lw	a0,0(a5)
20000620:	200097b7          	lui	a5,0x20009
20000624:	38878793          	addi	a5,a5,904 # 20009388 <ball>
20000628:	0047a583          	lw	a1,4(a5)
2000062c:	200097b7          	lui	a5,0x20009
20000630:	38878793          	addi	a5,a5,904 # 20009388 <ball>
20000634:	0107a603          	lw	a2,16(a5)
20000638:	200097b7          	lui	a5,0x20009
2000063c:	38878793          	addi	a5,a5,904 # 20009388 <ball>
20000640:	0107a683          	lw	a3,16(a5)
20000644:	00100793          	li	a5,1
20000648:	01f00713          	li	a4,31
2000064c:	000800e7          	jalr	a6

    //Paddle for player 1 and 2
    tft_rect(P1.x, P1.y - P1.size/2, PWidth, P1.size, COLOR_BLUE, 1);
20000650:	200097b7          	lui	a5,0x20009
20000654:	5a47a803          	lw	a6,1444(a5) # 200095a4 <tft_rect>
20000658:	200097b7          	lui	a5,0x20009
2000065c:	36078793          	addi	a5,a5,864 # 20009360 <P1>
20000660:	0007a503          	lw	a0,0(a5)
20000664:	200097b7          	lui	a5,0x20009
20000668:	36078793          	addi	a5,a5,864 # 20009360 <P1>
2000066c:	0047a703          	lw	a4,4(a5)
20000670:	200097b7          	lui	a5,0x20009
20000674:	36078793          	addi	a5,a5,864 # 20009360 <P1>
20000678:	00c7a783          	lw	a5,12(a5)
2000067c:	01f7d693          	srli	a3,a5,0x1f
20000680:	00f687b3          	add	a5,a3,a5
20000684:	4017d793          	srai	a5,a5,0x1
20000688:	40f007b3          	neg	a5,a5
2000068c:	00f705b3          	add	a1,a4,a5
20000690:	200097b7          	lui	a5,0x20009
20000694:	36078793          	addi	a5,a5,864 # 20009360 <P1>
20000698:	00c7a683          	lw	a3,12(a5)
2000069c:	00100793          	li	a5,1
200006a0:	01f00713          	li	a4,31
200006a4:	00a00613          	li	a2,10
200006a8:	000800e7          	jalr	a6
    tft_rect(P2.x, P2.y - P2.size/2, PWidth, P2.size, COLOR_BLUE, 1);
200006ac:	200097b7          	lui	a5,0x20009
200006b0:	5a47a803          	lw	a6,1444(a5) # 200095a4 <tft_rect>
200006b4:	200097b7          	lui	a5,0x20009
200006b8:	37478793          	addi	a5,a5,884 # 20009374 <P2>
200006bc:	0007a503          	lw	a0,0(a5)
200006c0:	200097b7          	lui	a5,0x20009
200006c4:	37478793          	addi	a5,a5,884 # 20009374 <P2>
200006c8:	0047a703          	lw	a4,4(a5)
200006cc:	200097b7          	lui	a5,0x20009
200006d0:	37478793          	addi	a5,a5,884 # 20009374 <P2>
200006d4:	00c7a783          	lw	a5,12(a5)
200006d8:	01f7d693          	srli	a3,a5,0x1f
200006dc:	00f687b3          	add	a5,a3,a5
200006e0:	4017d793          	srai	a5,a5,0x1
200006e4:	40f007b3          	neg	a5,a5
200006e8:	00f705b3          	add	a1,a4,a5
200006ec:	200097b7          	lui	a5,0x20009
200006f0:	37478793          	addi	a5,a5,884 # 20009374 <P2>
200006f4:	00c7a683          	lw	a3,12(a5)
200006f8:	00100793          	li	a5,1
200006fc:	01f00713          	li	a4,31
20000700:	00a00613          	li	a2,10
20000704:	000800e7          	jalr	a6

    

    //COLLISIONS

    if (ball.x <= ball.size+LeftCollisionWall ) {
20000708:	200097b7          	lui	a5,0x20009
2000070c:	38878793          	addi	a5,a5,904 # 20009388 <ball>
20000710:	0007a703          	lw	a4,0(a5)
20000714:	200097b7          	lui	a5,0x20009
20000718:	38878793          	addi	a5,a5,904 # 20009388 <ball>
2000071c:	0107a683          	lw	a3,16(a5)
20000720:	00a00793          	li	a5,10
20000724:	00f687b3          	add	a5,a3,a5
20000728:	0ce7c463          	blt	a5,a4,200007f0 <systick_handler+0x2ac>
        if(ball.y >= P2.y-(P2.size/2) && ball.y <= P2.y+(P2.size/2)){
2000072c:	200097b7          	lui	a5,0x20009
20000730:	38878793          	addi	a5,a5,904 # 20009388 <ball>
20000734:	0047a703          	lw	a4,4(a5)
20000738:	200097b7          	lui	a5,0x20009
2000073c:	37478793          	addi	a5,a5,884 # 20009374 <P2>
20000740:	0047a683          	lw	a3,4(a5)
20000744:	200097b7          	lui	a5,0x20009
20000748:	37478793          	addi	a5,a5,884 # 20009374 <P2>
2000074c:	00c7a783          	lw	a5,12(a5)
20000750:	01f7d613          	srli	a2,a5,0x1f
20000754:	00f607b3          	add	a5,a2,a5
20000758:	4017d793          	srai	a5,a5,0x1
2000075c:	40f007b3          	neg	a5,a5
20000760:	00f687b3          	add	a5,a3,a5
20000764:	04f74e63          	blt	a4,a5,200007c0 <systick_handler+0x27c>
20000768:	200097b7          	lui	a5,0x20009
2000076c:	38878793          	addi	a5,a5,904 # 20009388 <ball>
20000770:	0047a703          	lw	a4,4(a5)
20000774:	200097b7          	lui	a5,0x20009
20000778:	37478793          	addi	a5,a5,884 # 20009374 <P2>
2000077c:	0047a683          	lw	a3,4(a5)
20000780:	200097b7          	lui	a5,0x20009
20000784:	37478793          	addi	a5,a5,884 # 20009374 <P2>
20000788:	00c7a783          	lw	a5,12(a5)
2000078c:	01f7d613          	srli	a2,a5,0x1f
20000790:	00f607b3          	add	a5,a2,a5
20000794:	4017d793          	srai	a5,a5,0x1
20000798:	00f687b3          	add	a5,a3,a5
2000079c:	02e7c263          	blt	a5,a4,200007c0 <systick_handler+0x27c>
            ball.speed_x = -ball.speed_x;
200007a0:	200097b7          	lui	a5,0x20009
200007a4:	38878793          	addi	a5,a5,904 # 20009388 <ball>
200007a8:	0087a783          	lw	a5,8(a5)
200007ac:	40f00733          	neg	a4,a5
200007b0:	200097b7          	lui	a5,0x20009
200007b4:	38878793          	addi	a5,a5,904 # 20009388 <ball>
200007b8:	00e7a423          	sw	a4,8(a5)
200007bc:	0340006f          	j	200007f0 <systick_handler+0x2ac>
        }else{//lose
            P1.score++; //make it loop back to 0: 0, 1, 2, 3, 0...
200007c0:	200097b7          	lui	a5,0x20009
200007c4:	36078793          	addi	a5,a5,864 # 20009360 <P1>
200007c8:	0107a783          	lw	a5,16(a5)
200007cc:	00178713          	addi	a4,a5,1
200007d0:	200097b7          	lui	a5,0x20009
200007d4:	36078793          	addi	a5,a5,864 # 20009360 <P1>
200007d8:	00e7a823          	sw	a4,16(a5)
            resetball();
200007dc:	b3dff0ef          	jal	20000318 <resetball>
            update_bargraph();
200007e0:	c3dff0ef          	jal	2000041c <update_bargraph>
            buzzCount = 30;
200007e4:	200097b7          	lui	a5,0x20009
200007e8:	01e00713          	li	a4,30
200007ec:	58e7ac23          	sw	a4,1432(a5) # 20009598 <buzzCount>
        }
        
    }
    if(ball.x >= RightCollisionWall -(ball.size+PWidth)){
200007f0:	200097b7          	lui	a5,0x20009
200007f4:	38878793          	addi	a5,a5,904 # 20009388 <ball>
200007f8:	0007a703          	lw	a4,0(a5)
200007fc:	1d500693          	li	a3,469
20000800:	200097b7          	lui	a5,0x20009
20000804:	38878793          	addi	a5,a5,904 # 20009388 <ball>
20000808:	0107a783          	lw	a5,16(a5)
2000080c:	00a78793          	addi	a5,a5,10
20000810:	40f687b3          	sub	a5,a3,a5
20000814:	0cf74463          	blt	a4,a5,200008dc <systick_handler+0x398>
        if(ball.y >= P1.y-(P1.size/2) && ball.y <= P1.y+(P1.size/2)){
20000818:	200097b7          	lui	a5,0x20009
2000081c:	38878793          	addi	a5,a5,904 # 20009388 <ball>
20000820:	0047a703          	lw	a4,4(a5)
20000824:	200097b7          	lui	a5,0x20009
20000828:	36078793          	addi	a5,a5,864 # 20009360 <P1>
2000082c:	0047a683          	lw	a3,4(a5)
20000830:	200097b7          	lui	a5,0x20009
20000834:	36078793          	addi	a5,a5,864 # 20009360 <P1>
20000838:	00c7a783          	lw	a5,12(a5)
2000083c:	01f7d613          	srli	a2,a5,0x1f
20000840:	00f607b3          	add	a5,a2,a5
20000844:	4017d793          	srai	a5,a5,0x1
20000848:	40f007b3          	neg	a5,a5
2000084c:	00f687b3          	add	a5,a3,a5
20000850:	04f74e63          	blt	a4,a5,200008ac <systick_handler+0x368>
20000854:	200097b7          	lui	a5,0x20009
20000858:	38878793          	addi	a5,a5,904 # 20009388 <ball>
2000085c:	0047a703          	lw	a4,4(a5)
20000860:	200097b7          	lui	a5,0x20009
20000864:	36078793          	addi	a5,a5,864 # 20009360 <P1>
20000868:	0047a683          	lw	a3,4(a5)
2000086c:	200097b7          	lui	a5,0x20009
20000870:	36078793          	addi	a5,a5,864 # 20009360 <P1>
20000874:	00c7a783          	lw	a5,12(a5)
20000878:	01f7d613          	srli	a2,a5,0x1f
2000087c:	00f607b3          	add	a5,a2,a5
20000880:	4017d793          	srai	a5,a5,0x1
20000884:	00f687b3          	add	a5,a3,a5
20000888:	02e7c263          	blt	a5,a4,200008ac <systick_handler+0x368>
            ball.speed_x = -ball.speed_x;
2000088c:	200097b7          	lui	a5,0x20009
20000890:	38878793          	addi	a5,a5,904 # 20009388 <ball>
20000894:	0087a783          	lw	a5,8(a5)
20000898:	40f00733          	neg	a4,a5
2000089c:	200097b7          	lui	a5,0x20009
200008a0:	38878793          	addi	a5,a5,904 # 20009388 <ball>
200008a4:	00e7a423          	sw	a4,8(a5)
200008a8:	0340006f          	j	200008dc <systick_handler+0x398>
        }else{//lose
            P2.score++; //make it loop back to 0: 0, 1, 2, 3, 0...
200008ac:	200097b7          	lui	a5,0x20009
200008b0:	37478793          	addi	a5,a5,884 # 20009374 <P2>
200008b4:	0107a783          	lw	a5,16(a5)
200008b8:	00178713          	addi	a4,a5,1
200008bc:	200097b7          	lui	a5,0x20009
200008c0:	37478793          	addi	a5,a5,884 # 20009374 <P2>
200008c4:	00e7a823          	sw	a4,16(a5)
            resetball();
200008c8:	a51ff0ef          	jal	20000318 <resetball>
            update_bargraph();
200008cc:	b51ff0ef          	jal	2000041c <update_bargraph>
            buzzCount = 30;
200008d0:	200097b7          	lui	a5,0x20009
200008d4:	01e00713          	li	a4,30
200008d8:	58e7ac23          	sw	a4,1432(a5) # 20009598 <buzzCount>
           
        }
    }
    if (ball.y <= ball.size || ball.y >= height - ball.size) {
200008dc:	200097b7          	lui	a5,0x20009
200008e0:	38878793          	addi	a5,a5,904 # 20009388 <ball>
200008e4:	0047a703          	lw	a4,4(a5)
200008e8:	200097b7          	lui	a5,0x20009
200008ec:	38878793          	addi	a5,a5,904 # 20009388 <ball>
200008f0:	0107a783          	lw	a5,16(a5)
200008f4:	02e7d463          	bge	a5,a4,2000091c <systick_handler+0x3d8>
200008f8:	200097b7          	lui	a5,0x20009
200008fc:	38878793          	addi	a5,a5,904 # 20009388 <ball>
20000900:	0047a703          	lw	a4,4(a5)
20000904:	200097b7          	lui	a5,0x20009
20000908:	38878793          	addi	a5,a5,904 # 20009388 <ball>
2000090c:	0107a783          	lw	a5,16(a5)
20000910:	13f00693          	li	a3,319
20000914:	40f687b3          	sub	a5,a3,a5
20000918:	02f74063          	blt	a4,a5,20000938 <systick_handler+0x3f4>
        ball.speed_y = -ball.speed_y;
2000091c:	200097b7          	lui	a5,0x20009
20000920:	38878793          	addi	a5,a5,904 # 20009388 <ball>
20000924:	00c7a783          	lw	a5,12(a5)
20000928:	40f00733          	neg	a4,a5
2000092c:	200097b7          	lui	a5,0x20009
20000930:	38878793          	addi	a5,a5,904 # 20009388 <ball>
20000934:	00e7a623          	sw	a4,12(a5)
    }

    // MOVE

    ball.x += ball.speed_x;
20000938:	200097b7          	lui	a5,0x20009
2000093c:	38878793          	addi	a5,a5,904 # 20009388 <ball>
20000940:	0007a703          	lw	a4,0(a5)
20000944:	200097b7          	lui	a5,0x20009
20000948:	38878793          	addi	a5,a5,904 # 20009388 <ball>
2000094c:	0087a783          	lw	a5,8(a5)
20000950:	00f70733          	add	a4,a4,a5
20000954:	200097b7          	lui	a5,0x20009
20000958:	38878793          	addi	a5,a5,904 # 20009388 <ball>
2000095c:	00e7a023          	sw	a4,0(a5)
    ball.y += ball.speed_y;
20000960:	200097b7          	lui	a5,0x20009
20000964:	38878793          	addi	a5,a5,904 # 20009388 <ball>
20000968:	0047a703          	lw	a4,4(a5)
2000096c:	200097b7          	lui	a5,0x20009
20000970:	38878793          	addi	a5,a5,904 # 20009388 <ball>
20000974:	00c7a783          	lw	a5,12(a5)
20000978:	00f70733          	add	a4,a4,a5
2000097c:	200097b7          	lui	a5,0x20009
20000980:	38878793          	addi	a5,a5,904 # 20009388 <ball>
20000984:	00e7a223          	sw	a4,4(a5)
    
    if (P1.y + P1.speed_y - P1.size/2 >= 0 && P1.y + P1.speed_y +P1.size/2<= height) {
20000988:	200097b7          	lui	a5,0x20009
2000098c:	36078793          	addi	a5,a5,864 # 20009360 <P1>
20000990:	0047a703          	lw	a4,4(a5)
20000994:	200097b7          	lui	a5,0x20009
20000998:	36078793          	addi	a5,a5,864 # 20009360 <P1>
2000099c:	0087a783          	lw	a5,8(a5)
200009a0:	00f70733          	add	a4,a4,a5
200009a4:	200097b7          	lui	a5,0x20009
200009a8:	36078793          	addi	a5,a5,864 # 20009360 <P1>
200009ac:	00c7a783          	lw	a5,12(a5)
200009b0:	01f7d693          	srli	a3,a5,0x1f
200009b4:	00f687b3          	add	a5,a3,a5
200009b8:	4017d793          	srai	a5,a5,0x1
200009bc:	40f007b3          	neg	a5,a5
200009c0:	00f707b3          	add	a5,a4,a5
200009c4:	0607c663          	bltz	a5,20000a30 <systick_handler+0x4ec>
200009c8:	200097b7          	lui	a5,0x20009
200009cc:	36078793          	addi	a5,a5,864 # 20009360 <P1>
200009d0:	0047a703          	lw	a4,4(a5)
200009d4:	200097b7          	lui	a5,0x20009
200009d8:	36078793          	addi	a5,a5,864 # 20009360 <P1>
200009dc:	0087a783          	lw	a5,8(a5)
200009e0:	00f70733          	add	a4,a4,a5
200009e4:	200097b7          	lui	a5,0x20009
200009e8:	36078793          	addi	a5,a5,864 # 20009360 <P1>
200009ec:	00c7a783          	lw	a5,12(a5)
200009f0:	01f7d693          	srli	a3,a5,0x1f
200009f4:	00f687b3          	add	a5,a3,a5
200009f8:	4017d793          	srai	a5,a5,0x1
200009fc:	00f70733          	add	a4,a4,a5
20000a00:	13f00793          	li	a5,319
20000a04:	02e7c663          	blt	a5,a4,20000a30 <systick_handler+0x4ec>
        P1.y += P1.speed_y;
20000a08:	200097b7          	lui	a5,0x20009
20000a0c:	36078793          	addi	a5,a5,864 # 20009360 <P1>
20000a10:	0087a703          	lw	a4,8(a5)
20000a14:	200097b7          	lui	a5,0x20009
20000a18:	36078793          	addi	a5,a5,864 # 20009360 <P1>
20000a1c:	0047a783          	lw	a5,4(a5)
20000a20:	00f70733          	add	a4,a4,a5
20000a24:	200097b7          	lui	a5,0x20009
20000a28:	36078793          	addi	a5,a5,864 # 20009360 <P1>
20000a2c:	00e7a223          	sw	a4,4(a5)
    }
    if (P2.y + P2.speed_y - P2.size/2 >= 0 && P2.y + P2.speed_y + P2.size/2 <= height) {
20000a30:	200097b7          	lui	a5,0x20009
20000a34:	37478793          	addi	a5,a5,884 # 20009374 <P2>
20000a38:	0047a703          	lw	a4,4(a5)
20000a3c:	200097b7          	lui	a5,0x20009
20000a40:	37478793          	addi	a5,a5,884 # 20009374 <P2>
20000a44:	0087a783          	lw	a5,8(a5)
20000a48:	00f70733          	add	a4,a4,a5
20000a4c:	200097b7          	lui	a5,0x20009
20000a50:	37478793          	addi	a5,a5,884 # 20009374 <P2>
20000a54:	00c7a783          	lw	a5,12(a5)
20000a58:	01f7d693          	srli	a3,a5,0x1f
20000a5c:	00f687b3          	add	a5,a3,a5
20000a60:	4017d793          	srai	a5,a5,0x1
20000a64:	40f007b3          	neg	a5,a5
20000a68:	00f707b3          	add	a5,a4,a5
20000a6c:	0607c663          	bltz	a5,20000ad8 <systick_handler+0x594>
20000a70:	200097b7          	lui	a5,0x20009
20000a74:	37478793          	addi	a5,a5,884 # 20009374 <P2>
20000a78:	0047a703          	lw	a4,4(a5)
20000a7c:	200097b7          	lui	a5,0x20009
20000a80:	37478793          	addi	a5,a5,884 # 20009374 <P2>
20000a84:	0087a783          	lw	a5,8(a5)
20000a88:	00f70733          	add	a4,a4,a5
20000a8c:	200097b7          	lui	a5,0x20009
20000a90:	37478793          	addi	a5,a5,884 # 20009374 <P2>
20000a94:	00c7a783          	lw	a5,12(a5)
20000a98:	01f7d693          	srli	a3,a5,0x1f
20000a9c:	00f687b3          	add	a5,a3,a5
20000aa0:	4017d793          	srai	a5,a5,0x1
20000aa4:	00f70733          	add	a4,a4,a5
20000aa8:	13f00793          	li	a5,319
20000aac:	02e7c663          	blt	a5,a4,20000ad8 <systick_handler+0x594>
        P2.y += P2.speed_y;
20000ab0:	200097b7          	lui	a5,0x20009
20000ab4:	37478793          	addi	a5,a5,884 # 20009374 <P2>
20000ab8:	0087a703          	lw	a4,8(a5)
20000abc:	200097b7          	lui	a5,0x20009
20000ac0:	37478793          	addi	a5,a5,884 # 20009374 <P2>
20000ac4:	0047a783          	lw	a5,4(a5)
20000ac8:	00f70733          	add	a4,a4,a5
20000acc:	200097b7          	lui	a5,0x20009
20000ad0:	37478793          	addi	a5,a5,884 # 20009374 <P2>
20000ad4:	00e7a223          	sw	a4,4(a5)
    }

    //DRAW

    //Paddle for player 1 and 2
    tft_rect(P1.x, P1.y - P1.size/2, PWidth, P1.size, COLOR_WHITE, 1);
20000ad8:	200097b7          	lui	a5,0x20009
20000adc:	5a47a803          	lw	a6,1444(a5) # 200095a4 <tft_rect>
20000ae0:	200097b7          	lui	a5,0x20009
20000ae4:	36078793          	addi	a5,a5,864 # 20009360 <P1>
20000ae8:	0007a503          	lw	a0,0(a5)
20000aec:	200097b7          	lui	a5,0x20009
20000af0:	36078793          	addi	a5,a5,864 # 20009360 <P1>
20000af4:	0047a703          	lw	a4,4(a5)
20000af8:	200097b7          	lui	a5,0x20009
20000afc:	36078793          	addi	a5,a5,864 # 20009360 <P1>
20000b00:	00c7a783          	lw	a5,12(a5)
20000b04:	01f7d693          	srli	a3,a5,0x1f
20000b08:	00f687b3          	add	a5,a3,a5
20000b0c:	4017d793          	srai	a5,a5,0x1
20000b10:	40f007b3          	neg	a5,a5
20000b14:	00f705b3          	add	a1,a4,a5
20000b18:	200097b7          	lui	a5,0x20009
20000b1c:	36078793          	addi	a5,a5,864 # 20009360 <P1>
20000b20:	00c7a683          	lw	a3,12(a5)
20000b24:	00100793          	li	a5,1
20000b28:	00010737          	lui	a4,0x10
20000b2c:	fff70713          	addi	a4,a4,-1 # ffff <_start-0x1fff0001>
20000b30:	00a00613          	li	a2,10
20000b34:	000800e7          	jalr	a6
    tft_rect(P2.x, P2.y - P2.size/2, PWidth, P2.size, COLOR_WHITE, 1);
20000b38:	200097b7          	lui	a5,0x20009
20000b3c:	5a47a803          	lw	a6,1444(a5) # 200095a4 <tft_rect>
20000b40:	200097b7          	lui	a5,0x20009
20000b44:	37478793          	addi	a5,a5,884 # 20009374 <P2>
20000b48:	0007a503          	lw	a0,0(a5)
20000b4c:	200097b7          	lui	a5,0x20009
20000b50:	37478793          	addi	a5,a5,884 # 20009374 <P2>
20000b54:	0047a703          	lw	a4,4(a5)
20000b58:	200097b7          	lui	a5,0x20009
20000b5c:	37478793          	addi	a5,a5,884 # 20009374 <P2>
20000b60:	00c7a783          	lw	a5,12(a5)
20000b64:	01f7d693          	srli	a3,a5,0x1f
20000b68:	00f687b3          	add	a5,a3,a5
20000b6c:	4017d793          	srai	a5,a5,0x1
20000b70:	40f007b3          	neg	a5,a5
20000b74:	00f705b3          	add	a1,a4,a5
20000b78:	200097b7          	lui	a5,0x20009
20000b7c:	37478793          	addi	a5,a5,884 # 20009374 <P2>
20000b80:	00c7a683          	lw	a3,12(a5)
20000b84:	00100793          	li	a5,1
20000b88:	00010737          	lui	a4,0x10
20000b8c:	fff70713          	addi	a4,a4,-1 # ffff <_start-0x1fff0001>
20000b90:	00a00613          	li	a2,10
20000b94:	000800e7          	jalr	a6

    //ball
    tft_ellipse(ball.x, ball.y, ball.size, ball.size, COLOR_WHITE, 1);
20000b98:	200097b7          	lui	a5,0x20009
20000b9c:	5a07a803          	lw	a6,1440(a5) # 200095a0 <tft_ellipse>
20000ba0:	200097b7          	lui	a5,0x20009
20000ba4:	38878793          	addi	a5,a5,904 # 20009388 <ball>
20000ba8:	0007a503          	lw	a0,0(a5)
20000bac:	200097b7          	lui	a5,0x20009
20000bb0:	38878793          	addi	a5,a5,904 # 20009388 <ball>
20000bb4:	0047a583          	lw	a1,4(a5)
20000bb8:	200097b7          	lui	a5,0x20009
20000bbc:	38878793          	addi	a5,a5,904 # 20009388 <ball>
20000bc0:	0107a603          	lw	a2,16(a5)
20000bc4:	200097b7          	lui	a5,0x20009
20000bc8:	38878793          	addi	a5,a5,904 # 20009388 <ball>
20000bcc:	0107a683          	lw	a3,16(a5)
20000bd0:	00100793          	li	a5,1
20000bd4:	00010737          	lui	a4,0x10
20000bd8:	fff70713          	addi	a4,a4,-1 # ffff <_start-0x1fff0001>
20000bdc:	000800e7          	jalr	a6
    STK->SR &= 0x0;
20000be0:	e000f7b7          	lui	a5,0xe000f
20000be4:	0047a783          	lw	a5,4(a5) # e000f004 <__stack_top+0xc0004e40>
20000be8:	e000f7b7          	lui	a5,0xe000f
20000bec:	0007a223          	sw	zero,4(a5) # e000f004 <__stack_top+0xc0004e40>

}
20000bf0:	00000013          	nop
20000bf4:	0ac12083          	lw	ra,172(sp)
20000bf8:	0a412283          	lw	t0,164(sp)
20000bfc:	00329073          	fscsr	t0
20000c00:	0a812283          	lw	t0,168(sp)
20000c04:	0a012303          	lw	t1,160(sp)
20000c08:	09c12383          	lw	t2,156(sp)
20000c0c:	09812403          	lw	s0,152(sp)
20000c10:	09412503          	lw	a0,148(sp)
20000c14:	09012583          	lw	a1,144(sp)
20000c18:	08c12603          	lw	a2,140(sp)
20000c1c:	08812683          	lw	a3,136(sp)
20000c20:	08412703          	lw	a4,132(sp)
20000c24:	08012783          	lw	a5,128(sp)
20000c28:	07c12803          	lw	a6,124(sp)
20000c2c:	07812883          	lw	a7,120(sp)
20000c30:	07412e03          	lw	t3,116(sp)
20000c34:	07012e83          	lw	t4,112(sp)
20000c38:	06c12f03          	lw	t5,108(sp)
20000c3c:	06812f83          	lw	t6,104(sp)
20000c40:	04c12007          	flw	ft0,76(sp)
20000c44:	04812087          	flw	ft1,72(sp)
20000c48:	04412107          	flw	ft2,68(sp)
20000c4c:	04012187          	flw	ft3,64(sp)
20000c50:	03c12207          	flw	ft4,60(sp)
20000c54:	03812287          	flw	ft5,56(sp)
20000c58:	03412307          	flw	ft6,52(sp)
20000c5c:	03012387          	flw	ft7,48(sp)
20000c60:	02c12507          	flw	fa0,44(sp)
20000c64:	02812587          	flw	fa1,40(sp)
20000c68:	02412607          	flw	fa2,36(sp)
20000c6c:	02012687          	flw	fa3,32(sp)
20000c70:	01c12707          	flw	fa4,28(sp)
20000c74:	01812787          	flw	fa5,24(sp)
20000c78:	01412807          	flw	fa6,20(sp)
20000c7c:	01012887          	flw	fa7,16(sp)
20000c80:	00c12e07          	flw	ft8,12(sp)
20000c84:	00812e87          	flw	ft9,8(sp)
20000c88:	00412f07          	flw	ft10,4(sp)
20000c8c:	00012f87          	flw	ft11,0(sp)
20000c90:	0b010113          	addi	sp,sp,176
20000c94:	30200073          	mret

20000c98 <exti_handler>:
volatile int keypad_pending = 0;
__attribute__((interrupt("machine")))
void exti_handler() {
20000c98:	fe010113          	addi	sp,sp,-32
20000c9c:	00112e23          	sw	ra,28(sp)
20000ca0:	00512c23          	sw	t0,24(sp)
20000ca4:	00812a23          	sw	s0,20(sp)
20000ca8:	00e12823          	sw	a4,16(sp)
20000cac:	00f12623          	sw	a5,12(sp)
20000cb0:	02010413          	addi	s0,sp,32
    EXTI->INTFR = EXTI->INTFR;
20000cb4:	400107b7          	lui	a5,0x40010
20000cb8:	40078713          	addi	a4,a5,1024 # 40010400 <__stack_top+0x2000623c>
20000cbc:	400107b7          	lui	a5,0x40010
20000cc0:	40078793          	addi	a5,a5,1024 # 40010400 <__stack_top+0x2000623c>
20000cc4:	01472703          	lw	a4,20(a4)
20000cc8:	00e7aa23          	sw	a4,20(a5)
    keypad_pending = 1;
20000ccc:	200097b7          	lui	a5,0x20009
20000cd0:	00100713          	li	a4,1
20000cd4:	58e7ae23          	sw	a4,1436(a5) # 2000959c <keypad_pending>
}
20000cd8:	00000013          	nop
20000cdc:	01c12083          	lw	ra,28(sp)
20000ce0:	01812283          	lw	t0,24(sp)
20000ce4:	01412403          	lw	s0,20(sp)
20000ce8:	01012703          	lw	a4,16(sp)
20000cec:	00c12783          	lw	a5,12(sp)
20000cf0:	02010113          	addi	sp,sp,32
20000cf4:	30200073          	mret

20000cf8 <main>:

int main(void){
20000cf8:	fe010113          	addi	sp,sp,-32
20000cfc:	00112e23          	sw	ra,28(sp)
20000d00:	00812c23          	sw	s0,24(sp)
20000d04:	02010413          	addi	s0,sp,32
    init_gpio();
20000d08:	b2cff0ef          	jal	20000034 <init_gpio>
    init_vector_table();
20000d0c:	254000ef          	jal	20000f60 <init_vector_table>
    init_interrupts();
20000d10:	bd8ff0ef          	jal	200000e8 <init_interrupts>
    tft_init();
20000d14:	268000ef          	jal	20000f7c <tft_init>


    tft_rect(0,0,479,319,COLOR_BLUE, 1);
20000d18:	200097b7          	lui	a5,0x20009
20000d1c:	5a47a803          	lw	a6,1444(a5) # 200095a4 <tft_rect>
20000d20:	00100793          	li	a5,1
20000d24:	01f00713          	li	a4,31
20000d28:	13f00693          	li	a3,319
20000d2c:	1df00613          	li	a2,479
20000d30:	00000593          	li	a1,0
20000d34:	00000513          	li	a0,0
20000d38:	000800e7          	jalr	a6


    systick_periodic_micro(16000);  // 16000 ~60fps
20000d3c:	000047b7          	lui	a5,0x4
20000d40:	e8078513          	addi	a0,a5,-384 # 3e80 <_start-0x1fffc180>
20000d44:	114000ef          	jal	20000e58 <systick_periodic_micro>

    

    while(1) {
        if(keypad_pending){
20000d48:	200097b7          	lui	a5,0x20009
20000d4c:	59c7a783          	lw	a5,1436(a5) # 2000959c <keypad_pending>
20000d50:	fe078ce3          	beqz	a5,20000d48 <main+0x50>
            uint8_t key = keypad();
20000d54:	ca0ff0ef          	jal	200001f4 <keypad>
20000d58:	00050793          	mv	a5,a0
20000d5c:	fef407a3          	sb	a5,-17(s0)
            keypad_pending = 0;// Key pressed - start tone and show key number (1-16) on bargraph
20000d60:	200097b7          	lui	a5,0x20009
20000d64:	5807ae23          	sw	zero,1436(a5) # 2000959c <keypad_pending>
            if(keybinds[key]==P1DOWN){
20000d68:	fef44783          	lbu	a5,-17(s0)
20000d6c:	20009737          	lui	a4,0x20009
20000d70:	39c70713          	addi	a4,a4,924 # 2000939c <keybinds>
20000d74:	00279793          	slli	a5,a5,0x2
20000d78:	00f707b3          	add	a5,a4,a5
20000d7c:	0007a703          	lw	a4,0(a5)
20000d80:	00200793          	li	a5,2
20000d84:	00f71c63          	bne	a4,a5,20000d9c <main+0xa4>
                P1.speed_y = PSpeed;}else if(keybinds[key]==P1UP){
20000d88:	200097b7          	lui	a5,0x20009
20000d8c:	36078793          	addi	a5,a5,864 # 20009360 <P1>
20000d90:	00500713          	li	a4,5
20000d94:	00e7a423          	sw	a4,8(a5)
20000d98:	09c0006f          	j	20000e34 <main+0x13c>
20000d9c:	fef44783          	lbu	a5,-17(s0)
20000da0:	20009737          	lui	a4,0x20009
20000da4:	39c70713          	addi	a4,a4,924 # 2000939c <keybinds>
20000da8:	00279793          	slli	a5,a5,0x2
20000dac:	00f707b3          	add	a5,a4,a5
20000db0:	0007a703          	lw	a4,0(a5)
20000db4:	00100793          	li	a5,1
20000db8:	00f71c63          	bne	a4,a5,20000dd0 <main+0xd8>
                P1.speed_y = -PSpeed;}else if(keybinds[key]==P2DOWN){
20000dbc:	200097b7          	lui	a5,0x20009
20000dc0:	36078793          	addi	a5,a5,864 # 20009360 <P1>
20000dc4:	ffb00713          	li	a4,-5
20000dc8:	00e7a423          	sw	a4,8(a5)
20000dcc:	0680006f          	j	20000e34 <main+0x13c>
20000dd0:	fef44783          	lbu	a5,-17(s0)
20000dd4:	20009737          	lui	a4,0x20009
20000dd8:	39c70713          	addi	a4,a4,924 # 2000939c <keybinds>
20000ddc:	00279793          	slli	a5,a5,0x2
20000de0:	00f707b3          	add	a5,a4,a5
20000de4:	0007a703          	lw	a4,0(a5)
20000de8:	00400793          	li	a5,4
20000dec:	00f71c63          	bne	a4,a5,20000e04 <main+0x10c>
                P2.speed_y = PSpeed;}else if(keybinds[key]==P2UP){
20000df0:	200097b7          	lui	a5,0x20009
20000df4:	37478793          	addi	a5,a5,884 # 20009374 <P2>
20000df8:	00500713          	li	a4,5
20000dfc:	00e7a423          	sw	a4,8(a5)
20000e00:	0340006f          	j	20000e34 <main+0x13c>
20000e04:	fef44783          	lbu	a5,-17(s0)
20000e08:	20009737          	lui	a4,0x20009
20000e0c:	39c70713          	addi	a4,a4,924 # 2000939c <keybinds>
20000e10:	00279793          	slli	a5,a5,0x2
20000e14:	00f707b3          	add	a5,a4,a5
20000e18:	0007a703          	lw	a4,0(a5)
20000e1c:	00300793          	li	a5,3
20000e20:	00f71a63          	bne	a4,a5,20000e34 <main+0x13c>
                P2.speed_y = -PSpeed;}
20000e24:	200097b7          	lui	a5,0x20009
20000e28:	37478793          	addi	a5,a5,884 # 20009374 <P2>
20000e2c:	ffb00713          	li	a4,-5
20000e30:	00e7a423          	sw	a4,8(a5)
            for(volatile int d = 0; d < 500; d++);
20000e34:	fe042423          	sw	zero,-24(s0)
20000e38:	0100006f          	j	20000e48 <main+0x150>
20000e3c:	fe842783          	lw	a5,-24(s0)
20000e40:	00178793          	addi	a5,a5,1
20000e44:	fef42423          	sw	a5,-24(s0)
20000e48:	fe842703          	lw	a4,-24(s0)
20000e4c:	1f300793          	li	a5,499
20000e50:	fee7d6e3          	bge	a5,a4,20000e3c <main+0x144>
        if(keypad_pending){
20000e54:	ef5ff06f          	j	20000d48 <main+0x50>

20000e58 <systick_periodic_micro>:
#include "systick.h"
#include <stdint.h>

void systick_periodic_micro(uint32_t us) {
20000e58:	fe010113          	addi	sp,sp,-32
20000e5c:	00112e23          	sw	ra,28(sp)
20000e60:	00812c23          	sw	s0,24(sp)
20000e64:	02010413          	addi	s0,sp,32
20000e68:	fea42623          	sw	a0,-20(s0)
  STK->CTLR = 0;
20000e6c:	e000f7b7          	lui	a5,0xe000f
20000e70:	0007a023          	sw	zero,0(a5) # e000f000 <__stack_top+0xc0004e3c>
  STK->CMPLR = 144 * us - 1;
20000e74:	fec42703          	lw	a4,-20(s0)
20000e78:	00070793          	mv	a5,a4
20000e7c:	00379793          	slli	a5,a5,0x3
20000e80:	00e787b3          	add	a5,a5,a4
20000e84:	00479793          	slli	a5,a5,0x4
20000e88:	00078713          	mv	a4,a5
20000e8c:	e000f7b7          	lui	a5,0xe000f
20000e90:	fff70713          	addi	a4,a4,-1
20000e94:	00e7a823          	sw	a4,16(a5) # e000f010 <__stack_top+0xc0004e4c>
  // - INIT  (bit 5)
  // - STRE  (bit 3)
  // - STCLK (bit 2)
  // - STIE  (bit 1)
  // - STE   (bit 0)
  STK->CTLR = (1 << 5) | (1 << 3) | (1 << 2) | (1 << 1) | (1 << 0);
20000e98:	e000f7b7          	lui	a5,0xe000f
20000e9c:	02f00713          	li	a4,47
20000ea0:	00e7a023          	sw	a4,0(a5) # e000f000 <__stack_top+0xc0004e3c>
}
20000ea4:	00000013          	nop
20000ea8:	01c12083          	lw	ra,28(sp)
20000eac:	01812403          	lw	s0,24(sp)
20000eb0:	02010113          	addi	sp,sp,32
20000eb4:	00008067          	ret

20000eb8 <systick_stop>:

void systick_stop() { STK->CTLR = 0; }
20000eb8:	ff010113          	addi	sp,sp,-16
20000ebc:	00112623          	sw	ra,12(sp)
20000ec0:	00812423          	sw	s0,8(sp)
20000ec4:	01010413          	addi	s0,sp,16
20000ec8:	e000f7b7          	lui	a5,0xe000f
20000ecc:	0007a023          	sw	zero,0(a5) # e000f000 <__stack_top+0xc0004e3c>
20000ed0:	00000013          	nop
20000ed4:	00c12083          	lw	ra,12(sp)
20000ed8:	00812403          	lw	s0,8(sp)
20000edc:	01010113          	addi	sp,sp,16
20000ee0:	00008067          	ret
	...

20000ef0 <vector_table>:
	...
# - EXTI2   (IRQ no. 24)
# - EXTI3   (IRQ no. 25)
.align 2
vector_table:
  .org vector_table + 12 * 4
  j systick_handler
20000f20:	e24ff06f          	j	20000544 <systick_handler>
	...
  .org vector_table + 22 * 4
  j exti_handler
20000f48:	d51ff06f          	j	20000c98 <exti_handler>
  .org vector_table + 23 * 4
  j exti_handler
20000f4c:	d4dff06f          	j	20000c98 <exti_handler>
  .org vector_table + 24 * 4
  j exti_handler
20000f50:	d49ff06f          	j	20000c98 <exti_handler>
  .org vector_table + 25 * 4
  j exti_handler
20000f54:	d45ff06f          	j	20000c98 <exti_handler>
20000f58:	00000013          	nop
20000f5c:	00000013          	nop

20000f60 <init_vector_table>:

.align 4
init_vector_table:
  la t0, vector_table
20000f60:	00000297          	auipc	t0,0x0
20000f64:	f9028293          	addi	t0,t0,-112 # 20000ef0 <vector_table>
  # Use vectored mode (two least significant bits set to 01)
  ori t0, t0, 1
20000f68:	0012e293          	ori	t0,t0,1
  csrw mtvec, t0
20000f6c:	30529073          	csrw	mtvec,t0
  ret
20000f70:	00008067          	ret
20000f74:	00000013          	nop
20000f78:	00000013          	nop

20000f7c <tft_init>:
void (*tft_line)(int  x1, int y1, int x2, int y2, uint16_t colour);
void (*tft_pixel)(int, int, uint16_t colour);
void (*tft_sprite)(int x, int y, uint16_t *data, int w, int h);

void tft_init()
{
20000f7c:	ff010113          	addi	sp,sp,-16
20000f80:	00112623          	sw	ra,12(sp)
20000f84:	00812423          	sw	s0,8(sp)
20000f88:	01010413          	addi	s0,sp,16
	tft_ellipse = hw_tft_ellipse;
20000f8c:	200097b7          	lui	a5,0x20009
20000f90:	20003737          	lui	a4,0x20003
20000f94:	94870713          	addi	a4,a4,-1720 # 20002948 <hw_tft_ellipse>
20000f98:	5ae7a023          	sw	a4,1440(a5) # 200095a0 <tft_ellipse>
	tft_rect = hw_tft_rect;
20000f9c:	200097b7          	lui	a5,0x20009
20000fa0:	20002737          	lui	a4,0x20002
20000fa4:	7e070713          	addi	a4,a4,2016 # 200027e0 <hw_tft_rect>
20000fa8:	5ae7a223          	sw	a4,1444(a5) # 200095a4 <tft_rect>
	tft_line = hw_tft_line;
20000fac:	200097b7          	lui	a5,0x20009
20000fb0:	20002737          	lui	a4,0x20002
20000fb4:	62870713          	addi	a4,a4,1576 # 20002628 <hw_tft_line>
20000fb8:	5ae7a423          	sw	a4,1448(a5) # 200095a8 <tft_line>
	tft_pixel = hw_tft_pixel;
20000fbc:	200097b7          	lui	a5,0x20009
20000fc0:	20002737          	lui	a4,0x20002
20000fc4:	17870713          	addi	a4,a4,376 # 20002178 <hw_tft_pixel>
20000fc8:	5ae7a623          	sw	a4,1452(a5) # 200095ac <tft_pixel>
	tft_sprite = hw_tft_sprite;
20000fcc:	200097b7          	lui	a5,0x20009
20000fd0:	20002737          	lui	a4,0x20002
20000fd4:	39070713          	addi	a4,a4,912 # 20002390 <hw_tft_sprite>
20000fd8:	5ae7a823          	sw	a4,1456(a5) # 200095b0 <tft_sprite>
	hw_tft_init(1);
20000fdc:	00100513          	li	a0,1
20000fe0:	645010ef          	jal	20002e24 <hw_tft_init>
}
20000fe4:	00000013          	nop
20000fe8:	00c12083          	lw	ra,12(sp)
20000fec:	00812403          	lw	s0,8(sp)
20000ff0:	01010113          	addi	sp,sp,16
20000ff4:	00008067          	ret

20000ff8 <timer7_delay1ms>:
static void _tft_lcd_direction(int direction);
static void _tft_lcd_fill(uint16_t sx,uint16_t sy,uint16_t ex,uint16_t ey,uint16_t color);

/* Delay functions using TIMER7 */
void timer7_delay1ms(void )
{
20000ff8:	ff010113          	addi	sp,sp,-16
20000ffc:	00112623          	sw	ra,12(sp)
20001000:	00812423          	sw	s0,8(sp)
20001004:	01010413          	addi	s0,sp,16
	/* System core clock: 144MHz */
	 /* freq: PSC is # of microsecs-1 */
	*TIM7_CTLR1 = 0;
20001008:	400017b7          	lui	a5,0x40001
2000100c:	40078793          	addi	a5,a5,1024 # 40001400 <__stack_top+0x1fff723c>
20001010:	00079023          	sh	zero,0(a5)
	*TIM7_CTLR2 = 0;
20001014:	400017b7          	lui	a5,0x40001
20001018:	40478793          	addi	a5,a5,1028 # 40001404 <__stack_top+0x1fff7240>
2000101c:	00079023          	sh	zero,0(a5)
	*TIM7_DMAINTENR = 0;
20001020:	400017b7          	lui	a5,0x40001
20001024:	40c78793          	addi	a5,a5,1036 # 4000140c <__stack_top+0x1fff7248>
20001028:	00079023          	sh	zero,0(a5)
	*TIM7_INTFR = 0;
2000102c:	400017b7          	lui	a5,0x40001
20001030:	41078793          	addi	a5,a5,1040 # 40001410 <__stack_top+0x1fff724c>
20001034:	00079023          	sh	zero,0(a5)
	*TIM7_PSC= 143; /* 1 us */
20001038:	400017b7          	lui	a5,0x40001
2000103c:	42878793          	addi	a5,a5,1064 # 40001428 <__stack_top+0x1fff7264>
20001040:	08f00713          	li	a4,143
20001044:	00e79023          	sh	a4,0(a5)
	*TIM7_ATRLR = 999; /* times 1000  -> 1 ms */
20001048:	400017b7          	lui	a5,0x40001
2000104c:	42c78793          	addi	a5,a5,1068 # 4000142c <__stack_top+0x1fff7268>
20001050:	3e700713          	li	a4,999
20001054:	00e79023          	sh	a4,0(a5)
	*TIM7_CTLR1 = TIM_CEN;
20001058:	400017b7          	lui	a5,0x40001
2000105c:	40078793          	addi	a5,a5,1024 # 40001400 <__stack_top+0x1fff723c>
20001060:	00100713          	li	a4,1
20001064:	00e79023          	sh	a4,0(a5)
	while( (*TIM7_INTFR & 1 )==0) {}
20001068:	00000013          	nop
2000106c:	400017b7          	lui	a5,0x40001
20001070:	41078793          	addi	a5,a5,1040 # 40001410 <__stack_top+0x1fff724c>
20001074:	0007d783          	lhu	a5,0(a5)
20001078:	01079793          	slli	a5,a5,0x10
2000107c:	0107d793          	srli	a5,a5,0x10
20001080:	0017f793          	andi	a5,a5,1
20001084:	fe0784e3          	beqz	a5,2000106c <timer7_delay1ms+0x74>
	*TIM7_CTLR1 = 0;
20001088:	400017b7          	lui	a5,0x40001
2000108c:	40078793          	addi	a5,a5,1024 # 40001400 <__stack_top+0x1fff723c>
20001090:	00079023          	sh	zero,0(a5)
}
20001094:	00000013          	nop
20001098:	00c12083          	lw	ra,12(sp)
2000109c:	00812403          	lw	s0,8(sp)
200010a0:	01010113          	addi	sp,sp,16
200010a4:	00008067          	ret

200010a8 <_delay_ms>:
void _delay_ms( unsigned int ms )
{
200010a8:	fe010113          	addi	sp,sp,-32
200010ac:	00112e23          	sw	ra,28(sp)
200010b0:	00812c23          	sw	s0,24(sp)
200010b4:	02010413          	addi	s0,sp,32
200010b8:	fea42623          	sw	a0,-20(s0)
	while( ms-- )
200010bc:	0080006f          	j	200010c4 <_delay_ms+0x1c>
		timer7_delay1ms();
200010c0:	f39ff0ef          	jal	20000ff8 <timer7_delay1ms>
	while( ms-- )
200010c4:	fec42783          	lw	a5,-20(s0)
200010c8:	fff78713          	addi	a4,a5,-1
200010cc:	fee42623          	sw	a4,-20(s0)
200010d0:	fe0798e3          	bnez	a5,200010c0 <_delay_ms+0x18>
}
200010d4:	00000013          	nop
200010d8:	00000013          	nop
200010dc:	01c12083          	lw	ra,28(sp)
200010e0:	01812403          	lw	s0,24(sp)
200010e4:	02010113          	addi	sp,sp,32
200010e8:	00008067          	ret

200010ec <timer7_delay1us>:

static void timer7_delay1us(void )
{
200010ec:	ff010113          	addi	sp,sp,-16
200010f0:	00112623          	sw	ra,12(sp)
200010f4:	00812423          	sw	s0,8(sp)
200010f8:	01010413          	addi	s0,sp,16
	/* System core clock: 144MHz */
	 /* freq: PSC is # of microsecs-1 */
	*TIM7_CTLR1 = 0;
200010fc:	400017b7          	lui	a5,0x40001
20001100:	40078793          	addi	a5,a5,1024 # 40001400 <__stack_top+0x1fff723c>
20001104:	00079023          	sh	zero,0(a5)
	*TIM7_INTFR = 0;
20001108:	400017b7          	lui	a5,0x40001
2000110c:	41078793          	addi	a5,a5,1040 # 40001410 <__stack_top+0x1fff724c>
20001110:	00079023          	sh	zero,0(a5)
	*TIM7_PSC= 0; /* 1 us */
20001114:	400017b7          	lui	a5,0x40001
20001118:	42878793          	addi	a5,a5,1064 # 40001428 <__stack_top+0x1fff7264>
2000111c:	00079023          	sh	zero,0(a5)
	*TIM7_ATRLR = 143; /* 1 us */
20001120:	400017b7          	lui	a5,0x40001
20001124:	42c78793          	addi	a5,a5,1068 # 4000142c <__stack_top+0x1fff7268>
20001128:	08f00713          	li	a4,143
2000112c:	00e79023          	sh	a4,0(a5)
	*TIM7_CTLR1 = TIM_CEN ;
20001130:	400017b7          	lui	a5,0x40001
20001134:	40078793          	addi	a5,a5,1024 # 40001400 <__stack_top+0x1fff723c>
20001138:	00100713          	li	a4,1
2000113c:	00e79023          	sh	a4,0(a5)
	while( (*TIM7_INTFR & 1 )==0) {}
20001140:	00000013          	nop
20001144:	400017b7          	lui	a5,0x40001
20001148:	41078793          	addi	a5,a5,1040 # 40001410 <__stack_top+0x1fff724c>
2000114c:	0007d783          	lhu	a5,0(a5)
20001150:	01079793          	slli	a5,a5,0x10
20001154:	0107d793          	srli	a5,a5,0x10
20001158:	0017f793          	andi	a5,a5,1
2000115c:	fe0784e3          	beqz	a5,20001144 <timer7_delay1us+0x58>
	*TIM7_CTLR1 = 0;
20001160:	400017b7          	lui	a5,0x40001
20001164:	40078793          	addi	a5,a5,1024 # 40001400 <__stack_top+0x1fff723c>
20001168:	00079023          	sh	zero,0(a5)
}
2000116c:	00000013          	nop
20001170:	00c12083          	lw	ra,12(sp)
20001174:	00812403          	lw	s0,8(sp)
20001178:	01010113          	addi	sp,sp,16
2000117c:	00008067          	ret

20001180 <delay_us>:
void delay_us( unsigned int us )
/* Internal use and global when compile/link 
 * not included as library calls */
{
20001180:	fe010113          	addi	sp,sp,-32
20001184:	00112e23          	sw	ra,28(sp)
20001188:	00812c23          	sw	s0,24(sp)
2000118c:	02010413          	addi	s0,sp,32
20001190:	fea42623          	sw	a0,-20(s0)
	while( us-- )
20001194:	0080006f          	j	2000119c <delay_us+0x1c>
		timer7_delay1us();
20001198:	f55ff0ef          	jal	200010ec <timer7_delay1us>
	while( us-- )
2000119c:	fec42783          	lw	a5,-20(s0)
200011a0:	fff78713          	addi	a4,a5,-1
200011a4:	fee42623          	sw	a4,-20(s0)
200011a8:	fe0798e3          	bnez	a5,20001198 <delay_us+0x18>
}
200011ac:	00000013          	nop
200011b0:	00000013          	nop
200011b4:	01c12083          	lw	ra,28(sp)
200011b8:	01812403          	lw	s0,24(sp)
200011bc:	02010113          	addi	sp,sp,32
200011c0:	00008067          	ret

200011c4 <timer7_delay250ns>:

static void timer7_delay250ns(void )
{
200011c4:	ff010113          	addi	sp,sp,-16
200011c8:	00112623          	sw	ra,12(sp)
200011cc:	00812423          	sw	s0,8(sp)
200011d0:	01010413          	addi	s0,sp,16
	/* System core clock: 144MHz */
	 /* freq: PSC is # of microsecs-1 */
	*TIM7_CTLR1 = 0;
200011d4:	400017b7          	lui	a5,0x40001
200011d8:	40078793          	addi	a5,a5,1024 # 40001400 <__stack_top+0x1fff723c>
200011dc:	00079023          	sh	zero,0(a5)
	*TIM7_INTFR = 0;
200011e0:	400017b7          	lui	a5,0x40001
200011e4:	41078793          	addi	a5,a5,1040 # 40001410 <__stack_top+0x1fff724c>
200011e8:	00079023          	sh	zero,0(a5)
	*TIM7_PSC= 0; /* 1 us */
200011ec:	400017b7          	lui	a5,0x40001
200011f0:	42878793          	addi	a5,a5,1064 # 40001428 <__stack_top+0x1fff7264>
200011f4:	00079023          	sh	zero,0(a5)
	*TIM7_ATRLR = 30; /* approx 200 ns */
200011f8:	400017b7          	lui	a5,0x40001
200011fc:	42c78793          	addi	a5,a5,1068 # 4000142c <__stack_top+0x1fff7268>
20001200:	01e00713          	li	a4,30
20001204:	00e79023          	sh	a4,0(a5)
	*TIM7_CTLR1 = TIM_CEN ;
20001208:	400017b7          	lui	a5,0x40001
2000120c:	40078793          	addi	a5,a5,1024 # 40001400 <__stack_top+0x1fff723c>
20001210:	00100713          	li	a4,1
20001214:	00e79023          	sh	a4,0(a5)
	while( (*TIM7_INTFR & 1 )==0) {}
20001218:	00000013          	nop
2000121c:	400017b7          	lui	a5,0x40001
20001220:	41078793          	addi	a5,a5,1040 # 40001410 <__stack_top+0x1fff724c>
20001224:	0007d783          	lhu	a5,0(a5)
20001228:	01079793          	slli	a5,a5,0x10
2000122c:	0107d793          	srli	a5,a5,0x10
20001230:	0017f793          	andi	a5,a5,1
20001234:	fe0784e3          	beqz	a5,2000121c <timer7_delay250ns+0x58>
	*TIM7_CTLR1 = 0;
20001238:	400017b7          	lui	a5,0x40001
2000123c:	40078793          	addi	a5,a5,1024 # 40001400 <__stack_top+0x1fff723c>
20001240:	00079023          	sh	zero,0(a5)
}
20001244:	00000013          	nop
20001248:	00c12083          	lw	ra,12(sp)
2000124c:	00812403          	lw	s0,8(sp)
20001250:	01010113          	addi	sp,sp,16
20001254:	00008067          	ret

20001258 <delay_250ns>:
void delay_250ns( void )
/* Internal use and global when compile/link 
 * not included as library calls */
{
20001258:	ff010113          	addi	sp,sp,-16
2000125c:	00112623          	sw	ra,12(sp)
20001260:	00812423          	sw	s0,8(sp)
20001264:	01010413          	addi	s0,sp,16
	timer7_delay250ns();
20001268:	f5dff0ef          	jal	200011c4 <timer7_delay250ns>
}
2000126c:	00000013          	nop
20001270:	00c12083          	lw	ra,12(sp)
20001274:	00812403          	lw	s0,8(sp)
20001278:	01010113          	addi	sp,sp,16
2000127c:	00008067          	ret

20001280 <tft_display_init>:

/* Initialize the tft display interface */ 
static void tft_display_init(void)	
{	
20001280:	ff010113          	addi	sp,sp,-16
20001284:	00112623          	sw	ra,12(sp)
20001288:	00812423          	sw	s0,8(sp)
2000128c:	01010413          	addi	s0,sp,16
	/* Setup GPIO pins for the wiring interface (LCD and SPI) */
 	/* Enable clocks */
	*RCC_APB2PCENR |= ((SPI1EN)|(IOPBEN)|(IOPAEN)|(AFIOEN));	
20001290:	400217b7          	lui	a5,0x40021
20001294:	01878793          	addi	a5,a5,24 # 40021018 <__stack_top+0x20016e54>
20001298:	0007a683          	lw	a3,0(a5)
2000129c:	400217b7          	lui	a5,0x40021
200012a0:	01878793          	addi	a5,a5,24 # 40021018 <__stack_top+0x20016e54>
200012a4:	00001737          	lui	a4,0x1
200012a8:	00d70713          	addi	a4,a4,13 # 100d <_start-0x1fffeff3>
200012ac:	00e6e733          	or	a4,a3,a4
200012b0:	00e7a023          	sw	a4,0(a5)
	*RCC_APB2PRSTR |= ((SPI1EN)|(IOPBEN)|(IOPAEN)|(AFIOEN));	/* Assert RESET */
200012b4:	400217b7          	lui	a5,0x40021
200012b8:	00c78793          	addi	a5,a5,12 # 4002100c <__stack_top+0x20016e48>
200012bc:	0007a683          	lw	a3,0(a5)
200012c0:	400217b7          	lui	a5,0x40021
200012c4:	00c78793          	addi	a5,a5,12 # 4002100c <__stack_top+0x20016e48>
200012c8:	00001737          	lui	a4,0x1
200012cc:	00d70713          	addi	a4,a4,13 # 100d <_start-0x1fffeff3>
200012d0:	00e6e733          	or	a4,a3,a4
200012d4:	00e7a023          	sw	a4,0(a5)
	*RCC_APB2PRSTR &= ~((SPI1EN)|(IOPBEN)|(IOPAEN)|(AFIOEN));	/* Release RESET */
200012d8:	400217b7          	lui	a5,0x40021
200012dc:	00c78793          	addi	a5,a5,12 # 4002100c <__stack_top+0x20016e48>
200012e0:	0007a683          	lw	a3,0(a5)
200012e4:	400217b7          	lui	a5,0x40021
200012e8:	00c78793          	addi	a5,a5,12 # 4002100c <__stack_top+0x20016e48>
200012ec:	fffff737          	lui	a4,0xfffff
200012f0:	ff270713          	addi	a4,a4,-14 # ffffeff2 <__stack_top+0xdfff4e2e>
200012f4:	00e6f733          	and	a4,a3,a4
200012f8:	00e7a023          	sw	a4,0(a5)

	/* Set up GPIO pins in port B for LED control signals */	
	*GPIO_CFGHR(GPIO_B) &= 0x0000FFFF;	/* Setup PB12-15  as output, push/pull */
200012fc:	400117b7          	lui	a5,0x40011
20001300:	c0478793          	addi	a5,a5,-1020 # 40010c04 <__stack_top+0x20006a40>
20001304:	0007a703          	lw	a4,0(a5)
20001308:	400117b7          	lui	a5,0x40011
2000130c:	c0478793          	addi	a5,a5,-1020 # 40010c04 <__stack_top+0x20006a40>
20001310:	01071713          	slli	a4,a4,0x10
20001314:	01075713          	srli	a4,a4,0x10
20001318:	00e7a023          	sw	a4,0(a5)
	*GPIO_CFGHR(GPIO_B) |= 0x33330000;	
2000131c:	400117b7          	lui	a5,0x40011
20001320:	c0478793          	addi	a5,a5,-1020 # 40010c04 <__stack_top+0x20006a40>
20001324:	0007a683          	lw	a3,0(a5)
20001328:	400117b7          	lui	a5,0x40011
2000132c:	c0478793          	addi	a5,a5,-1020 # 40010c04 <__stack_top+0x20006a40>
20001330:	33330737          	lui	a4,0x33330
20001334:	00e6e733          	or	a4,a3,a4
20001338:	00e7a023          	sw	a4,0(a5)
 /* Set up GPIO pins in port A for SPI
		PA5 = SCK
		PA6 = MISO
		PA7 = MOSI 
 */
	*GPIO_CFGLR(GPIO_A) &= 0x000FFFFF;	
2000133c:	400117b7          	lui	a5,0x40011
20001340:	80078793          	addi	a5,a5,-2048 # 40010800 <__stack_top+0x2000663c>
20001344:	0007a683          	lw	a3,0(a5)
20001348:	400117b7          	lui	a5,0x40011
2000134c:	80078793          	addi	a5,a5,-2048 # 40010800 <__stack_top+0x2000663c>
20001350:	00100737          	lui	a4,0x100
20001354:	fff70713          	addi	a4,a4,-1 # fffff <_start-0x1ff00001>
20001358:	00e6f733          	and	a4,a3,a4
2000135c:	00e7a023          	sw	a4,0(a5)
	*GPIO_CFGLR(GPIO_A) |= 0xB4B00000;	/* PA5,7 is AF PUSH PULL */
20001360:	400117b7          	lui	a5,0x40011
20001364:	80078793          	addi	a5,a5,-2048 # 40010800 <__stack_top+0x2000663c>
20001368:	0007a683          	lw	a3,0(a5)
2000136c:	400117b7          	lui	a5,0x40011
20001370:	80078793          	addi	a5,a5,-2048 # 40010800 <__stack_top+0x2000663c>
20001374:	b4b00737          	lui	a4,0xb4b00
20001378:	00e6e733          	or	a4,a3,a4
2000137c:	00e7a023          	sw	a4,0(a5)
	*GPIO_OUTDR(GPIO_A) |= (1<<6);			/* PA6 is Pullup */
20001380:	400117b7          	lui	a5,0x40011
20001384:	80c78793          	addi	a5,a5,-2036 # 4001080c <__stack_top+0x20006648>
20001388:	0007d783          	lhu	a5,0(a5)
2000138c:	01079713          	slli	a4,a5,0x10
20001390:	01075713          	srli	a4,a4,0x10
20001394:	400117b7          	lui	a5,0x40011
20001398:	80c78793          	addi	a5,a5,-2036 # 4001080c <__stack_top+0x20006648>
2000139c:	04076713          	ori	a4,a4,64
200013a0:	01071713          	slli	a4,a4,0x10
200013a4:	01075713          	srli	a4,a4,0x10
200013a8:	00e79023          	sh	a4,0(a5)

/* Calm hardware */
	LCD_CS_SET;
200013ac:	400117b7          	lui	a5,0x40011
200013b0:	c0c78793          	addi	a5,a5,-1012 # 40010c0c <__stack_top+0x20006a48>
200013b4:	0007d783          	lhu	a5,0(a5)
200013b8:	01079693          	slli	a3,a5,0x10
200013bc:	0106d693          	srli	a3,a3,0x10
200013c0:	400117b7          	lui	a5,0x40011
200013c4:	c0c78793          	addi	a5,a5,-1012 # 40010c0c <__stack_top+0x20006a48>
200013c8:	ffff8737          	lui	a4,0xffff8
200013cc:	00e6e733          	or	a4,a3,a4
200013d0:	01071713          	slli	a4,a4,0x10
200013d4:	01075713          	srli	a4,a4,0x10
200013d8:	00e79023          	sh	a4,0(a5)
	LCD_RST_SET;
200013dc:	400117b7          	lui	a5,0x40011
200013e0:	c0c78793          	addi	a5,a5,-1012 # 40010c0c <__stack_top+0x20006a48>
200013e4:	0007d783          	lhu	a5,0(a5)
200013e8:	01079693          	slli	a3,a5,0x10
200013ec:	0106d693          	srli	a3,a3,0x10
200013f0:	400117b7          	lui	a5,0x40011
200013f4:	c0c78793          	addi	a5,a5,-1012 # 40010c0c <__stack_top+0x20006a48>
200013f8:	00001737          	lui	a4,0x1
200013fc:	00e6e733          	or	a4,a3,a4
20001400:	01071713          	slli	a4,a4,0x10
20001404:	01075713          	srli	a4,a4,0x10
20001408:	00e79023          	sh	a4,0(a5)
#define FPCLK_DIV_32	(4<<3)
#define FPCLK_DIV_64	(5<<3)
#define FPCLK_DIV_128	(6<<3)
#define FPCLK_DIV_256	(7<<3)

	SPI1->cr1 = 0;
2000140c:	400137b7          	lui	a5,0x40013
20001410:	00079023          	sh	zero,0(a5) # 40013000 <__stack_top+0x20008e3c>
	SPI1->cr2 = 0;
20001414:	400137b7          	lui	a5,0x40013
20001418:	00079223          	sh	zero,4(a5) # 40013004 <__stack_top+0x20008e40>

	SPI1->cr1 =  MSTR|SSI|SSM|FPCLK_DIV_4;
2000141c:	400137b7          	lui	a5,0x40013
20001420:	30c00713          	li	a4,780
20001424:	00e79023          	sh	a4,0(a5) # 40013000 <__stack_top+0x20008e3c>

	SPI1->i2scfgr = 0; 
20001428:	400137b7          	lui	a5,0x40013
2000142c:	00079e23          	sh	zero,28(a5) # 4001301c <__stack_top+0x20008e58>
	SPI1->crcpr = 7;
20001430:	400137b7          	lui	a5,0x40013
20001434:	00700713          	li	a4,7
20001438:	00e79823          	sh	a4,16(a5) # 40013010 <__stack_top+0x20008e4c>
	
	SPI1->cr1 |=  SPIENABLE;
2000143c:	400137b7          	lui	a5,0x40013
20001440:	0007d783          	lhu	a5,0(a5) # 40013000 <__stack_top+0x20008e3c>
20001444:	01079713          	slli	a4,a5,0x10
20001448:	01075713          	srli	a4,a4,0x10
2000144c:	400137b7          	lui	a5,0x40013
20001450:	04076713          	ori	a4,a4,64
20001454:	01071713          	slli	a4,a4,0x10
20001458:	01075713          	srli	a4,a4,0x10
2000145c:	00e79023          	sh	a4,0(a5) # 40013000 <__stack_top+0x20008e3c>
		
	lcddev.width = 0;			
20001460:	200097b7          	lui	a5,0x20009
20001464:	43878793          	addi	a5,a5,1080 # 20009438 <lcddev>
20001468:	00079023          	sh	zero,0(a5)
	lcddev.height= 0;				
2000146c:	200097b7          	lui	a5,0x20009
20001470:	43878793          	addi	a5,a5,1080 # 20009438 <lcddev>
20001474:	00079123          	sh	zero,2(a5)
	lcddev.id= 0;					
20001478:	200097b7          	lui	a5,0x20009
2000147c:	43878793          	addi	a5,a5,1080 # 20009438 <lcddev>
20001480:	00079223          	sh	zero,4(a5)
	lcddev.dir= 0;					
20001484:	200097b7          	lui	a5,0x20009
20001488:	43878793          	addi	a5,a5,1080 # 20009438 <lcddev>
2000148c:	00078323          	sb	zero,6(a5)
	lcddev.wramcmd= 0;		
20001490:	200097b7          	lui	a5,0x20009
20001494:	43878793          	addi	a5,a5,1080 # 20009438 <lcddev>
20001498:	00079423          	sh	zero,8(a5)
	lcddev.setxcmd= 0;			
2000149c:	200097b7          	lui	a5,0x20009
200014a0:	43878793          	addi	a5,a5,1080 # 20009438 <lcddev>
200014a4:	00079523          	sh	zero,10(a5)
	lcddev.setycmd= 0;			
200014a8:	200097b7          	lui	a5,0x20009
200014ac:	43878793          	addi	a5,a5,1080 # 20009438 <lcddev>
200014b0:	00079623          	sh	zero,12(a5)
}
200014b4:	00000013          	nop
200014b8:	00c12083          	lw	ra,12(sp)
200014bc:	00812403          	lw	s0,8(sp)
200014c0:	01010113          	addi	sp,sp,16
200014c4:	00008067          	ret

200014c8 <SPI_WriteByte>:


static uint8_t SPI_WriteByte(PSPI_WCH_DEVICE SPIx, uint8_t byte)
{
200014c8:	fd010113          	addi	sp,sp,-48
200014cc:	02112623          	sw	ra,44(sp)
200014d0:	02812423          	sw	s0,40(sp)
200014d4:	03010413          	addi	s0,sp,48
200014d8:	fca42e23          	sw	a0,-36(s0)
200014dc:	00058793          	mv	a5,a1
200014e0:	fcf40da3          	sb	a5,-37(s0)
	uint16_t s=0;;
200014e4:	fe041723          	sh	zero,-18(s0)
	while(1)
	{
		s = SPIx->sr;  	/* Wait for TXE */
200014e8:	fdc42783          	lw	a5,-36(s0)
200014ec:	0087d783          	lhu	a5,8(a5)
200014f0:	fef41723          	sh	a5,-18(s0)
		if( s & 2 )break;
200014f4:	fee45783          	lhu	a5,-18(s0)
200014f8:	0027f793          	andi	a5,a5,2
200014fc:	00079463          	bnez	a5,20001504 <SPI_WriteByte+0x3c>
		s = SPIx->sr;  	/* Wait for TXE */
20001500:	fe9ff06f          	j	200014e8 <SPI_WriteByte+0x20>
		if( s & 2 )break;
20001504:	00000013          	nop
	}
	SPIx->dr= (uint8_t) byte;	 	/* Send byte */
20001508:	fdb44783          	lbu	a5,-37(s0)
2000150c:	01079713          	slli	a4,a5,0x10
20001510:	01075713          	srli	a4,a4,0x10
20001514:	fdc42783          	lw	a5,-36(s0)
20001518:	00e79623          	sh	a4,12(a5)
	while(1)
	{
		s = SPIx->sr;  	/* Wait for RXE */
2000151c:	fdc42783          	lw	a5,-36(s0)
20001520:	0087d783          	lhu	a5,8(a5)
20001524:	fef41723          	sh	a5,-18(s0)
		if( s & 1)break;
20001528:	fee45783          	lhu	a5,-18(s0)
2000152c:	0017f793          	andi	a5,a5,1
20001530:	00079463          	bnez	a5,20001538 <SPI_WriteByte+0x70>
		s = SPIx->sr;  	/* Wait for RXE */
20001534:	fe9ff06f          	j	2000151c <SPI_WriteByte+0x54>
		if( s & 1)break;
20001538:	00000013          	nop
	}
	return (uint8_t) SPIx->dr;
2000153c:	fdc42783          	lw	a5,-36(s0)
20001540:	00c7d783          	lhu	a5,12(a5)
20001544:	01079793          	slli	a5,a5,0x10
20001548:	0107d793          	srli	a5,a5,0x10
2000154c:	0ff7f793          	zext.b	a5,a5
} 
20001550:	00078513          	mv	a0,a5
20001554:	02c12083          	lw	ra,44(sp)
20001558:	02812403          	lw	s0,40(sp)
2000155c:	03010113          	addi	sp,sp,48
20001560:	00008067          	ret

20001564 <SPI_WriteByteOnly>:

/* Write-only variant: waits for TXE then loads next byte immediately.
 * Drains RXNE non-blocking to prevent overflow flag.
 * Call SPI_WaitDone() after the last byte before raising CS. */
static void SPI_WriteByteOnly(PSPI_WCH_DEVICE SPIx, uint8_t byte)
{
20001564:	fe010113          	addi	sp,sp,-32
20001568:	00112e23          	sw	ra,28(sp)
2000156c:	00812c23          	sw	s0,24(sp)
20001570:	02010413          	addi	s0,sp,32
20001574:	fea42623          	sw	a0,-20(s0)
20001578:	00058793          	mv	a5,a1
2000157c:	fef405a3          	sb	a5,-21(s0)
	while(!(SPIx->sr & 2));         /* Wait for TXE */
20001580:	00000013          	nop
20001584:	fec42783          	lw	a5,-20(s0)
20001588:	0087d783          	lhu	a5,8(a5)
2000158c:	01079793          	slli	a5,a5,0x10
20001590:	0107d793          	srli	a5,a5,0x10
20001594:	0027f793          	andi	a5,a5,2
20001598:	fe0786e3          	beqz	a5,20001584 <SPI_WriteByteOnly+0x20>
	SPIx->dr = byte;
2000159c:	feb44783          	lbu	a5,-21(s0)
200015a0:	01079713          	slli	a4,a5,0x10
200015a4:	01075713          	srli	a4,a4,0x10
200015a8:	fec42783          	lw	a5,-20(s0)
200015ac:	00e79623          	sh	a4,12(a5)
	if(SPIx->sr & 1) (void)SPIx->dr; /* Drain RX if ready (non-blocking) */
200015b0:	fec42783          	lw	a5,-20(s0)
200015b4:	0087d783          	lhu	a5,8(a5)
200015b8:	01079793          	slli	a5,a5,0x10
200015bc:	0107d793          	srli	a5,a5,0x10
200015c0:	0017f793          	andi	a5,a5,1
200015c4:	00078663          	beqz	a5,200015d0 <SPI_WriteByteOnly+0x6c>
200015c8:	fec42783          	lw	a5,-20(s0)
200015cc:	00c7d783          	lhu	a5,12(a5)
}
200015d0:	00000013          	nop
200015d4:	01c12083          	lw	ra,28(sp)
200015d8:	01812403          	lw	s0,24(sp)
200015dc:	02010113          	addi	sp,sp,32
200015e0:	00008067          	ret

200015e4 <SPI_WaitDone>:

/* Wait for the shift register to finish and drain the final RX byte.
 * Must be called after the last SPI_WriteByteOnly before raising CS. */
static void SPI_WaitDone(PSPI_WCH_DEVICE SPIx)
{
200015e4:	fe010113          	addi	sp,sp,-32
200015e8:	00112e23          	sw	ra,28(sp)
200015ec:	00812c23          	sw	s0,24(sp)
200015f0:	02010413          	addi	s0,sp,32
200015f4:	fea42623          	sw	a0,-20(s0)
	while(SPIx->sr & (1<<7));       /* Wait for BSY = 0 */
200015f8:	00000013          	nop
200015fc:	fec42783          	lw	a5,-20(s0)
20001600:	0087d783          	lhu	a5,8(a5)
20001604:	01079793          	slli	a5,a5,0x10
20001608:	0107d793          	srli	a5,a5,0x10
2000160c:	0807f793          	andi	a5,a5,128
20001610:	fe0796e3          	bnez	a5,200015fc <SPI_WaitDone+0x18>
	if(SPIx->sr & 1) (void)SPIx->dr; /* Drain final RX byte */
20001614:	fec42783          	lw	a5,-20(s0)
20001618:	0087d783          	lhu	a5,8(a5)
2000161c:	01079793          	slli	a5,a5,0x10
20001620:	0107d793          	srli	a5,a5,0x10
20001624:	0017f793          	andi	a5,a5,1
20001628:	00078663          	beqz	a5,20001634 <SPI_WaitDone+0x50>
2000162c:	fec42783          	lw	a5,-20(s0)
20001630:	00c7d783          	lhu	a5,12(a5)
}
20001634:	00000013          	nop
20001638:	01c12083          	lw	ra,28(sp)
2000163c:	01812403          	lw	s0,24(sp)
20001640:	02010113          	addi	sp,sp,32
20001644:	00008067          	ret

20001648 <lcd_write_register>:



/* Write an 8-bit command to the LCD screen */
static void lcd_write_register(uint8_t data)
{ 
20001648:	fe010113          	addi	sp,sp,-32
2000164c:	00112e23          	sw	ra,28(sp)
20001650:	00812c23          	sw	s0,24(sp)
20001654:	02010413          	addi	s0,sp,32
20001658:	00050793          	mv	a5,a0
2000165c:	fef407a3          	sb	a5,-17(s0)
	LCD_CS_CLR;     
20001660:	400117b7          	lui	a5,0x40011
20001664:	c0c78793          	addi	a5,a5,-1012 # 40010c0c <__stack_top+0x20006a48>
20001668:	0007d783          	lhu	a5,0(a5)
2000166c:	01079693          	slli	a3,a5,0x10
20001670:	0106d693          	srli	a3,a3,0x10
20001674:	400117b7          	lui	a5,0x40011
20001678:	c0c78793          	addi	a5,a5,-1012 # 40010c0c <__stack_top+0x20006a48>
2000167c:	00008737          	lui	a4,0x8
20001680:	fff70713          	addi	a4,a4,-1 # 7fff <_start-0x1fff8001>
20001684:	00e6f733          	and	a4,a3,a4
20001688:	01071713          	slli	a4,a4,0x10
2000168c:	01075713          	srli	a4,a4,0x10
20001690:	00e79023          	sh	a4,0(a5)
	LCD_RS_CLR;	  
20001694:	400117b7          	lui	a5,0x40011
20001698:	c0c78793          	addi	a5,a5,-1012 # 40010c0c <__stack_top+0x20006a48>
2000169c:	0007d783          	lhu	a5,0(a5)
200016a0:	01079693          	slli	a3,a5,0x10
200016a4:	0106d693          	srli	a3,a3,0x10
200016a8:	400117b7          	lui	a5,0x40011
200016ac:	c0c78793          	addi	a5,a5,-1012 # 40010c0c <__stack_top+0x20006a48>
200016b0:	ffffc737          	lui	a4,0xffffc
200016b4:	fff70713          	addi	a4,a4,-1 # ffffbfff <__stack_top+0xdfff1e3b>
200016b8:	00e6f733          	and	a4,a3,a4
200016bc:	01071713          	slli	a4,a4,0x10
200016c0:	01075713          	srli	a4,a4,0x10
200016c4:	00e79023          	sh	a4,0(a5)
	SPI_WriteByte(SPI1,data);
200016c8:	fef44783          	lbu	a5,-17(s0)
200016cc:	00078593          	mv	a1,a5
200016d0:	40013537          	lui	a0,0x40013
200016d4:	df5ff0ef          	jal	200014c8 <SPI_WriteByte>
	LCD_CS_SET;	
200016d8:	400117b7          	lui	a5,0x40011
200016dc:	c0c78793          	addi	a5,a5,-1012 # 40010c0c <__stack_top+0x20006a48>
200016e0:	0007d783          	lhu	a5,0(a5)
200016e4:	01079693          	slli	a3,a5,0x10
200016e8:	0106d693          	srli	a3,a3,0x10
200016ec:	400117b7          	lui	a5,0x40011
200016f0:	c0c78793          	addi	a5,a5,-1012 # 40010c0c <__stack_top+0x20006a48>
200016f4:	ffff8737          	lui	a4,0xffff8
200016f8:	00e6e733          	or	a4,a3,a4
200016fc:	01071713          	slli	a4,a4,0x10
20001700:	01075713          	srli	a4,a4,0x10
20001704:	00e79023          	sh	a4,0(a5)
}
20001708:	00000013          	nop
2000170c:	01c12083          	lw	ra,28(sp)
20001710:	01812403          	lw	s0,24(sp)
20001714:	02010113          	addi	sp,sp,32
20001718:	00008067          	ret

2000171c <lcd_write_data>:

/* Write an 8-bit data to the LCD screen */
static void lcd_write_data(uint8_t data)
{
2000171c:	fe010113          	addi	sp,sp,-32
20001720:	00112e23          	sw	ra,28(sp)
20001724:	00812c23          	sw	s0,24(sp)
20001728:	02010413          	addi	s0,sp,32
2000172c:	00050793          	mv	a5,a0
20001730:	fef407a3          	sb	a5,-17(s0)
	LCD_CS_CLR;
20001734:	400117b7          	lui	a5,0x40011
20001738:	c0c78793          	addi	a5,a5,-1012 # 40010c0c <__stack_top+0x20006a48>
2000173c:	0007d783          	lhu	a5,0(a5)
20001740:	01079693          	slli	a3,a5,0x10
20001744:	0106d693          	srli	a3,a3,0x10
20001748:	400117b7          	lui	a5,0x40011
2000174c:	c0c78793          	addi	a5,a5,-1012 # 40010c0c <__stack_top+0x20006a48>
20001750:	00008737          	lui	a4,0x8
20001754:	fff70713          	addi	a4,a4,-1 # 7fff <_start-0x1fff8001>
20001758:	00e6f733          	and	a4,a3,a4
2000175c:	01071713          	slli	a4,a4,0x10
20001760:	01075713          	srli	a4,a4,0x10
20001764:	00e79023          	sh	a4,0(a5)
	LCD_RS_SET;
20001768:	400117b7          	lui	a5,0x40011
2000176c:	c0c78793          	addi	a5,a5,-1012 # 40010c0c <__stack_top+0x20006a48>
20001770:	0007d783          	lhu	a5,0(a5)
20001774:	01079693          	slli	a3,a5,0x10
20001778:	0106d693          	srli	a3,a3,0x10
2000177c:	400117b7          	lui	a5,0x40011
20001780:	c0c78793          	addi	a5,a5,-1012 # 40010c0c <__stack_top+0x20006a48>
20001784:	00004737          	lui	a4,0x4
20001788:	00e6e733          	or	a4,a3,a4
2000178c:	01071713          	slli	a4,a4,0x10
20001790:	01075713          	srli	a4,a4,0x10
20001794:	00e79023          	sh	a4,0(a5)
	SPI_WriteByte(SPI1,data);
20001798:	fef44783          	lbu	a5,-17(s0)
2000179c:	00078593          	mv	a1,a5
200017a0:	40013537          	lui	a0,0x40013
200017a4:	d25ff0ef          	jal	200014c8 <SPI_WriteByte>
	LCD_CS_SET;
200017a8:	400117b7          	lui	a5,0x40011
200017ac:	c0c78793          	addi	a5,a5,-1012 # 40010c0c <__stack_top+0x20006a48>
200017b0:	0007d783          	lhu	a5,0(a5)
200017b4:	01079693          	slli	a3,a5,0x10
200017b8:	0106d693          	srli	a3,a3,0x10
200017bc:	400117b7          	lui	a5,0x40011
200017c0:	c0c78793          	addi	a5,a5,-1012 # 40010c0c <__stack_top+0x20006a48>
200017c4:	ffff8737          	lui	a4,0xffff8
200017c8:	00e6e733          	or	a4,a3,a4
200017cc:	01071713          	slli	a4,a4,0x10
200017d0:	01075713          	srli	a4,a4,0x10
200017d4:	00e79023          	sh	a4,0(a5)
}
200017d8:	00000013          	nop
200017dc:	01c12083          	lw	ra,28(sp)
200017e0:	01812403          	lw	s0,24(sp)
200017e4:	02010113          	addi	sp,sp,32
200017e8:	00008067          	ret

200017ec <_lcd_write_16bit_data>:

/* Write 16-bit data to the LCD screen */	 
static void _lcd_write_16bit_data(uint16_t Data)
{	
200017ec:	fe010113          	addi	sp,sp,-32
200017f0:	00112e23          	sw	ra,28(sp)
200017f4:	00812c23          	sw	s0,24(sp)
200017f8:	02010413          	addi	s0,sp,32
200017fc:	00050793          	mv	a5,a0
20001800:	fef41723          	sh	a5,-18(s0)
	LCD_CS_CLR;
20001804:	400117b7          	lui	a5,0x40011
20001808:	c0c78793          	addi	a5,a5,-1012 # 40010c0c <__stack_top+0x20006a48>
2000180c:	0007d783          	lhu	a5,0(a5)
20001810:	01079693          	slli	a3,a5,0x10
20001814:	0106d693          	srli	a3,a3,0x10
20001818:	400117b7          	lui	a5,0x40011
2000181c:	c0c78793          	addi	a5,a5,-1012 # 40010c0c <__stack_top+0x20006a48>
20001820:	00008737          	lui	a4,0x8
20001824:	fff70713          	addi	a4,a4,-1 # 7fff <_start-0x1fff8001>
20001828:	00e6f733          	and	a4,a3,a4
2000182c:	01071713          	slli	a4,a4,0x10
20001830:	01075713          	srli	a4,a4,0x10
20001834:	00e79023          	sh	a4,0(a5)
	LCD_RS_SET;
20001838:	400117b7          	lui	a5,0x40011
2000183c:	c0c78793          	addi	a5,a5,-1012 # 40010c0c <__stack_top+0x20006a48>
20001840:	0007d783          	lhu	a5,0(a5)
20001844:	01079693          	slli	a3,a5,0x10
20001848:	0106d693          	srli	a3,a3,0x10
2000184c:	400117b7          	lui	a5,0x40011
20001850:	c0c78793          	addi	a5,a5,-1012 # 40010c0c <__stack_top+0x20006a48>
20001854:	00004737          	lui	a4,0x4
20001858:	00e6e733          	or	a4,a3,a4
2000185c:	01071713          	slli	a4,a4,0x10
20001860:	01075713          	srli	a4,a4,0x10
20001864:	00e79023          	sh	a4,0(a5)
	if( _option & TFT_INIT_ST7796S)
20001868:	200097b7          	lui	a5,0x20009
2000186c:	4487a783          	lw	a5,1096(a5) # 20009448 <_option>
20001870:	0027f793          	andi	a5,a5,2
20001874:	02078e63          	beqz	a5,200018b0 <_lcd_write_16bit_data+0xc4>
	{
		SPI_WriteByte(SPI1,Data>>8);
20001878:	fee45783          	lhu	a5,-18(s0)
2000187c:	0087d793          	srli	a5,a5,0x8
20001880:	01079793          	slli	a5,a5,0x10
20001884:	0107d793          	srli	a5,a5,0x10
20001888:	0ff7f793          	zext.b	a5,a5
2000188c:	00078593          	mv	a1,a5
20001890:	40013537          	lui	a0,0x40013
20001894:	c35ff0ef          	jal	200014c8 <SPI_WriteByte>
		SPI_WriteByte(SPI1,Data);
20001898:	fee45783          	lhu	a5,-18(s0)
2000189c:	0ff7f793          	zext.b	a5,a5
200018a0:	00078593          	mv	a1,a5
200018a4:	40013537          	lui	a0,0x40013
200018a8:	c21ff0ef          	jal	200014c8 <SPI_WriteByte>
200018ac:	0800006f          	j	2000192c <_lcd_write_16bit_data+0x140>
	}
	else if( _option & TFT_INIT_ILI9488)
200018b0:	200097b7          	lui	a5,0x20009
200018b4:	4487a783          	lw	a5,1096(a5) # 20009448 <_option>
200018b8:	0017f793          	andi	a5,a5,1
200018bc:	06078863          	beqz	a5,2000192c <_lcd_write_16bit_data+0x140>
	{
		SPI_WriteByte(SPI1,(Data>>8)&0xF8);
200018c0:	fee45783          	lhu	a5,-18(s0)
200018c4:	0087d793          	srli	a5,a5,0x8
200018c8:	01079793          	slli	a5,a5,0x10
200018cc:	0107d793          	srli	a5,a5,0x10
200018d0:	0ff7f793          	zext.b	a5,a5
200018d4:	ff87f793          	andi	a5,a5,-8
200018d8:	0ff7f793          	zext.b	a5,a5
200018dc:	00078593          	mv	a1,a5
200018e0:	40013537          	lui	a0,0x40013
200018e4:	be5ff0ef          	jal	200014c8 <SPI_WriteByte>
		SPI_WriteByte(SPI1,(Data>>3)&0xFC);
200018e8:	fee45783          	lhu	a5,-18(s0)
200018ec:	0037d793          	srli	a5,a5,0x3
200018f0:	01079793          	slli	a5,a5,0x10
200018f4:	0107d793          	srli	a5,a5,0x10
200018f8:	0ff7f793          	zext.b	a5,a5
200018fc:	ffc7f793          	andi	a5,a5,-4
20001900:	0ff7f793          	zext.b	a5,a5
20001904:	00078593          	mv	a1,a5
20001908:	40013537          	lui	a0,0x40013
2000190c:	bbdff0ef          	jal	200014c8 <SPI_WriteByte>
		SPI_WriteByte(SPI1,Data<<3);
20001910:	fee45783          	lhu	a5,-18(s0)
20001914:	0ff7f793          	zext.b	a5,a5
20001918:	00379793          	slli	a5,a5,0x3
2000191c:	0ff7f793          	zext.b	a5,a5
20001920:	00078593          	mv	a1,a5
20001924:	40013537          	lui	a0,0x40013
20001928:	ba1ff0ef          	jal	200014c8 <SPI_WriteByte>
	}
 	LCD_CS_SET;
2000192c:	400117b7          	lui	a5,0x40011
20001930:	c0c78793          	addi	a5,a5,-1012 # 40010c0c <__stack_top+0x20006a48>
20001934:	0007d783          	lhu	a5,0(a5)
20001938:	01079693          	slli	a3,a5,0x10
2000193c:	0106d693          	srli	a3,a3,0x10
20001940:	400117b7          	lui	a5,0x40011
20001944:	c0c78793          	addi	a5,a5,-1012 # 40010c0c <__stack_top+0x20006a48>
20001948:	ffff8737          	lui	a4,0xffff8
2000194c:	00e6e733          	or	a4,a3,a4
20001950:	01071713          	slli	a4,a4,0x10
20001954:	01075713          	srli	a4,a4,0x10
20001958:	00e79023          	sh	a4,0(a5)
}
2000195c:	00000013          	nop
20001960:	01c12083          	lw	ra,28(sp)
20001964:	01812403          	lw	s0,24(sp)
20001968:	02010113          	addi	sp,sp,32
2000196c:	00008067          	ret

20001970 <_tft_lcd_setwindow>:
	yStar:the beginning y coordinate of the LCD display window
	xEnd:the endning x coordinate of the LCD display window
	yEnd:the endning y coordinate of the LCD display window
 */ 
static void _tft_lcd_setwindow(uint16_t xStar, uint16_t yStar,uint16_t xEnd,uint16_t yEnd)
{	
20001970:	fe010113          	addi	sp,sp,-32
20001974:	00112e23          	sw	ra,28(sp)
20001978:	00812c23          	sw	s0,24(sp)
2000197c:	02010413          	addi	s0,sp,32
20001980:	00050793          	mv	a5,a0
20001984:	00068713          	mv	a4,a3
20001988:	fef41723          	sh	a5,-18(s0)
2000198c:	00058793          	mv	a5,a1
20001990:	fef41623          	sh	a5,-20(s0)
20001994:	00060793          	mv	a5,a2
20001998:	fef41523          	sh	a5,-22(s0)
2000199c:	00070793          	mv	a5,a4
200019a0:	fef41423          	sh	a5,-24(s0)
	lcd_write_register(lcddev.setxcmd);	
200019a4:	200097b7          	lui	a5,0x20009
200019a8:	43878793          	addi	a5,a5,1080 # 20009438 <lcddev>
200019ac:	00a7d783          	lhu	a5,10(a5)
200019b0:	0ff7f793          	zext.b	a5,a5
200019b4:	00078513          	mv	a0,a5
200019b8:	c91ff0ef          	jal	20001648 <lcd_write_register>
	lcd_write_data(xStar>>8);
200019bc:	fee45783          	lhu	a5,-18(s0)
200019c0:	0087d793          	srli	a5,a5,0x8
200019c4:	01079793          	slli	a5,a5,0x10
200019c8:	0107d793          	srli	a5,a5,0x10
200019cc:	0ff7f793          	zext.b	a5,a5
200019d0:	00078513          	mv	a0,a5
200019d4:	d49ff0ef          	jal	2000171c <lcd_write_data>
	lcd_write_data(0x00FF&xStar);		
200019d8:	fee45783          	lhu	a5,-18(s0)
200019dc:	0ff7f793          	zext.b	a5,a5
200019e0:	00078513          	mv	a0,a5
200019e4:	d39ff0ef          	jal	2000171c <lcd_write_data>
	lcd_write_data(xEnd>>8);
200019e8:	fea45783          	lhu	a5,-22(s0)
200019ec:	0087d793          	srli	a5,a5,0x8
200019f0:	01079793          	slli	a5,a5,0x10
200019f4:	0107d793          	srli	a5,a5,0x10
200019f8:	0ff7f793          	zext.b	a5,a5
200019fc:	00078513          	mv	a0,a5
20001a00:	d1dff0ef          	jal	2000171c <lcd_write_data>
	lcd_write_data(0x00FF&xEnd);
20001a04:	fea45783          	lhu	a5,-22(s0)
20001a08:	0ff7f793          	zext.b	a5,a5
20001a0c:	00078513          	mv	a0,a5
20001a10:	d0dff0ef          	jal	2000171c <lcd_write_data>
	lcd_write_register(0);	
20001a14:	00000513          	li	a0,0
20001a18:	c31ff0ef          	jal	20001648 <lcd_write_register>

	lcd_write_register(lcddev.setycmd);	
20001a1c:	200097b7          	lui	a5,0x20009
20001a20:	43878793          	addi	a5,a5,1080 # 20009438 <lcddev>
20001a24:	00c7d783          	lhu	a5,12(a5)
20001a28:	0ff7f793          	zext.b	a5,a5
20001a2c:	00078513          	mv	a0,a5
20001a30:	c19ff0ef          	jal	20001648 <lcd_write_register>

	lcd_write_data(yStar>>8);
20001a34:	fec45783          	lhu	a5,-20(s0)
20001a38:	0087d793          	srli	a5,a5,0x8
20001a3c:	01079793          	slli	a5,a5,0x10
20001a40:	0107d793          	srli	a5,a5,0x10
20001a44:	0ff7f793          	zext.b	a5,a5
20001a48:	00078513          	mv	a0,a5
20001a4c:	cd1ff0ef          	jal	2000171c <lcd_write_data>
	lcd_write_data(0x00FF&yStar);		
20001a50:	fec45783          	lhu	a5,-20(s0)
20001a54:	0ff7f793          	zext.b	a5,a5
20001a58:	00078513          	mv	a0,a5
20001a5c:	cc1ff0ef          	jal	2000171c <lcd_write_data>
	lcd_write_data(yEnd>>8);
20001a60:	fe845783          	lhu	a5,-24(s0)
20001a64:	0087d793          	srli	a5,a5,0x8
20001a68:	01079793          	slli	a5,a5,0x10
20001a6c:	0107d793          	srli	a5,a5,0x10
20001a70:	0ff7f793          	zext.b	a5,a5
20001a74:	00078513          	mv	a0,a5
20001a78:	ca5ff0ef          	jal	2000171c <lcd_write_data>
	lcd_write_data(0x00FF&yEnd);
20001a7c:	fe845783          	lhu	a5,-24(s0)
20001a80:	0ff7f793          	zext.b	a5,a5
20001a84:	00078513          	mv	a0,a5
20001a88:	c95ff0ef          	jal	2000171c <lcd_write_data>
	lcd_write_register(0);	
20001a8c:	00000513          	li	a0,0
20001a90:	bb9ff0ef          	jal	20001648 <lcd_write_register>

	lcd_write_register(lcddev.wramcmd);
20001a94:	200097b7          	lui	a5,0x20009
20001a98:	43878793          	addi	a5,a5,1080 # 20009438 <lcddev>
20001a9c:	0087d783          	lhu	a5,8(a5)
20001aa0:	0ff7f793          	zext.b	a5,a5
20001aa4:	00078513          	mv	a0,a5
20001aa8:	ba1ff0ef          	jal	20001648 <lcd_write_register>
}   
20001aac:	00000013          	nop
20001ab0:	01c12083          	lw	ra,28(sp)
20001ab4:	01812403          	lw	s0,24(sp)
20001ab8:	02010113          	addi	sp,sp,32
20001abc:	00008067          	ret

20001ac0 <tft_fill_colour>:



static void tft_fill_colour(uint16_t colour)
{
20001ac0:	fd010113          	addi	sp,sp,-48
20001ac4:	02112623          	sw	ra,44(sp)
20001ac8:	02812423          	sw	s0,40(sp)
20001acc:	03010413          	addi	s0,sp,48
20001ad0:	00050793          	mv	a5,a0
20001ad4:	fcf41f23          	sh	a5,-34(s0)
	unsigned int i,j;  
	_tft_lcd_setwindow(0,0,lcddev.width-1,lcddev.height-1);   
20001ad8:	200097b7          	lui	a5,0x20009
20001adc:	43878793          	addi	a5,a5,1080 # 20009438 <lcddev>
20001ae0:	0007d783          	lhu	a5,0(a5)
20001ae4:	fff78793          	addi	a5,a5,-1
20001ae8:	01079713          	slli	a4,a5,0x10
20001aec:	01075713          	srli	a4,a4,0x10
20001af0:	200097b7          	lui	a5,0x20009
20001af4:	43878793          	addi	a5,a5,1080 # 20009438 <lcddev>
20001af8:	0027d783          	lhu	a5,2(a5)
20001afc:	fff78793          	addi	a5,a5,-1
20001b00:	01079793          	slli	a5,a5,0x10
20001b04:	0107d793          	srli	a5,a5,0x10
20001b08:	00078693          	mv	a3,a5
20001b0c:	00070613          	mv	a2,a4
20001b10:	00000593          	li	a1,0
20001b14:	00000513          	li	a0,0
20001b18:	e59ff0ef          	jal	20001970 <_tft_lcd_setwindow>
	LCD_CS_CLR;
20001b1c:	400117b7          	lui	a5,0x40011
20001b20:	c0c78793          	addi	a5,a5,-1012 # 40010c0c <__stack_top+0x20006a48>
20001b24:	0007d783          	lhu	a5,0(a5)
20001b28:	01079693          	slli	a3,a5,0x10
20001b2c:	0106d693          	srli	a3,a3,0x10
20001b30:	400117b7          	lui	a5,0x40011
20001b34:	c0c78793          	addi	a5,a5,-1012 # 40010c0c <__stack_top+0x20006a48>
20001b38:	00008737          	lui	a4,0x8
20001b3c:	fff70713          	addi	a4,a4,-1 # 7fff <_start-0x1fff8001>
20001b40:	00e6f733          	and	a4,a3,a4
20001b44:	01071713          	slli	a4,a4,0x10
20001b48:	01075713          	srli	a4,a4,0x10
20001b4c:	00e79023          	sh	a4,0(a5)
	LCD_RS_SET;
20001b50:	400117b7          	lui	a5,0x40011
20001b54:	c0c78793          	addi	a5,a5,-1012 # 40010c0c <__stack_top+0x20006a48>
20001b58:	0007d783          	lhu	a5,0(a5)
20001b5c:	01079693          	slli	a3,a5,0x10
20001b60:	0106d693          	srli	a3,a3,0x10
20001b64:	400117b7          	lui	a5,0x40011
20001b68:	c0c78793          	addi	a5,a5,-1012 # 40010c0c <__stack_top+0x20006a48>
20001b6c:	00004737          	lui	a4,0x4
20001b70:	00e6e733          	or	a4,a3,a4
20001b74:	01071713          	slli	a4,a4,0x10
20001b78:	01075713          	srli	a4,a4,0x10
20001b7c:	00e79023          	sh	a4,0(a5)
	if( _option & TFT_INIT_ST7796S)
20001b80:	200097b7          	lui	a5,0x20009
20001b84:	4487a783          	lw	a5,1096(a5) # 20009448 <_option>
20001b88:	0027f793          	andi	a5,a5,2
20001b8c:	08078e63          	beqz	a5,20001c28 <tft_fill_colour+0x168>
	{
		uint8_t hi = colour >> 8, lo = colour;
20001b90:	fde45783          	lhu	a5,-34(s0)
20001b94:	0087d793          	srli	a5,a5,0x8
20001b98:	01079793          	slli	a5,a5,0x10
20001b9c:	0107d793          	srli	a5,a5,0x10
20001ba0:	fef40223          	sb	a5,-28(s0)
20001ba4:	fde45783          	lhu	a5,-34(s0)
20001ba8:	fef401a3          	sb	a5,-29(s0)
		for(i=0;i<lcddev.height;i++)
20001bac:	fe042623          	sw	zero,-20(s0)
20001bb0:	05c0006f          	j	20001c0c <tft_fill_colour+0x14c>
			for(j=0;j<lcddev.width;j++){
20001bb4:	fe042423          	sw	zero,-24(s0)
20001bb8:	0300006f          	j	20001be8 <tft_fill_colour+0x128>
				SPI_WriteByteOnly(SPI1, hi);
20001bbc:	fe444783          	lbu	a5,-28(s0)
20001bc0:	00078593          	mv	a1,a5
20001bc4:	40013537          	lui	a0,0x40013
20001bc8:	99dff0ef          	jal	20001564 <SPI_WriteByteOnly>
				SPI_WriteByteOnly(SPI1, lo);
20001bcc:	fe344783          	lbu	a5,-29(s0)
20001bd0:	00078593          	mv	a1,a5
20001bd4:	40013537          	lui	a0,0x40013
20001bd8:	98dff0ef          	jal	20001564 <SPI_WriteByteOnly>
			for(j=0;j<lcddev.width;j++){
20001bdc:	fe842783          	lw	a5,-24(s0)
20001be0:	00178793          	addi	a5,a5,1
20001be4:	fef42423          	sw	a5,-24(s0)
20001be8:	200097b7          	lui	a5,0x20009
20001bec:	43878793          	addi	a5,a5,1080 # 20009438 <lcddev>
20001bf0:	0007d783          	lhu	a5,0(a5)
20001bf4:	00078713          	mv	a4,a5
20001bf8:	fe842783          	lw	a5,-24(s0)
20001bfc:	fce7e0e3          	bltu	a5,a4,20001bbc <tft_fill_colour+0xfc>
		for(i=0;i<lcddev.height;i++)
20001c00:	fec42783          	lw	a5,-20(s0)
20001c04:	00178793          	addi	a5,a5,1
20001c08:	fef42623          	sw	a5,-20(s0)
20001c0c:	200097b7          	lui	a5,0x20009
20001c10:	43878793          	addi	a5,a5,1080 # 20009438 <lcddev>
20001c14:	0027d783          	lhu	a5,2(a5)
20001c18:	00078713          	mv	a4,a5
20001c1c:	fec42783          	lw	a5,-20(s0)
20001c20:	f8e7eae3          	bltu	a5,a4,20001bb4 <tft_fill_colour+0xf4>
20001c24:	0e40006f          	j	20001d08 <tft_fill_colour+0x248>
			}
	}
	else if( _option & TFT_INIT_ILI9488)
20001c28:	200097b7          	lui	a5,0x20009
20001c2c:	4487a783          	lw	a5,1096(a5) # 20009448 <_option>
20001c30:	0017f793          	andi	a5,a5,1
20001c34:	0c078a63          	beqz	a5,20001d08 <tft_fill_colour+0x248>
	{
		uint8_t r = (colour>>8)&0xF8, g = (colour>>3)&0xFC, b = colour<<3;
20001c38:	fde45783          	lhu	a5,-34(s0)
20001c3c:	0087d793          	srli	a5,a5,0x8
20001c40:	01079793          	slli	a5,a5,0x10
20001c44:	0107d793          	srli	a5,a5,0x10
20001c48:	0ff7f793          	zext.b	a5,a5
20001c4c:	ff87f793          	andi	a5,a5,-8
20001c50:	fef403a3          	sb	a5,-25(s0)
20001c54:	fde45783          	lhu	a5,-34(s0)
20001c58:	0037d793          	srli	a5,a5,0x3
20001c5c:	01079793          	slli	a5,a5,0x10
20001c60:	0107d793          	srli	a5,a5,0x10
20001c64:	0ff7f793          	zext.b	a5,a5
20001c68:	ffc7f793          	andi	a5,a5,-4
20001c6c:	fef40323          	sb	a5,-26(s0)
20001c70:	fde45783          	lhu	a5,-34(s0)
20001c74:	0ff7f793          	zext.b	a5,a5
20001c78:	00379793          	slli	a5,a5,0x3
20001c7c:	fef402a3          	sb	a5,-27(s0)
		for(i=0;i<lcddev.height;i++)
20001c80:	fe042623          	sw	zero,-20(s0)
20001c84:	06c0006f          	j	20001cf0 <tft_fill_colour+0x230>
			for(j=0;j<lcddev.width;j++){
20001c88:	fe042423          	sw	zero,-24(s0)
20001c8c:	0400006f          	j	20001ccc <tft_fill_colour+0x20c>
				SPI_WriteByteOnly(SPI1, r);
20001c90:	fe744783          	lbu	a5,-25(s0)
20001c94:	00078593          	mv	a1,a5
20001c98:	40013537          	lui	a0,0x40013
20001c9c:	8c9ff0ef          	jal	20001564 <SPI_WriteByteOnly>
				SPI_WriteByteOnly(SPI1, g);
20001ca0:	fe644783          	lbu	a5,-26(s0)
20001ca4:	00078593          	mv	a1,a5
20001ca8:	40013537          	lui	a0,0x40013
20001cac:	8b9ff0ef          	jal	20001564 <SPI_WriteByteOnly>
				SPI_WriteByteOnly(SPI1, b);
20001cb0:	fe544783          	lbu	a5,-27(s0)
20001cb4:	00078593          	mv	a1,a5
20001cb8:	40013537          	lui	a0,0x40013
20001cbc:	8a9ff0ef          	jal	20001564 <SPI_WriteByteOnly>
			for(j=0;j<lcddev.width;j++){
20001cc0:	fe842783          	lw	a5,-24(s0)
20001cc4:	00178793          	addi	a5,a5,1
20001cc8:	fef42423          	sw	a5,-24(s0)
20001ccc:	200097b7          	lui	a5,0x20009
20001cd0:	43878793          	addi	a5,a5,1080 # 20009438 <lcddev>
20001cd4:	0007d783          	lhu	a5,0(a5)
20001cd8:	00078713          	mv	a4,a5
20001cdc:	fe842783          	lw	a5,-24(s0)
20001ce0:	fae7e8e3          	bltu	a5,a4,20001c90 <tft_fill_colour+0x1d0>
		for(i=0;i<lcddev.height;i++)
20001ce4:	fec42783          	lw	a5,-20(s0)
20001ce8:	00178793          	addi	a5,a5,1
20001cec:	fef42623          	sw	a5,-20(s0)
20001cf0:	200097b7          	lui	a5,0x20009
20001cf4:	43878793          	addi	a5,a5,1080 # 20009438 <lcddev>
20001cf8:	0027d783          	lhu	a5,2(a5)
20001cfc:	00078713          	mv	a4,a5
20001d00:	fec42783          	lw	a5,-20(s0)
20001d04:	f8e7e2e3          	bltu	a5,a4,20001c88 <tft_fill_colour+0x1c8>
			}
	}
	SPI_WaitDone(SPI1);
20001d08:	40013537          	lui	a0,0x40013
20001d0c:	8d9ff0ef          	jal	200015e4 <SPI_WaitDone>
	LCD_CS_SET;
20001d10:	400117b7          	lui	a5,0x40011
20001d14:	c0c78793          	addi	a5,a5,-1012 # 40010c0c <__stack_top+0x20006a48>
20001d18:	0007d783          	lhu	a5,0(a5)
20001d1c:	01079693          	slli	a3,a5,0x10
20001d20:	0106d693          	srli	a3,a3,0x10
20001d24:	400117b7          	lui	a5,0x40011
20001d28:	c0c78793          	addi	a5,a5,-1012 # 40010c0c <__stack_top+0x20006a48>
20001d2c:	ffff8737          	lui	a4,0xffff8
20001d30:	00e6e733          	or	a4,a3,a4
20001d34:	01071713          	slli	a4,a4,0x10
20001d38:	01075713          	srli	a4,a4,0x10
20001d3c:	00e79023          	sh	a4,0(a5)
} 
20001d40:	00000013          	nop
20001d44:	02c12083          	lw	ra,44(sp)
20001d48:	02812403          	lw	s0,40(sp)
20001d4c:	03010113          	addi	sp,sp,48
20001d50:	00008067          	ret

20001d54 <_tft_lcd_direction>:
	1-90 degree
	2-180 degree
	3-270 degree
*/ 
static void _tft_lcd_direction(int direction)
{ 
20001d54:	fe010113          	addi	sp,sp,-32
20001d58:	00112e23          	sw	ra,28(sp)
20001d5c:	00812c23          	sw	s0,24(sp)
20001d60:	02010413          	addi	s0,sp,32
20001d64:	fea42623          	sw	a0,-20(s0)
	lcddev.setxcmd=0x2A;
20001d68:	200097b7          	lui	a5,0x20009
20001d6c:	43878793          	addi	a5,a5,1080 # 20009438 <lcddev>
20001d70:	02a00713          	li	a4,42
20001d74:	00e79523          	sh	a4,10(a5)
	lcddev.setycmd=0x2B;
20001d78:	200097b7          	lui	a5,0x20009
20001d7c:	43878793          	addi	a5,a5,1080 # 20009438 <lcddev>
20001d80:	02b00713          	li	a4,43
20001d84:	00e79623          	sh	a4,12(a5)
	lcddev.wramcmd=0x2C;
20001d88:	200097b7          	lui	a5,0x20009
20001d8c:	43878793          	addi	a5,a5,1080 # 20009438 <lcddev>
20001d90:	02c00713          	li	a4,44
20001d94:	00e79423          	sh	a4,8(a5)
	lcddev.dir = direction;
20001d98:	fec42783          	lw	a5,-20(s0)
20001d9c:	0ff7f713          	zext.b	a4,a5
20001da0:	200097b7          	lui	a5,0x20009
20001da4:	43878793          	addi	a5,a5,1080 # 20009438 <lcddev>
20001da8:	00e78323          	sb	a4,6(a5)
	switch(direction){		  
20001dac:	fec42703          	lw	a4,-20(s0)
20001db0:	00300793          	li	a5,3
20001db4:	0cf70e63          	beq	a4,a5,20001e90 <_tft_lcd_direction+0x13c>
20001db8:	fec42703          	lw	a4,-20(s0)
20001dbc:	00300793          	li	a5,3
20001dc0:	10e7c263          	blt	a5,a4,20001ec4 <_tft_lcd_direction+0x170>
20001dc4:	fec42703          	lw	a4,-20(s0)
20001dc8:	00200793          	li	a5,2
20001dcc:	08f70863          	beq	a4,a5,20001e5c <_tft_lcd_direction+0x108>
20001dd0:	fec42703          	lw	a4,-20(s0)
20001dd4:	00200793          	li	a5,2
20001dd8:	0ee7c663          	blt	a5,a4,20001ec4 <_tft_lcd_direction+0x170>
20001ddc:	fec42783          	lw	a5,-20(s0)
20001de0:	00078a63          	beqz	a5,20001df4 <_tft_lcd_direction+0xa0>
20001de4:	fec42703          	lw	a4,-20(s0)
20001de8:	00100793          	li	a5,1
20001dec:	02f70e63          	beq	a4,a5,20001e28 <_tft_lcd_direction+0xd4>
			lcddev.width=LCD_H;
			lcddev.height=LCD_W;
			lcd_write_register(0x36);  
			lcd_write_data((1<<3)|(1<<7)|(1<<6)|(1<<5));	    		 
			break;	
		default:break;
20001df0:	0d40006f          	j	20001ec4 <_tft_lcd_direction+0x170>
			lcddev.width=LCD_W;
20001df4:	200097b7          	lui	a5,0x20009
20001df8:	43878793          	addi	a5,a5,1080 # 20009438 <lcddev>
20001dfc:	14000713          	li	a4,320
20001e00:	00e79023          	sh	a4,0(a5)
			lcddev.height=LCD_H;
20001e04:	200097b7          	lui	a5,0x20009
20001e08:	43878793          	addi	a5,a5,1080 # 20009438 <lcddev>
20001e0c:	1e000713          	li	a4,480
20001e10:	00e79123          	sh	a4,2(a5)
			lcd_write_register(0x36);  
20001e14:	03600513          	li	a0,54
20001e18:	831ff0ef          	jal	20001648 <lcd_write_register>
			lcd_write_data((1<<3)|(1<<6));
20001e1c:	04800513          	li	a0,72
20001e20:	8fdff0ef          	jal	2000171c <lcd_write_data>
			break;
20001e24:	0a40006f          	j	20001ec8 <_tft_lcd_direction+0x174>
			lcddev.width=LCD_H;
20001e28:	200097b7          	lui	a5,0x20009
20001e2c:	43878793          	addi	a5,a5,1080 # 20009438 <lcddev>
20001e30:	1e000713          	li	a4,480
20001e34:	00e79023          	sh	a4,0(a5)
			lcddev.height=LCD_W;
20001e38:	200097b7          	lui	a5,0x20009
20001e3c:	43878793          	addi	a5,a5,1080 # 20009438 <lcddev>
20001e40:	14000713          	li	a4,320
20001e44:	00e79123          	sh	a4,2(a5)
			lcd_write_register(0x36);  
20001e48:	03600513          	li	a0,54
20001e4c:	ffcff0ef          	jal	20001648 <lcd_write_register>
			lcd_write_data((1<<3)|(1<<5));	    		 
20001e50:	02800513          	li	a0,40
20001e54:	8c9ff0ef          	jal	2000171c <lcd_write_data>
			break;
20001e58:	0700006f          	j	20001ec8 <_tft_lcd_direction+0x174>
			lcddev.width=LCD_W;
20001e5c:	200097b7          	lui	a5,0x20009
20001e60:	43878793          	addi	a5,a5,1080 # 20009438 <lcddev>
20001e64:	14000713          	li	a4,320
20001e68:	00e79023          	sh	a4,0(a5)
			lcddev.height=LCD_H;	
20001e6c:	200097b7          	lui	a5,0x20009
20001e70:	43878793          	addi	a5,a5,1080 # 20009438 <lcddev>
20001e74:	1e000713          	li	a4,480
20001e78:	00e79123          	sh	a4,2(a5)
			lcd_write_register(0x36);  
20001e7c:	03600513          	li	a0,54
20001e80:	fc8ff0ef          	jal	20001648 <lcd_write_register>
			lcd_write_data(((1<<3)|(1<<7)));	    		 
20001e84:	08800513          	li	a0,136
20001e88:	895ff0ef          	jal	2000171c <lcd_write_data>
			break;
20001e8c:	03c0006f          	j	20001ec8 <_tft_lcd_direction+0x174>
			lcddev.width=LCD_H;
20001e90:	200097b7          	lui	a5,0x20009
20001e94:	43878793          	addi	a5,a5,1080 # 20009438 <lcddev>
20001e98:	1e000713          	li	a4,480
20001e9c:	00e79023          	sh	a4,0(a5)
			lcddev.height=LCD_W;
20001ea0:	200097b7          	lui	a5,0x20009
20001ea4:	43878793          	addi	a5,a5,1080 # 20009438 <lcddev>
20001ea8:	14000713          	li	a4,320
20001eac:	00e79123          	sh	a4,2(a5)
			lcd_write_register(0x36);  
20001eb0:	03600513          	li	a0,54
20001eb4:	f94ff0ef          	jal	20001648 <lcd_write_register>
			lcd_write_data((1<<3)|(1<<7)|(1<<6)|(1<<5));	    		 
20001eb8:	0e800513          	li	a0,232
20001ebc:	861ff0ef          	jal	2000171c <lcd_write_data>
			break;	
20001ec0:	0080006f          	j	20001ec8 <_tft_lcd_direction+0x174>
		default:break;
20001ec4:	00000013          	nop
	}		
}	 
20001ec8:	00000013          	nop
20001ecc:	01c12083          	lw	ra,28(sp)
20001ed0:	01812403          	lw	s0,24(sp)
20001ed4:	02010113          	addi	sp,sp,32
20001ed8:	00008067          	ret

20001edc <_tft_lcd_fill>:
	ex:the ending x coordinate of the specified area
	ey:the ending y coordinate of the specified area
	color:the filled color value
*/
static void _tft_lcd_fill(uint16_t sx,uint16_t sy,uint16_t ex,uint16_t ey,uint16_t color)
{  	
20001edc:	fd010113          	addi	sp,sp,-48
20001ee0:	02112623          	sw	ra,44(sp)
20001ee4:	02812423          	sw	s0,40(sp)
20001ee8:	03010413          	addi	s0,sp,48
20001eec:	00050793          	mv	a5,a0
20001ef0:	fcf41f23          	sh	a5,-34(s0)
20001ef4:	00058793          	mv	a5,a1
20001ef8:	fcf41e23          	sh	a5,-36(s0)
20001efc:	00060793          	mv	a5,a2
20001f00:	fcf41d23          	sh	a5,-38(s0)
20001f04:	00068793          	mv	a5,a3
20001f08:	fcf41c23          	sh	a5,-40(s0)
20001f0c:	00070793          	mv	a5,a4
20001f10:	fcf41b23          	sh	a5,-42(s0)
	uint16_t i,j;			
	uint16_t width=ex-sx+1; 
20001f14:	fda45783          	lhu	a5,-38(s0)
20001f18:	00078713          	mv	a4,a5
20001f1c:	fde45783          	lhu	a5,-34(s0)
20001f20:	40f707b3          	sub	a5,a4,a5
20001f24:	01079793          	slli	a5,a5,0x10
20001f28:	0107d793          	srli	a5,a5,0x10
20001f2c:	00178793          	addi	a5,a5,1
20001f30:	fef41523          	sh	a5,-22(s0)
	uint16_t height=ey-sy+1;
20001f34:	fd845783          	lhu	a5,-40(s0)
20001f38:	00078713          	mv	a4,a5
20001f3c:	fdc45783          	lhu	a5,-36(s0)
20001f40:	40f707b3          	sub	a5,a4,a5
20001f44:	01079793          	slli	a5,a5,0x10
20001f48:	0107d793          	srli	a5,a5,0x10
20001f4c:	00178793          	addi	a5,a5,1
20001f50:	fef41423          	sh	a5,-24(s0)
	_tft_lcd_setwindow(sx,sy,ex,ey);
20001f54:	fd845683          	lhu	a3,-40(s0)
20001f58:	fda45603          	lhu	a2,-38(s0)
20001f5c:	fdc45703          	lhu	a4,-36(s0)
20001f60:	fde45783          	lhu	a5,-34(s0)
20001f64:	00070593          	mv	a1,a4
20001f68:	00078513          	mv	a0,a5
20001f6c:	a05ff0ef          	jal	20001970 <_tft_lcd_setwindow>
	LCD_CS_CLR;
20001f70:	400117b7          	lui	a5,0x40011
20001f74:	c0c78793          	addi	a5,a5,-1012 # 40010c0c <__stack_top+0x20006a48>
20001f78:	0007d783          	lhu	a5,0(a5)
20001f7c:	01079693          	slli	a3,a5,0x10
20001f80:	0106d693          	srli	a3,a3,0x10
20001f84:	400117b7          	lui	a5,0x40011
20001f88:	c0c78793          	addi	a5,a5,-1012 # 40010c0c <__stack_top+0x20006a48>
20001f8c:	00008737          	lui	a4,0x8
20001f90:	fff70713          	addi	a4,a4,-1 # 7fff <_start-0x1fff8001>
20001f94:	00e6f733          	and	a4,a3,a4
20001f98:	01071713          	slli	a4,a4,0x10
20001f9c:	01075713          	srli	a4,a4,0x10
20001fa0:	00e79023          	sh	a4,0(a5)
	LCD_RS_SET;
20001fa4:	400117b7          	lui	a5,0x40011
20001fa8:	c0c78793          	addi	a5,a5,-1012 # 40010c0c <__stack_top+0x20006a48>
20001fac:	0007d783          	lhu	a5,0(a5)
20001fb0:	01079693          	slli	a3,a5,0x10
20001fb4:	0106d693          	srli	a3,a3,0x10
20001fb8:	400117b7          	lui	a5,0x40011
20001fbc:	c0c78793          	addi	a5,a5,-1012 # 40010c0c <__stack_top+0x20006a48>
20001fc0:	00004737          	lui	a4,0x4
20001fc4:	00e6e733          	or	a4,a3,a4
20001fc8:	01071713          	slli	a4,a4,0x10
20001fcc:	01075713          	srli	a4,a4,0x10
20001fd0:	00e79023          	sh	a4,0(a5)
	if( _option & TFT_INIT_ST7796S)
20001fd4:	200097b7          	lui	a5,0x20009
20001fd8:	4487a783          	lw	a5,1096(a5) # 20009448 <_option>
20001fdc:	0027f793          	andi	a5,a5,2
20001fe0:	08078263          	beqz	a5,20002064 <_tft_lcd_fill+0x188>
	{
		uint8_t hi = color >> 8, lo = color;
20001fe4:	fd645783          	lhu	a5,-42(s0)
20001fe8:	0087d793          	srli	a5,a5,0x8
20001fec:	01079793          	slli	a5,a5,0x10
20001ff0:	0107d793          	srli	a5,a5,0x10
20001ff4:	fef40223          	sb	a5,-28(s0)
20001ff8:	fd645783          	lhu	a5,-42(s0)
20001ffc:	fef401a3          	sb	a5,-29(s0)
		for(i=0;i<height;i++)
20002000:	fe041723          	sh	zero,-18(s0)
20002004:	0500006f          	j	20002054 <_tft_lcd_fill+0x178>
			for(j=0;j<width;j++){
20002008:	fe041623          	sh	zero,-20(s0)
2000200c:	0300006f          	j	2000203c <_tft_lcd_fill+0x160>
				SPI_WriteByteOnly(SPI1, hi);
20002010:	fe444783          	lbu	a5,-28(s0)
20002014:	00078593          	mv	a1,a5
20002018:	40013537          	lui	a0,0x40013
2000201c:	d48ff0ef          	jal	20001564 <SPI_WriteByteOnly>
				SPI_WriteByteOnly(SPI1, lo);
20002020:	fe344783          	lbu	a5,-29(s0)
20002024:	00078593          	mv	a1,a5
20002028:	40013537          	lui	a0,0x40013
2000202c:	d38ff0ef          	jal	20001564 <SPI_WriteByteOnly>
			for(j=0;j<width;j++){
20002030:	fec45783          	lhu	a5,-20(s0)
20002034:	00178793          	addi	a5,a5,1
20002038:	fef41623          	sh	a5,-20(s0)
2000203c:	fec45703          	lhu	a4,-20(s0)
20002040:	fea45783          	lhu	a5,-22(s0)
20002044:	fcf766e3          	bltu	a4,a5,20002010 <_tft_lcd_fill+0x134>
		for(i=0;i<height;i++)
20002048:	fee45783          	lhu	a5,-18(s0)
2000204c:	00178793          	addi	a5,a5,1
20002050:	fef41723          	sh	a5,-18(s0)
20002054:	fee45703          	lhu	a4,-18(s0)
20002058:	fe845783          	lhu	a5,-24(s0)
2000205c:	faf766e3          	bltu	a4,a5,20002008 <_tft_lcd_fill+0x12c>
20002060:	0cc0006f          	j	2000212c <_tft_lcd_fill+0x250>
			}
	}
	else if( _option & TFT_INIT_ILI9488)
20002064:	200097b7          	lui	a5,0x20009
20002068:	4487a783          	lw	a5,1096(a5) # 20009448 <_option>
2000206c:	0017f793          	andi	a5,a5,1
20002070:	0a078e63          	beqz	a5,2000212c <_tft_lcd_fill+0x250>
	{
		uint8_t r = (color>>8)&0xF8, g = (color>>3)&0xFC, b = color<<3;
20002074:	fd645783          	lhu	a5,-42(s0)
20002078:	0087d793          	srli	a5,a5,0x8
2000207c:	01079793          	slli	a5,a5,0x10
20002080:	0107d793          	srli	a5,a5,0x10
20002084:	0ff7f793          	zext.b	a5,a5
20002088:	ff87f793          	andi	a5,a5,-8
2000208c:	fef403a3          	sb	a5,-25(s0)
20002090:	fd645783          	lhu	a5,-42(s0)
20002094:	0037d793          	srli	a5,a5,0x3
20002098:	01079793          	slli	a5,a5,0x10
2000209c:	0107d793          	srli	a5,a5,0x10
200020a0:	0ff7f793          	zext.b	a5,a5
200020a4:	ffc7f793          	andi	a5,a5,-4
200020a8:	fef40323          	sb	a5,-26(s0)
200020ac:	fd645783          	lhu	a5,-42(s0)
200020b0:	0ff7f793          	zext.b	a5,a5
200020b4:	00379793          	slli	a5,a5,0x3
200020b8:	fef402a3          	sb	a5,-27(s0)
		for(i=0;i<height;i++)
200020bc:	fe041723          	sh	zero,-18(s0)
200020c0:	0600006f          	j	20002120 <_tft_lcd_fill+0x244>
			for(j=0;j<width;j++){
200020c4:	fe041623          	sh	zero,-20(s0)
200020c8:	0400006f          	j	20002108 <_tft_lcd_fill+0x22c>
				SPI_WriteByteOnly(SPI1, r);
200020cc:	fe744783          	lbu	a5,-25(s0)
200020d0:	00078593          	mv	a1,a5
200020d4:	40013537          	lui	a0,0x40013
200020d8:	c8cff0ef          	jal	20001564 <SPI_WriteByteOnly>
				SPI_WriteByteOnly(SPI1, g);
200020dc:	fe644783          	lbu	a5,-26(s0)
200020e0:	00078593          	mv	a1,a5
200020e4:	40013537          	lui	a0,0x40013
200020e8:	c7cff0ef          	jal	20001564 <SPI_WriteByteOnly>
				SPI_WriteByteOnly(SPI1, b);
200020ec:	fe544783          	lbu	a5,-27(s0)
200020f0:	00078593          	mv	a1,a5
200020f4:	40013537          	lui	a0,0x40013
200020f8:	c6cff0ef          	jal	20001564 <SPI_WriteByteOnly>
			for(j=0;j<width;j++){
200020fc:	fec45783          	lhu	a5,-20(s0)
20002100:	00178793          	addi	a5,a5,1
20002104:	fef41623          	sh	a5,-20(s0)
20002108:	fec45703          	lhu	a4,-20(s0)
2000210c:	fea45783          	lhu	a5,-22(s0)
20002110:	faf76ee3          	bltu	a4,a5,200020cc <_tft_lcd_fill+0x1f0>
		for(i=0;i<height;i++)
20002114:	fee45783          	lhu	a5,-18(s0)
20002118:	00178793          	addi	a5,a5,1
2000211c:	fef41723          	sh	a5,-18(s0)
20002120:	fee45703          	lhu	a4,-18(s0)
20002124:	fe845783          	lhu	a5,-24(s0)
20002128:	f8f76ee3          	bltu	a4,a5,200020c4 <_tft_lcd_fill+0x1e8>
			}
	}
	SPI_WaitDone(SPI1);
2000212c:	40013537          	lui	a0,0x40013
20002130:	cb4ff0ef          	jal	200015e4 <SPI_WaitDone>
	LCD_CS_SET;
20002134:	400117b7          	lui	a5,0x40011
20002138:	c0c78793          	addi	a5,a5,-1012 # 40010c0c <__stack_top+0x20006a48>
2000213c:	0007d783          	lhu	a5,0(a5)
20002140:	01079693          	slli	a3,a5,0x10
20002144:	0106d693          	srli	a3,a3,0x10
20002148:	400117b7          	lui	a5,0x40011
2000214c:	c0c78793          	addi	a5,a5,-1012 # 40010c0c <__stack_top+0x20006a48>
20002150:	ffff8737          	lui	a4,0xffff8
20002154:	00e6e733          	or	a4,a3,a4
20002158:	01071713          	slli	a4,a4,0x10
2000215c:	01075713          	srli	a4,a4,0x10
20002160:	00e79023          	sh	a4,0(a5)
}
20002164:	00000013          	nop
20002168:	02c12083          	lw	ra,44(sp)
2000216c:	02812403          	lw	s0,40(sp)
20002170:	03010113          	addi	sp,sp,48
20002174:	00008067          	ret

20002178 <hw_tft_pixel>:
 * @param {Color} c The color to use.
 * @param {boolean} filled Should the interior of the circle be filled in?
 */
/* Public direct calls */
void hw_tft_pixel(int x,int y, uint16_t colour)
{
20002178:	fe010113          	addi	sp,sp,-32
2000217c:	00112e23          	sw	ra,28(sp)
20002180:	00812c23          	sw	s0,24(sp)
20002184:	02010413          	addi	s0,sp,32
20002188:	fea42623          	sw	a0,-20(s0)
2000218c:	feb42423          	sw	a1,-24(s0)
20002190:	00060793          	mv	a5,a2
20002194:	fef41323          	sh	a5,-26(s0)
	_tft_lcd_setwindow(x,y,x,y);
20002198:	fec42783          	lw	a5,-20(s0)
2000219c:	01079793          	slli	a5,a5,0x10
200021a0:	0107d793          	srli	a5,a5,0x10
200021a4:	fe842703          	lw	a4,-24(s0)
200021a8:	01071713          	slli	a4,a4,0x10
200021ac:	01075713          	srli	a4,a4,0x10
200021b0:	fec42683          	lw	a3,-20(s0)
200021b4:	01069613          	slli	a2,a3,0x10
200021b8:	01065613          	srli	a2,a2,0x10
200021bc:	fe842683          	lw	a3,-24(s0)
200021c0:	01069693          	slli	a3,a3,0x10
200021c4:	0106d693          	srli	a3,a3,0x10
200021c8:	00070593          	mv	a1,a4
200021cc:	00078513          	mv	a0,a5
200021d0:	fa0ff0ef          	jal	20001970 <_tft_lcd_setwindow>
	_lcd_write_16bit_data(colour); 
200021d4:	fe645783          	lhu	a5,-26(s0)
200021d8:	00078513          	mv	a0,a5
200021dc:	e10ff0ef          	jal	200017ec <_lcd_write_16bit_data>
}
200021e0:	00000013          	nop
200021e4:	01c12083          	lw	ra,28(sp)
200021e8:	01812403          	lw	s0,24(sp)
200021ec:	02010113          	addi	sp,sp,32
200021f0:	00008067          	ret

200021f4 <_draw_quadrants>:


static void _draw_quadrants(int x, int y, int xc, int yc, int colour, int fill) 
{
200021f4:	fc010113          	addi	sp,sp,-64
200021f8:	02112e23          	sw	ra,60(sp)
200021fc:	02812c23          	sw	s0,56(sp)
20002200:	04010413          	addi	s0,sp,64
20002204:	fca42e23          	sw	a0,-36(s0)
20002208:	fcb42c23          	sw	a1,-40(s0)
2000220c:	fcc42a23          	sw	a2,-44(s0)
20002210:	fcd42823          	sw	a3,-48(s0)
20002214:	fce42623          	sw	a4,-52(s0)
20002218:	fcf42423          	sw	a5,-56(s0)
    if (fill) {
2000221c:	fc842783          	lw	a5,-56(s0)
20002220:	08078663          	beqz	a5,200022ac <_draw_quadrants+0xb8>
      for (int xx = xc - x; xx <= xc + x; xx++) {
20002224:	fd442703          	lw	a4,-44(s0)
20002228:	fdc42783          	lw	a5,-36(s0)
2000222c:	40f707b3          	sub	a5,a4,a5
20002230:	fef42623          	sw	a5,-20(s0)
20002234:	0600006f          	j	20002294 <_draw_quadrants+0xa0>
        hw_tft_pixel(xx, yc + y, colour);
20002238:	fd042703          	lw	a4,-48(s0)
2000223c:	fd842783          	lw	a5,-40(s0)
20002240:	00f707b3          	add	a5,a4,a5
20002244:	fcc42703          	lw	a4,-52(s0)
20002248:	01071713          	slli	a4,a4,0x10
2000224c:	01075713          	srli	a4,a4,0x10
20002250:	00070613          	mv	a2,a4
20002254:	00078593          	mv	a1,a5
20002258:	fec42503          	lw	a0,-20(s0)
2000225c:	f1dff0ef          	jal	20002178 <hw_tft_pixel>
        hw_tft_pixel(xx, yc - y, colour);
20002260:	fd042703          	lw	a4,-48(s0)
20002264:	fd842783          	lw	a5,-40(s0)
20002268:	40f707b3          	sub	a5,a4,a5
2000226c:	fcc42703          	lw	a4,-52(s0)
20002270:	01071713          	slli	a4,a4,0x10
20002274:	01075713          	srli	a4,a4,0x10
20002278:	00070613          	mv	a2,a4
2000227c:	00078593          	mv	a1,a5
20002280:	fec42503          	lw	a0,-20(s0)
20002284:	ef5ff0ef          	jal	20002178 <hw_tft_pixel>
      for (int xx = xc - x; xx <= xc + x; xx++) {
20002288:	fec42783          	lw	a5,-20(s0)
2000228c:	00178793          	addi	a5,a5,1
20002290:	fef42623          	sw	a5,-20(s0)
20002294:	fd442703          	lw	a4,-44(s0)
20002298:	fdc42783          	lw	a5,-36(s0)
2000229c:	00f707b3          	add	a5,a4,a5
200022a0:	fec42703          	lw	a4,-20(s0)
200022a4:	f8e7dae3          	bge	a5,a4,20002238 <_draw_quadrants+0x44>
    	hw_tft_pixel(x + xc, y + yc, colour);
      	hw_tft_pixel(-x + xc, y + yc, colour);      
      	hw_tft_pixel(x + xc, -y + yc, colour);
      	hw_tft_pixel(-x + xc, -y + yc, colour);
    }    
}
200022a8:	0d40006f          	j	2000237c <_draw_quadrants+0x188>
    	hw_tft_pixel(x + xc, y + yc, colour);
200022ac:	fdc42703          	lw	a4,-36(s0)
200022b0:	fd442783          	lw	a5,-44(s0)
200022b4:	00f706b3          	add	a3,a4,a5
200022b8:	fd842703          	lw	a4,-40(s0)
200022bc:	fd042783          	lw	a5,-48(s0)
200022c0:	00f707b3          	add	a5,a4,a5
200022c4:	fcc42703          	lw	a4,-52(s0)
200022c8:	01071713          	slli	a4,a4,0x10
200022cc:	01075713          	srli	a4,a4,0x10
200022d0:	00070613          	mv	a2,a4
200022d4:	00078593          	mv	a1,a5
200022d8:	00068513          	mv	a0,a3
200022dc:	e9dff0ef          	jal	20002178 <hw_tft_pixel>
      	hw_tft_pixel(-x + xc, y + yc, colour);      
200022e0:	fd442703          	lw	a4,-44(s0)
200022e4:	fdc42783          	lw	a5,-36(s0)
200022e8:	40f706b3          	sub	a3,a4,a5
200022ec:	fd842703          	lw	a4,-40(s0)
200022f0:	fd042783          	lw	a5,-48(s0)
200022f4:	00f707b3          	add	a5,a4,a5
200022f8:	fcc42703          	lw	a4,-52(s0)
200022fc:	01071713          	slli	a4,a4,0x10
20002300:	01075713          	srli	a4,a4,0x10
20002304:	00070613          	mv	a2,a4
20002308:	00078593          	mv	a1,a5
2000230c:	00068513          	mv	a0,a3
20002310:	e69ff0ef          	jal	20002178 <hw_tft_pixel>
      	hw_tft_pixel(x + xc, -y + yc, colour);
20002314:	fdc42703          	lw	a4,-36(s0)
20002318:	fd442783          	lw	a5,-44(s0)
2000231c:	00f706b3          	add	a3,a4,a5
20002320:	fd042703          	lw	a4,-48(s0)
20002324:	fd842783          	lw	a5,-40(s0)
20002328:	40f707b3          	sub	a5,a4,a5
2000232c:	fcc42703          	lw	a4,-52(s0)
20002330:	01071713          	slli	a4,a4,0x10
20002334:	01075713          	srli	a4,a4,0x10
20002338:	00070613          	mv	a2,a4
2000233c:	00078593          	mv	a1,a5
20002340:	00068513          	mv	a0,a3
20002344:	e35ff0ef          	jal	20002178 <hw_tft_pixel>
      	hw_tft_pixel(-x + xc, -y + yc, colour);
20002348:	fd442703          	lw	a4,-44(s0)
2000234c:	fdc42783          	lw	a5,-36(s0)
20002350:	40f706b3          	sub	a3,a4,a5
20002354:	fd042703          	lw	a4,-48(s0)
20002358:	fd842783          	lw	a5,-40(s0)
2000235c:	40f707b3          	sub	a5,a4,a5
20002360:	fcc42703          	lw	a4,-52(s0)
20002364:	01071713          	slli	a4,a4,0x10
20002368:	01075713          	srli	a4,a4,0x10
2000236c:	00070613          	mv	a2,a4
20002370:	00078593          	mv	a1,a5
20002374:	00068513          	mv	a0,a3
20002378:	e01ff0ef          	jal	20002178 <hw_tft_pixel>
}
2000237c:	00000013          	nop
20002380:	03c12083          	lw	ra,60(sp)
20002384:	03812403          	lw	s0,56(sp)
20002388:	04010113          	addi	sp,sp,64
2000238c:	00008067          	ret

20002390 <hw_tft_sprite>:


void hw_tft_sprite(int x, int y, uint16_t *data, int w, int h)
{
20002390:	fc010113          	addi	sp,sp,-64
20002394:	02112e23          	sw	ra,60(sp)
20002398:	02812c23          	sw	s0,56(sp)
2000239c:	04010413          	addi	s0,sp,64
200023a0:	fca42e23          	sw	a0,-36(s0)
200023a4:	fcb42c23          	sw	a1,-40(s0)
200023a8:	fcc42a23          	sw	a2,-44(s0)
200023ac:	fcd42823          	sw	a3,-48(s0)
200023b0:	fce42623          	sw	a4,-52(s0)
	/* Set window once and stream all pixels — same approach as _tft_lcd_fill */
	_tft_lcd_setwindow(x, y, x + w - 1, y + h - 1);
200023b4:	fdc42783          	lw	a5,-36(s0)
200023b8:	01079513          	slli	a0,a5,0x10
200023bc:	01055513          	srli	a0,a0,0x10
200023c0:	fd842783          	lw	a5,-40(s0)
200023c4:	01079593          	slli	a1,a5,0x10
200023c8:	0105d593          	srli	a1,a1,0x10
200023cc:	fdc42783          	lw	a5,-36(s0)
200023d0:	01079713          	slli	a4,a5,0x10
200023d4:	01075713          	srli	a4,a4,0x10
200023d8:	fd042783          	lw	a5,-48(s0)
200023dc:	01079793          	slli	a5,a5,0x10
200023e0:	0107d793          	srli	a5,a5,0x10
200023e4:	00f707b3          	add	a5,a4,a5
200023e8:	01079793          	slli	a5,a5,0x10
200023ec:	0107d793          	srli	a5,a5,0x10
200023f0:	fff78793          	addi	a5,a5,-1
200023f4:	01079613          	slli	a2,a5,0x10
200023f8:	01065613          	srli	a2,a2,0x10
200023fc:	fd842783          	lw	a5,-40(s0)
20002400:	01079713          	slli	a4,a5,0x10
20002404:	01075713          	srli	a4,a4,0x10
20002408:	fcc42783          	lw	a5,-52(s0)
2000240c:	01079793          	slli	a5,a5,0x10
20002410:	0107d793          	srli	a5,a5,0x10
20002414:	00f707b3          	add	a5,a4,a5
20002418:	01079793          	slli	a5,a5,0x10
2000241c:	0107d793          	srli	a5,a5,0x10
20002420:	fff78793          	addi	a5,a5,-1
20002424:	01079793          	slli	a5,a5,0x10
20002428:	0107d793          	srli	a5,a5,0x10
2000242c:	00078693          	mv	a3,a5
20002430:	d40ff0ef          	jal	20001970 <_tft_lcd_setwindow>
	LCD_CS_CLR;
20002434:	400117b7          	lui	a5,0x40011
20002438:	c0c78793          	addi	a5,a5,-1012 # 40010c0c <__stack_top+0x20006a48>
2000243c:	0007d783          	lhu	a5,0(a5)
20002440:	01079693          	slli	a3,a5,0x10
20002444:	0106d693          	srli	a3,a3,0x10
20002448:	400117b7          	lui	a5,0x40011
2000244c:	c0c78793          	addi	a5,a5,-1012 # 40010c0c <__stack_top+0x20006a48>
20002450:	00008737          	lui	a4,0x8
20002454:	fff70713          	addi	a4,a4,-1 # 7fff <_start-0x1fff8001>
20002458:	00e6f733          	and	a4,a3,a4
2000245c:	01071713          	slli	a4,a4,0x10
20002460:	01075713          	srli	a4,a4,0x10
20002464:	00e79023          	sh	a4,0(a5)
	LCD_RS_SET;
20002468:	400117b7          	lui	a5,0x40011
2000246c:	c0c78793          	addi	a5,a5,-1012 # 40010c0c <__stack_top+0x20006a48>
20002470:	0007d783          	lhu	a5,0(a5)
20002474:	01079693          	slli	a3,a5,0x10
20002478:	0106d693          	srli	a3,a3,0x10
2000247c:	400117b7          	lui	a5,0x40011
20002480:	c0c78793          	addi	a5,a5,-1012 # 40010c0c <__stack_top+0x20006a48>
20002484:	00004737          	lui	a4,0x4
20002488:	00e6e733          	or	a4,a3,a4
2000248c:	01071713          	slli	a4,a4,0x10
20002490:	01075713          	srli	a4,a4,0x10
20002494:	00e79023          	sh	a4,0(a5)
	int n = w * h;
20002498:	fd042703          	lw	a4,-48(s0)
2000249c:	fcc42783          	lw	a5,-52(s0)
200024a0:	02f707b3          	mul	a5,a4,a5
200024a4:	fef42223          	sw	a5,-28(s0)
	if( _option & TFT_INIT_ST7796S )
200024a8:	200097b7          	lui	a5,0x20009
200024ac:	4487a783          	lw	a5,1096(a5) # 20009448 <_option>
200024b0:	0027f793          	andi	a5,a5,2
200024b4:	06078a63          	beqz	a5,20002528 <hw_tft_sprite+0x198>
	{
		for(int i = 0; i < n; i++){
200024b8:	fe042623          	sw	zero,-20(s0)
200024bc:	05c0006f          	j	20002518 <hw_tft_sprite+0x188>
			uint16_t c = data[i];
200024c0:	fec42783          	lw	a5,-20(s0)
200024c4:	00179793          	slli	a5,a5,0x1
200024c8:	fd442703          	lw	a4,-44(s0)
200024cc:	00f707b3          	add	a5,a4,a5
200024d0:	0007d783          	lhu	a5,0(a5)
200024d4:	fef41023          	sh	a5,-32(s0)
			SPI_WriteByteOnly(SPI1, c >> 8);
200024d8:	fe045783          	lhu	a5,-32(s0)
200024dc:	0087d793          	srli	a5,a5,0x8
200024e0:	01079793          	slli	a5,a5,0x10
200024e4:	0107d793          	srli	a5,a5,0x10
200024e8:	0ff7f793          	zext.b	a5,a5
200024ec:	00078593          	mv	a1,a5
200024f0:	40013537          	lui	a0,0x40013
200024f4:	870ff0ef          	jal	20001564 <SPI_WriteByteOnly>
			SPI_WriteByteOnly(SPI1, c);
200024f8:	fe045783          	lhu	a5,-32(s0)
200024fc:	0ff7f793          	zext.b	a5,a5
20002500:	00078593          	mv	a1,a5
20002504:	40013537          	lui	a0,0x40013
20002508:	85cff0ef          	jal	20001564 <SPI_WriteByteOnly>
		for(int i = 0; i < n; i++){
2000250c:	fec42783          	lw	a5,-20(s0)
20002510:	00178793          	addi	a5,a5,1
20002514:	fef42623          	sw	a5,-20(s0)
20002518:	fec42703          	lw	a4,-20(s0)
2000251c:	fe442783          	lw	a5,-28(s0)
20002520:	faf740e3          	blt	a4,a5,200024c0 <hw_tft_sprite+0x130>
20002524:	0b80006f          	j	200025dc <hw_tft_sprite+0x24c>
		}
	}
	else if( _option & TFT_INIT_ILI9488 )
20002528:	200097b7          	lui	a5,0x20009
2000252c:	4487a783          	lw	a5,1096(a5) # 20009448 <_option>
20002530:	0017f793          	andi	a5,a5,1
20002534:	0a078463          	beqz	a5,200025dc <hw_tft_sprite+0x24c>
	{
		for(int i = 0; i < n; i++){
20002538:	fe042423          	sw	zero,-24(s0)
2000253c:	0940006f          	j	200025d0 <hw_tft_sprite+0x240>
			uint16_t c = data[i];
20002540:	fe842783          	lw	a5,-24(s0)
20002544:	00179793          	slli	a5,a5,0x1
20002548:	fd442703          	lw	a4,-44(s0)
2000254c:	00f707b3          	add	a5,a4,a5
20002550:	0007d783          	lhu	a5,0(a5)
20002554:	fef41123          	sh	a5,-30(s0)
			SPI_WriteByteOnly(SPI1, (c >> 8) & 0xF8);   /* R */
20002558:	fe245783          	lhu	a5,-30(s0)
2000255c:	0087d793          	srli	a5,a5,0x8
20002560:	01079793          	slli	a5,a5,0x10
20002564:	0107d793          	srli	a5,a5,0x10
20002568:	0ff7f793          	zext.b	a5,a5
2000256c:	ff87f793          	andi	a5,a5,-8
20002570:	0ff7f793          	zext.b	a5,a5
20002574:	00078593          	mv	a1,a5
20002578:	40013537          	lui	a0,0x40013
2000257c:	fe9fe0ef          	jal	20001564 <SPI_WriteByteOnly>
			SPI_WriteByteOnly(SPI1, (c >> 3) & 0xFC);   /* G */
20002580:	fe245783          	lhu	a5,-30(s0)
20002584:	0037d793          	srli	a5,a5,0x3
20002588:	01079793          	slli	a5,a5,0x10
2000258c:	0107d793          	srli	a5,a5,0x10
20002590:	0ff7f793          	zext.b	a5,a5
20002594:	ffc7f793          	andi	a5,a5,-4
20002598:	0ff7f793          	zext.b	a5,a5
2000259c:	00078593          	mv	a1,a5
200025a0:	40013537          	lui	a0,0x40013
200025a4:	fc1fe0ef          	jal	20001564 <SPI_WriteByteOnly>
			SPI_WriteByteOnly(SPI1, (c << 3) & 0xF8);   /* B */
200025a8:	fe245783          	lhu	a5,-30(s0)
200025ac:	0ff7f793          	zext.b	a5,a5
200025b0:	00379793          	slli	a5,a5,0x3
200025b4:	0ff7f793          	zext.b	a5,a5
200025b8:	00078593          	mv	a1,a5
200025bc:	40013537          	lui	a0,0x40013
200025c0:	fa5fe0ef          	jal	20001564 <SPI_WriteByteOnly>
		for(int i = 0; i < n; i++){
200025c4:	fe842783          	lw	a5,-24(s0)
200025c8:	00178793          	addi	a5,a5,1
200025cc:	fef42423          	sw	a5,-24(s0)
200025d0:	fe842703          	lw	a4,-24(s0)
200025d4:	fe442783          	lw	a5,-28(s0)
200025d8:	f6f744e3          	blt	a4,a5,20002540 <hw_tft_sprite+0x1b0>
		}
	}
	SPI_WaitDone(SPI1);
200025dc:	40013537          	lui	a0,0x40013
200025e0:	804ff0ef          	jal	200015e4 <SPI_WaitDone>
	LCD_CS_SET;
200025e4:	400117b7          	lui	a5,0x40011
200025e8:	c0c78793          	addi	a5,a5,-1012 # 40010c0c <__stack_top+0x20006a48>
200025ec:	0007d783          	lhu	a5,0(a5)
200025f0:	01079693          	slli	a3,a5,0x10
200025f4:	0106d693          	srli	a3,a3,0x10
200025f8:	400117b7          	lui	a5,0x40011
200025fc:	c0c78793          	addi	a5,a5,-1012 # 40010c0c <__stack_top+0x20006a48>
20002600:	ffff8737          	lui	a4,0xffff8
20002604:	00e6e733          	or	a4,a3,a4
20002608:	01071713          	slli	a4,a4,0x10
2000260c:	01075713          	srli	a4,a4,0x10
20002610:	00e79023          	sh	a4,0(a5)
}
20002614:	00000013          	nop
20002618:	03c12083          	lw	ra,60(sp)
2000261c:	03812403          	lw	s0,56(sp)
20002620:	04010113          	addi	sp,sp,64
20002624:	00008067          	ret

20002628 <hw_tft_line>:

void hw_tft_line(int  x1, int y1, int x2, int y2, uint16_t colour)
{
20002628:	fa010113          	addi	sp,sp,-96
2000262c:	04112e23          	sw	ra,92(sp)
20002630:	04812c23          	sw	s0,88(sp)
20002634:	06010413          	addi	s0,sp,96
20002638:	faa42e23          	sw	a0,-68(s0)
2000263c:	fab42c23          	sw	a1,-72(s0)
20002640:	fac42a23          	sw	a2,-76(s0)
20002644:	fad42823          	sw	a3,-80(s0)
20002648:	00070793          	mv	a5,a4
2000264c:	faf41723          	sh	a5,-82(s0)
	uint16_t t; 
	int xerr=0,yerr=0,delta_x,delta_y,distance; 
20002650:	fe042423          	sw	zero,-24(s0)
20002654:	fe042223          	sw	zero,-28(s0)
	int incx,incy,uRow,uCol; 

	delta_x=x2-x1; 
20002658:	fb442703          	lw	a4,-76(s0)
2000265c:	fbc42783          	lw	a5,-68(s0)
20002660:	40f707b3          	sub	a5,a4,a5
20002664:	fef42023          	sw	a5,-32(s0)
	delta_y=y2-y1; 
20002668:	fb042703          	lw	a4,-80(s0)
2000266c:	fb842783          	lw	a5,-72(s0)
20002670:	40f707b3          	sub	a5,a4,a5
20002674:	fcf42e23          	sw	a5,-36(s0)
	uRow=x1; 
20002678:	fbc42783          	lw	a5,-68(s0)
2000267c:	fcf42623          	sw	a5,-52(s0)
	uCol=y1; 
20002680:	fb842783          	lw	a5,-72(s0)
20002684:	fcf42423          	sw	a5,-56(s0)
	if(delta_x>0)incx=1; 
20002688:	fe042783          	lw	a5,-32(s0)
2000268c:	00f05863          	blez	a5,2000269c <hw_tft_line+0x74>
20002690:	00100793          	li	a5,1
20002694:	fcf42a23          	sw	a5,-44(s0)
20002698:	0280006f          	j	200026c0 <hw_tft_line+0x98>
	else if(delta_x==0)incx=0; 
2000269c:	fe042783          	lw	a5,-32(s0)
200026a0:	00079663          	bnez	a5,200026ac <hw_tft_line+0x84>
200026a4:	fc042a23          	sw	zero,-44(s0)
200026a8:	0180006f          	j	200026c0 <hw_tft_line+0x98>
	else {incx=-1;delta_x=-delta_x;} 
200026ac:	fff00793          	li	a5,-1
200026b0:	fcf42a23          	sw	a5,-44(s0)
200026b4:	fe042783          	lw	a5,-32(s0)
200026b8:	40f007b3          	neg	a5,a5
200026bc:	fef42023          	sw	a5,-32(s0)
	if(delta_y>0)incy=1; 
200026c0:	fdc42783          	lw	a5,-36(s0)
200026c4:	00f05863          	blez	a5,200026d4 <hw_tft_line+0xac>
200026c8:	00100793          	li	a5,1
200026cc:	fcf42823          	sw	a5,-48(s0)
200026d0:	0280006f          	j	200026f8 <hw_tft_line+0xd0>
	else if(delta_y==0)incy=0;
200026d4:	fdc42783          	lw	a5,-36(s0)
200026d8:	00079663          	bnez	a5,200026e4 <hw_tft_line+0xbc>
200026dc:	fc042823          	sw	zero,-48(s0)
200026e0:	0180006f          	j	200026f8 <hw_tft_line+0xd0>
	else{incy=-1;delta_y=-delta_y;} 
200026e4:	fff00793          	li	a5,-1
200026e8:	fcf42823          	sw	a5,-48(s0)
200026ec:	fdc42783          	lw	a5,-36(s0)
200026f0:	40f007b3          	neg	a5,a5
200026f4:	fcf42e23          	sw	a5,-36(s0)
	if( delta_x>delta_y)distance=delta_x; 
200026f8:	fe042703          	lw	a4,-32(s0)
200026fc:	fdc42783          	lw	a5,-36(s0)
20002700:	00e7d863          	bge	a5,a4,20002710 <hw_tft_line+0xe8>
20002704:	fe042783          	lw	a5,-32(s0)
20002708:	fcf42c23          	sw	a5,-40(s0)
2000270c:	00c0006f          	j	20002718 <hw_tft_line+0xf0>
	else distance=delta_y; 
20002710:	fdc42783          	lw	a5,-36(s0)
20002714:	fcf42c23          	sw	a5,-40(s0)
	for(t=0;t<=distance+1;t++ ) 
20002718:	fe041723          	sh	zero,-18(s0)
2000271c:	09c0006f          	j	200027b8 <hw_tft_line+0x190>
	{  
		hw_tft_pixel(uRow,uCol,colour); 
20002720:	fae45783          	lhu	a5,-82(s0)
20002724:	00078613          	mv	a2,a5
20002728:	fc842583          	lw	a1,-56(s0)
2000272c:	fcc42503          	lw	a0,-52(s0)
20002730:	a49ff0ef          	jal	20002178 <hw_tft_pixel>
		xerr+=delta_x ; 
20002734:	fe842703          	lw	a4,-24(s0)
20002738:	fe042783          	lw	a5,-32(s0)
2000273c:	00f707b3          	add	a5,a4,a5
20002740:	fef42423          	sw	a5,-24(s0)
		yerr+=delta_y ; 
20002744:	fe442703          	lw	a4,-28(s0)
20002748:	fdc42783          	lw	a5,-36(s0)
2000274c:	00f707b3          	add	a5,a4,a5
20002750:	fef42223          	sw	a5,-28(s0)
		if(xerr>distance) 
20002754:	fe842703          	lw	a4,-24(s0)
20002758:	fd842783          	lw	a5,-40(s0)
2000275c:	02e7d263          	bge	a5,a4,20002780 <hw_tft_line+0x158>
		{ 
			xerr-=distance; 
20002760:	fe842703          	lw	a4,-24(s0)
20002764:	fd842783          	lw	a5,-40(s0)
20002768:	40f707b3          	sub	a5,a4,a5
2000276c:	fef42423          	sw	a5,-24(s0)
			uRow+=incx; 
20002770:	fcc42703          	lw	a4,-52(s0)
20002774:	fd442783          	lw	a5,-44(s0)
20002778:	00f707b3          	add	a5,a4,a5
2000277c:	fcf42623          	sw	a5,-52(s0)
		} 
		if(yerr>distance) 
20002780:	fe442703          	lw	a4,-28(s0)
20002784:	fd842783          	lw	a5,-40(s0)
20002788:	02e7d263          	bge	a5,a4,200027ac <hw_tft_line+0x184>
		{ 
			yerr-=distance; 
2000278c:	fe442703          	lw	a4,-28(s0)
20002790:	fd842783          	lw	a5,-40(s0)
20002794:	40f707b3          	sub	a5,a4,a5
20002798:	fef42223          	sw	a5,-28(s0)
			uCol+=incy; 
2000279c:	fc842703          	lw	a4,-56(s0)
200027a0:	fd042783          	lw	a5,-48(s0)
200027a4:	00f707b3          	add	a5,a4,a5
200027a8:	fcf42423          	sw	a5,-56(s0)
	for(t=0;t<=distance+1;t++ ) 
200027ac:	fee45783          	lhu	a5,-18(s0)
200027b0:	00178793          	addi	a5,a5,1
200027b4:	fef41723          	sh	a5,-18(s0)
200027b8:	fee45703          	lhu	a4,-18(s0)
200027bc:	fd842783          	lw	a5,-40(s0)
200027c0:	00178793          	addi	a5,a5,1
200027c4:	f4e7dee3          	bge	a5,a4,20002720 <hw_tft_line+0xf8>
		} 
	}  
} 
200027c8:	00000013          	nop
200027cc:	00000013          	nop
200027d0:	05c12083          	lw	ra,92(sp)
200027d4:	05812403          	lw	s0,88(sp)
200027d8:	06010113          	addi	sp,sp,96
200027dc:	00008067          	ret

200027e0 <hw_tft_rect>:

void hw_tft_rect(int x1, int y1, int x2, int y2, uint16_t colour, int fill)
{
200027e0:	fd010113          	addi	sp,sp,-48
200027e4:	02112623          	sw	ra,44(sp)
200027e8:	02812423          	sw	s0,40(sp)
200027ec:	03010413          	addi	s0,sp,48
200027f0:	fea42623          	sw	a0,-20(s0)
200027f4:	feb42423          	sw	a1,-24(s0)
200027f8:	fec42223          	sw	a2,-28(s0)
200027fc:	fed42023          	sw	a3,-32(s0)
20002800:	fcf42c23          	sw	a5,-40(s0)
20002804:	00070793          	mv	a5,a4
20002808:	fcf41f23          	sh	a5,-34(s0)
	if( fill )
2000280c:	fd842783          	lw	a5,-40(s0)
20002810:	06078a63          	beqz	a5,20002884 <hw_tft_rect+0xa4>
	{
		_tft_lcd_fill((unsigned short)x1,(unsigned short)y1,(unsigned short)(x1+x2),(unsigned short)(y1+y2),(unsigned short)colour);
20002814:	fec42783          	lw	a5,-20(s0)
20002818:	01079513          	slli	a0,a5,0x10
2000281c:	01055513          	srli	a0,a0,0x10
20002820:	fe842783          	lw	a5,-24(s0)
20002824:	01079593          	slli	a1,a5,0x10
20002828:	0105d593          	srli	a1,a1,0x10
2000282c:	fec42783          	lw	a5,-20(s0)
20002830:	01079713          	slli	a4,a5,0x10
20002834:	01075713          	srli	a4,a4,0x10
20002838:	fe442783          	lw	a5,-28(s0)
2000283c:	01079793          	slli	a5,a5,0x10
20002840:	0107d793          	srli	a5,a5,0x10
20002844:	00f707b3          	add	a5,a4,a5
20002848:	01079613          	slli	a2,a5,0x10
2000284c:	01065613          	srli	a2,a2,0x10
20002850:	fe842783          	lw	a5,-24(s0)
20002854:	01079713          	slli	a4,a5,0x10
20002858:	01075713          	srli	a4,a4,0x10
2000285c:	fe042783          	lw	a5,-32(s0)
20002860:	01079793          	slli	a5,a5,0x10
20002864:	0107d793          	srli	a5,a5,0x10
20002868:	00f707b3          	add	a5,a4,a5
2000286c:	01079793          	slli	a5,a5,0x10
20002870:	0107d793          	srli	a5,a5,0x10
20002874:	fde45703          	lhu	a4,-34(s0)
20002878:	00078693          	mv	a3,a5
2000287c:	e60ff0ef          	jal	20001edc <_tft_lcd_fill>
		hw_tft_line(x1,y1,x1+x2,y1,colour);
		hw_tft_line(x1,y1,x1,y1+y2,colour);
		hw_tft_line(x1+x2,y1,x1+x2,y1+y2,colour);
		hw_tft_line(x1,y1+y2,x1+x2,y1+y2,colour);		
	}
}  
20002880:	0b40006f          	j	20002934 <hw_tft_rect+0x154>
		hw_tft_line(x1,y1,x1+x2,y1,colour);
20002884:	fec42703          	lw	a4,-20(s0)
20002888:	fe442783          	lw	a5,-28(s0)
2000288c:	00f707b3          	add	a5,a4,a5
20002890:	fde45703          	lhu	a4,-34(s0)
20002894:	fe842683          	lw	a3,-24(s0)
20002898:	00078613          	mv	a2,a5
2000289c:	fe842583          	lw	a1,-24(s0)
200028a0:	fec42503          	lw	a0,-20(s0)
200028a4:	d85ff0ef          	jal	20002628 <hw_tft_line>
		hw_tft_line(x1,y1,x1,y1+y2,colour);
200028a8:	fe842703          	lw	a4,-24(s0)
200028ac:	fe042783          	lw	a5,-32(s0)
200028b0:	00f707b3          	add	a5,a4,a5
200028b4:	fde45703          	lhu	a4,-34(s0)
200028b8:	00078693          	mv	a3,a5
200028bc:	fec42603          	lw	a2,-20(s0)
200028c0:	fe842583          	lw	a1,-24(s0)
200028c4:	fec42503          	lw	a0,-20(s0)
200028c8:	d61ff0ef          	jal	20002628 <hw_tft_line>
		hw_tft_line(x1+x2,y1,x1+x2,y1+y2,colour);
200028cc:	fec42703          	lw	a4,-20(s0)
200028d0:	fe442783          	lw	a5,-28(s0)
200028d4:	00f70533          	add	a0,a4,a5
200028d8:	fec42703          	lw	a4,-20(s0)
200028dc:	fe442783          	lw	a5,-28(s0)
200028e0:	00f70633          	add	a2,a4,a5
200028e4:	fe842703          	lw	a4,-24(s0)
200028e8:	fe042783          	lw	a5,-32(s0)
200028ec:	00f707b3          	add	a5,a4,a5
200028f0:	fde45703          	lhu	a4,-34(s0)
200028f4:	00078693          	mv	a3,a5
200028f8:	fe842583          	lw	a1,-24(s0)
200028fc:	d2dff0ef          	jal	20002628 <hw_tft_line>
		hw_tft_line(x1,y1+y2,x1+x2,y1+y2,colour);		
20002900:	fe842703          	lw	a4,-24(s0)
20002904:	fe042783          	lw	a5,-32(s0)
20002908:	00f705b3          	add	a1,a4,a5
2000290c:	fec42703          	lw	a4,-20(s0)
20002910:	fe442783          	lw	a5,-28(s0)
20002914:	00f70633          	add	a2,a4,a5
20002918:	fe842703          	lw	a4,-24(s0)
2000291c:	fe042783          	lw	a5,-32(s0)
20002920:	00f707b3          	add	a5,a4,a5
20002924:	fde45703          	lhu	a4,-34(s0)
20002928:	00078693          	mv	a3,a5
2000292c:	fec42503          	lw	a0,-20(s0)
20002930:	cf9ff0ef          	jal	20002628 <hw_tft_line>
}  
20002934:	00000013          	nop
20002938:	02c12083          	lw	ra,44(sp)
2000293c:	02812403          	lw	s0,40(sp)
20002940:	03010113          	addi	sp,sp,48
20002944:	00008067          	ret

20002948 <hw_tft_ellipse>:

void hw_tft_ellipse (int xc, int yc, int rx, int ry, uint16_t colour, int fill) 
{
20002948:	fa010113          	addi	sp,sp,-96
2000294c:	04112e23          	sw	ra,92(sp)
20002950:	04812c23          	sw	s0,88(sp)
20002954:	05212a23          	sw	s2,84(sp)
20002958:	05312823          	sw	s3,80(sp)
2000295c:	05412623          	sw	s4,76(sp)
20002960:	05512423          	sw	s5,72(sp)
20002964:	06010413          	addi	s0,sp,96
20002968:	faa42e23          	sw	a0,-68(s0)
2000296c:	fab42c23          	sw	a1,-72(s0)
20002970:	fac42a23          	sw	a2,-76(s0)
20002974:	fad42823          	sw	a3,-80(s0)
20002978:	faf42423          	sw	a5,-88(s0)
2000297c:	00070793          	mv	a5,a4
20002980:	faf41723          	sh	a5,-82(s0)
  // Draw points based on 4-way symmetry.
  float d1,dx,dy;
  
  int x = 0;
20002984:	fc042823          	sw	zero,-48(s0)
  int y = ry;
20002988:	fb042783          	lw	a5,-80(s0)
2000298c:	fcf42623          	sw	a5,-52(s0)

  // Initial decision parameter of region 1.
  d1 = (ry * ry) - (rx * rx * ry) + (0.25 * rx * rx);
20002990:	fb042783          	lw	a5,-80(s0)
20002994:	02f78733          	mul	a4,a5,a5
20002998:	fb442783          	lw	a5,-76(s0)
2000299c:	02f786b3          	mul	a3,a5,a5
200029a0:	fb042783          	lw	a5,-80(s0)
200029a4:	02f687b3          	mul	a5,a3,a5
200029a8:	40f707b3          	sub	a5,a4,a5
200029ac:	00078513          	mv	a0,a5
200029b0:	5e1030ef          	jal	20006790 <__floatsidf>
200029b4:	00050913          	mv	s2,a0
200029b8:	00058993          	mv	s3,a1
200029bc:	fb442503          	lw	a0,-76(s0)
200029c0:	5d1030ef          	jal	20006790 <__floatsidf>
200029c4:	00050713          	mv	a4,a0
200029c8:	00058793          	mv	a5,a1
200029cc:	200096b7          	lui	a3,0x20009
200029d0:	f586a603          	lw	a2,-168(a3) # 20008f58 <_malloc_usable_size_r+0x20>
200029d4:	f5c6a683          	lw	a3,-164(a3)
200029d8:	00070513          	mv	a0,a4
200029dc:	00078593          	mv	a1,a5
200029e0:	361020ef          	jal	20005540 <__muldf3>
200029e4:	00050713          	mv	a4,a0
200029e8:	00058793          	mv	a5,a1
200029ec:	00070a13          	mv	s4,a4
200029f0:	00078a93          	mv	s5,a5
200029f4:	fb442503          	lw	a0,-76(s0)
200029f8:	599030ef          	jal	20006790 <__floatsidf>
200029fc:	00050713          	mv	a4,a0
20002a00:	00058793          	mv	a5,a1
20002a04:	00070613          	mv	a2,a4
20002a08:	00078693          	mv	a3,a5
20002a0c:	000a0513          	mv	a0,s4
20002a10:	000a8593          	mv	a1,s5
20002a14:	32d020ef          	jal	20005540 <__muldf3>
20002a18:	00050713          	mv	a4,a0
20002a1c:	00058793          	mv	a5,a1
20002a20:	00070613          	mv	a2,a4
20002a24:	00078693          	mv	a3,a5
20002a28:	00090513          	mv	a0,s2
20002a2c:	00098593          	mv	a1,s3
20002a30:	06c020ef          	jal	20004a9c <__adddf3>
20002a34:	00050713          	mv	a4,a0
20002a38:	00058793          	mv	a5,a1
20002a3c:	00070513          	mv	a0,a4
20002a40:	00078593          	mv	a1,a5
20002a44:	5ed030ef          	jal	20006830 <__truncdfsf2>
20002a48:	20a507d3          	fmv.s	fa5,fa0
20002a4c:	fcf42e27          	fsw	fa5,-36(s0)
  dx = 2 * ry * ry * x;
20002a50:	fb042783          	lw	a5,-80(s0)
20002a54:	02f78733          	mul	a4,a5,a5
20002a58:	fd042783          	lw	a5,-48(s0)
20002a5c:	02f707b3          	mul	a5,a4,a5
20002a60:	00179793          	slli	a5,a5,0x1
20002a64:	d007f7d3          	fcvt.s.w	fa5,a5
20002a68:	fcf42c27          	fsw	fa5,-40(s0)
  dy = 2 * rx * rx * y;
20002a6c:	fb442783          	lw	a5,-76(s0)
20002a70:	02f78733          	mul	a4,a5,a5
20002a74:	fcc42783          	lw	a5,-52(s0)
20002a78:	02f707b3          	mul	a5,a4,a5
20002a7c:	00179793          	slli	a5,a5,0x1
20002a80:	d007f7d3          	fcvt.s.w	fa5,a5
20002a84:	fcf42a27          	fsw	fa5,-44(s0)

  // For region 1
  while (dx < dy) {
20002a88:	0f80006f          	j	20002b80 <hw_tft_ellipse+0x238>
    _draw_quadrants(x, y,xc,yc,colour,fill);
20002a8c:	fae45703          	lhu	a4,-82(s0)
20002a90:	fa842783          	lw	a5,-88(s0)
20002a94:	fb842683          	lw	a3,-72(s0)
20002a98:	fbc42603          	lw	a2,-68(s0)
20002a9c:	fcc42583          	lw	a1,-52(s0)
20002aa0:	fd042503          	lw	a0,-48(s0)
20002aa4:	f50ff0ef          	jal	200021f4 <_draw_quadrants>
    
    // Checking and updating value of decision parameter based on algorithm
    if (d1 < 0) {
20002aa8:	fdc42787          	flw	fa5,-36(s0)
20002aac:	f0000753          	fmv.w.x	fa4,zero
20002ab0:	a0e797d3          	flt.s	a5,fa5,fa4
20002ab4:	00079463          	bnez	a5,20002abc <hw_tft_ellipse+0x174>
20002ab8:	0500006f          	j	20002b08 <hw_tft_ellipse+0x1c0>
      x++;
20002abc:	fd042783          	lw	a5,-48(s0)
20002ac0:	00178793          	addi	a5,a5,1
20002ac4:	fcf42823          	sw	a5,-48(s0)
      dx = dx + (2 * ry * ry);
20002ac8:	fb042783          	lw	a5,-80(s0)
20002acc:	02f787b3          	mul	a5,a5,a5
20002ad0:	00179793          	slli	a5,a5,0x1
20002ad4:	d007f7d3          	fcvt.s.w	fa5,a5
20002ad8:	fd842707          	flw	fa4,-40(s0)
20002adc:	00f777d3          	fadd.s	fa5,fa4,fa5
20002ae0:	fcf42c27          	fsw	fa5,-40(s0)
      d1 = d1 + dx + (ry * ry);
20002ae4:	fdc42707          	flw	fa4,-36(s0)
20002ae8:	fd842787          	flw	fa5,-40(s0)
20002aec:	00f77753          	fadd.s	fa4,fa4,fa5
20002af0:	fb042783          	lw	a5,-80(s0)
20002af4:	02f787b3          	mul	a5,a5,a5
20002af8:	d007f7d3          	fcvt.s.w	fa5,a5
20002afc:	00f777d3          	fadd.s	fa5,fa4,fa5
20002b00:	fcf42e27          	fsw	fa5,-36(s0)
20002b04:	07c0006f          	j	20002b80 <hw_tft_ellipse+0x238>
    } else {
      x++;
20002b08:	fd042783          	lw	a5,-48(s0)
20002b0c:	00178793          	addi	a5,a5,1
20002b10:	fcf42823          	sw	a5,-48(s0)
      y--;
20002b14:	fcc42783          	lw	a5,-52(s0)
20002b18:	fff78793          	addi	a5,a5,-1
20002b1c:	fcf42623          	sw	a5,-52(s0)
      dx = dx + (2 * ry * ry);
20002b20:	fb042783          	lw	a5,-80(s0)
20002b24:	02f787b3          	mul	a5,a5,a5
20002b28:	00179793          	slli	a5,a5,0x1
20002b2c:	d007f7d3          	fcvt.s.w	fa5,a5
20002b30:	fd842707          	flw	fa4,-40(s0)
20002b34:	00f777d3          	fadd.s	fa5,fa4,fa5
20002b38:	fcf42c27          	fsw	fa5,-40(s0)
      dy = dy - (2 * rx * rx);
20002b3c:	fb442783          	lw	a5,-76(s0)
20002b40:	02f787b3          	mul	a5,a5,a5
20002b44:	00179793          	slli	a5,a5,0x1
20002b48:	d007f7d3          	fcvt.s.w	fa5,a5
20002b4c:	fd442707          	flw	fa4,-44(s0)
20002b50:	08f777d3          	fsub.s	fa5,fa4,fa5
20002b54:	fcf42a27          	fsw	fa5,-44(s0)
      d1 = d1 + dx - dy + (ry * ry);
20002b58:	fdc42707          	flw	fa4,-36(s0)
20002b5c:	fd842787          	flw	fa5,-40(s0)
20002b60:	00f77753          	fadd.s	fa4,fa4,fa5
20002b64:	fd442787          	flw	fa5,-44(s0)
20002b68:	08f77753          	fsub.s	fa4,fa4,fa5
20002b6c:	fb042783          	lw	a5,-80(s0)
20002b70:	02f787b3          	mul	a5,a5,a5
20002b74:	d007f7d3          	fcvt.s.w	fa5,a5
20002b78:	00f777d3          	fadd.s	fa5,fa4,fa5
20002b7c:	fcf42e27          	fsw	fa5,-36(s0)
  while (dx < dy) {
20002b80:	fd842707          	flw	fa4,-40(s0)
20002b84:	fd442787          	flw	fa5,-44(s0)
20002b88:	a0f717d3          	flt.s	a5,fa4,fa5
20002b8c:	f00790e3          	bnez	a5,20002a8c <hw_tft_ellipse+0x144>
    }
  }

  // Decision parameter of region 2
  float d2 = ((ry * ry) * ((x + 0.5) * (x + 0.5))) + ((rx * rx) * ((y - 1) * (y - 1))) - (rx * rx * ry * ry);
20002b90:	fb042783          	lw	a5,-80(s0)
20002b94:	02f787b3          	mul	a5,a5,a5
20002b98:	00078513          	mv	a0,a5
20002b9c:	3f5030ef          	jal	20006790 <__floatsidf>
20002ba0:	00050913          	mv	s2,a0
20002ba4:	00058993          	mv	s3,a1
20002ba8:	fd042503          	lw	a0,-48(s0)
20002bac:	3e5030ef          	jal	20006790 <__floatsidf>
20002bb0:	00050713          	mv	a4,a0
20002bb4:	00058793          	mv	a5,a1
20002bb8:	200096b7          	lui	a3,0x20009
20002bbc:	f606a603          	lw	a2,-160(a3) # 20008f60 <_malloc_usable_size_r+0x28>
20002bc0:	f646a683          	lw	a3,-156(a3)
20002bc4:	00070513          	mv	a0,a4
20002bc8:	00078593          	mv	a1,a5
20002bcc:	6d1010ef          	jal	20004a9c <__adddf3>
20002bd0:	00050713          	mv	a4,a0
20002bd4:	00058793          	mv	a5,a1
20002bd8:	00070a13          	mv	s4,a4
20002bdc:	00078a93          	mv	s5,a5
20002be0:	fd042503          	lw	a0,-48(s0)
20002be4:	3ad030ef          	jal	20006790 <__floatsidf>
20002be8:	00050713          	mv	a4,a0
20002bec:	00058793          	mv	a5,a1
20002bf0:	200096b7          	lui	a3,0x20009
20002bf4:	f606a603          	lw	a2,-160(a3) # 20008f60 <_malloc_usable_size_r+0x28>
20002bf8:	f646a683          	lw	a3,-156(a3)
20002bfc:	00070513          	mv	a0,a4
20002c00:	00078593          	mv	a1,a5
20002c04:	699010ef          	jal	20004a9c <__adddf3>
20002c08:	00050713          	mv	a4,a0
20002c0c:	00058793          	mv	a5,a1
20002c10:	00070613          	mv	a2,a4
20002c14:	00078693          	mv	a3,a5
20002c18:	000a0513          	mv	a0,s4
20002c1c:	000a8593          	mv	a1,s5
20002c20:	121020ef          	jal	20005540 <__muldf3>
20002c24:	00050713          	mv	a4,a0
20002c28:	00058793          	mv	a5,a1
20002c2c:	00070613          	mv	a2,a4
20002c30:	00078693          	mv	a3,a5
20002c34:	00090513          	mv	a0,s2
20002c38:	00098593          	mv	a1,s3
20002c3c:	105020ef          	jal	20005540 <__muldf3>
20002c40:	00050713          	mv	a4,a0
20002c44:	00058793          	mv	a5,a1
20002c48:	00070913          	mv	s2,a4
20002c4c:	00078993          	mv	s3,a5
20002c50:	fb442783          	lw	a5,-76(s0)
20002c54:	02f78733          	mul	a4,a5,a5
20002c58:	fcc42783          	lw	a5,-52(s0)
20002c5c:	fff78693          	addi	a3,a5,-1
20002c60:	fcc42783          	lw	a5,-52(s0)
20002c64:	fff78793          	addi	a5,a5,-1
20002c68:	02f687b3          	mul	a5,a3,a5
20002c6c:	02f707b3          	mul	a5,a4,a5
20002c70:	00078513          	mv	a0,a5
20002c74:	31d030ef          	jal	20006790 <__floatsidf>
20002c78:	00050713          	mv	a4,a0
20002c7c:	00058793          	mv	a5,a1
20002c80:	00070613          	mv	a2,a4
20002c84:	00078693          	mv	a3,a5
20002c88:	00090513          	mv	a0,s2
20002c8c:	00098593          	mv	a1,s3
20002c90:	60d010ef          	jal	20004a9c <__adddf3>
20002c94:	00050713          	mv	a4,a0
20002c98:	00058793          	mv	a5,a1
20002c9c:	00070913          	mv	s2,a4
20002ca0:	00078993          	mv	s3,a5
20002ca4:	fb442783          	lw	a5,-76(s0)
20002ca8:	02f78733          	mul	a4,a5,a5
20002cac:	fb042783          	lw	a5,-80(s0)
20002cb0:	02f70733          	mul	a4,a4,a5
20002cb4:	fb042783          	lw	a5,-80(s0)
20002cb8:	02f707b3          	mul	a5,a4,a5
20002cbc:	00078513          	mv	a0,a5
20002cc0:	2d1030ef          	jal	20006790 <__floatsidf>
20002cc4:	00050713          	mv	a4,a0
20002cc8:	00058793          	mv	a5,a1
20002ccc:	00070613          	mv	a2,a4
20002cd0:	00078693          	mv	a3,a5
20002cd4:	00090513          	mv	a0,s2
20002cd8:	00098593          	mv	a1,s3
20002cdc:	7fd020ef          	jal	20005cd8 <__subdf3>
20002ce0:	00050713          	mv	a4,a0
20002ce4:	00058793          	mv	a5,a1
20002ce8:	00070513          	mv	a0,a4
20002cec:	00078593          	mv	a1,a5
20002cf0:	341030ef          	jal	20006830 <__truncdfsf2>
20002cf4:	20a507d3          	fmv.s	fa5,fa0
20002cf8:	fcf42427          	fsw	fa5,-56(s0)
  
  // Plotting points of region 2
  while (y >= 0) {
20002cfc:	0f80006f          	j	20002df4 <hw_tft_ellipse+0x4ac>
    //drawQuadrants(x, y);
    _draw_quadrants(x, y,xc,yc,colour,fill);
20002d00:	fae45703          	lhu	a4,-82(s0)
20002d04:	fa842783          	lw	a5,-88(s0)
20002d08:	fb842683          	lw	a3,-72(s0)
20002d0c:	fbc42603          	lw	a2,-68(s0)
20002d10:	fcc42583          	lw	a1,-52(s0)
20002d14:	fd042503          	lw	a0,-48(s0)
20002d18:	cdcff0ef          	jal	200021f4 <_draw_quadrants>
   
    // Checking and updating parameter value based on algorithm
    if (d2 > 0) {
20002d1c:	fc842787          	flw	fa5,-56(s0)
20002d20:	f0000753          	fmv.w.x	fa4,zero
20002d24:	a0f717d3          	flt.s	a5,fa4,fa5
20002d28:	00079463          	bnez	a5,20002d30 <hw_tft_ellipse+0x3e8>
20002d2c:	0500006f          	j	20002d7c <hw_tft_ellipse+0x434>
      y--;
20002d30:	fcc42783          	lw	a5,-52(s0)
20002d34:	fff78793          	addi	a5,a5,-1
20002d38:	fcf42623          	sw	a5,-52(s0)
      dy = dy - (2 * rx * rx);
20002d3c:	fb442783          	lw	a5,-76(s0)
20002d40:	02f787b3          	mul	a5,a5,a5
20002d44:	00179793          	slli	a5,a5,0x1
20002d48:	d007f7d3          	fcvt.s.w	fa5,a5
20002d4c:	fd442707          	flw	fa4,-44(s0)
20002d50:	08f777d3          	fsub.s	fa5,fa4,fa5
20002d54:	fcf42a27          	fsw	fa5,-44(s0)
      d2 = d2 + (rx * rx) - dy;
20002d58:	fb442783          	lw	a5,-76(s0)
20002d5c:	02f787b3          	mul	a5,a5,a5
20002d60:	d007f753          	fcvt.s.w	fa4,a5
20002d64:	fc842787          	flw	fa5,-56(s0)
20002d68:	00f77753          	fadd.s	fa4,fa4,fa5
20002d6c:	fd442787          	flw	fa5,-44(s0)
20002d70:	08f777d3          	fsub.s	fa5,fa4,fa5
20002d74:	fcf42427          	fsw	fa5,-56(s0)
20002d78:	07c0006f          	j	20002df4 <hw_tft_ellipse+0x4ac>
    } else {
      y--;
20002d7c:	fcc42783          	lw	a5,-52(s0)
20002d80:	fff78793          	addi	a5,a5,-1
20002d84:	fcf42623          	sw	a5,-52(s0)
      x++;
20002d88:	fd042783          	lw	a5,-48(s0)
20002d8c:	00178793          	addi	a5,a5,1
20002d90:	fcf42823          	sw	a5,-48(s0)
      dx = dx + (2 * ry * ry);
20002d94:	fb042783          	lw	a5,-80(s0)
20002d98:	02f787b3          	mul	a5,a5,a5
20002d9c:	00179793          	slli	a5,a5,0x1
20002da0:	d007f7d3          	fcvt.s.w	fa5,a5
20002da4:	fd842707          	flw	fa4,-40(s0)
20002da8:	00f777d3          	fadd.s	fa5,fa4,fa5
20002dac:	fcf42c27          	fsw	fa5,-40(s0)
      dy = dy - (2 * rx * rx);
20002db0:	fb442783          	lw	a5,-76(s0)
20002db4:	02f787b3          	mul	a5,a5,a5
20002db8:	00179793          	slli	a5,a5,0x1
20002dbc:	d007f7d3          	fcvt.s.w	fa5,a5
20002dc0:	fd442707          	flw	fa4,-44(s0)
20002dc4:	08f777d3          	fsub.s	fa5,fa4,fa5
20002dc8:	fcf42a27          	fsw	fa5,-44(s0)
      d2 = d2 + dx - dy + (rx * rx);
20002dcc:	fc842707          	flw	fa4,-56(s0)
20002dd0:	fd842787          	flw	fa5,-40(s0)
20002dd4:	00f77753          	fadd.s	fa4,fa4,fa5
20002dd8:	fd442787          	flw	fa5,-44(s0)
20002ddc:	08f77753          	fsub.s	fa4,fa4,fa5
20002de0:	fb442783          	lw	a5,-76(s0)
20002de4:	02f787b3          	mul	a5,a5,a5
20002de8:	d007f7d3          	fcvt.s.w	fa5,a5
20002dec:	00f777d3          	fadd.s	fa5,fa4,fa5
20002df0:	fcf42427          	fsw	fa5,-56(s0)
  while (y >= 0) {
20002df4:	fcc42783          	lw	a5,-52(s0)
20002df8:	f007d4e3          	bgez	a5,20002d00 <hw_tft_ellipse+0x3b8>
    }
  }
}
20002dfc:	00000013          	nop
20002e00:	00000013          	nop
20002e04:	05c12083          	lw	ra,92(sp)
20002e08:	05812403          	lw	s0,88(sp)
20002e0c:	05412903          	lw	s2,84(sp)
20002e10:	05012983          	lw	s3,80(sp)
20002e14:	04c12a03          	lw	s4,76(sp)
20002e18:	04812a83          	lw	s5,72(sp)
20002e1c:	06010113          	addi	sp,sp,96
20002e20:	00008067          	ret

20002e24 <hw_tft_init>:

int hw_tft_init(int option)
{  
20002e24:	fe010113          	addi	sp,sp,-32
20002e28:	00112e23          	sw	ra,28(sp)
20002e2c:	00812c23          	sw	s0,24(sp)
20002e30:	02010413          	addi	s0,sp,32
20002e34:	fea42623          	sw	a0,-20(s0)
	switch( option & 7 )
20002e38:	fec42783          	lw	a5,-20(s0)
20002e3c:	0077f793          	andi	a5,a5,7
20002e40:	00200713          	li	a4,2
20002e44:	00f74663          	blt	a4,a5,20002e50 <hw_tft_init+0x2c>
20002e48:	00f04c63          	bgtz	a5,20002e60 <hw_tft_init+0x3c>
20002e4c:	00c0006f          	j	20002e58 <hw_tft_init+0x34>
20002e50:	00400713          	li	a4,4
20002e54:	00e78663          	beq	a5,a4,20002e60 <hw_tft_init+0x3c>
	{
		case 1: case 2: case 4:
		break;	/* Ok driver select */
		default: return 0;
20002e58:	00000793          	li	a5,0
20002e5c:	0e10006f          	j	2000373c <hw_tft_init+0x918>
		break;	/* Ok driver select */
20002e60:	00000013          	nop
	}
	_option = option;
20002e64:	200097b7          	lui	a5,0x20009
20002e68:	fec42703          	lw	a4,-20(s0)
20002e6c:	44e7a423          	sw	a4,1096(a5) # 20009448 <_option>
	


  * RCC_APB1PCENR |= TIM7EN;	/* Enable and calm timer 7 (used for delays... */
20002e70:	400217b7          	lui	a5,0x40021
20002e74:	01c78793          	addi	a5,a5,28 # 4002101c <__stack_top+0x20016e58>
20002e78:	0007a703          	lw	a4,0(a5)
20002e7c:	400217b7          	lui	a5,0x40021
20002e80:	01c78793          	addi	a5,a5,28 # 4002101c <__stack_top+0x20016e58>
20002e84:	02076713          	ori	a4,a4,32
20002e88:	00e7a023          	sw	a4,0(a5)
  * RCC_APB1PRSTR |= TIM7EN;
20002e8c:	400217b7          	lui	a5,0x40021
20002e90:	01078793          	addi	a5,a5,16 # 40021010 <__stack_top+0x20016e4c>
20002e94:	0007a703          	lw	a4,0(a5)
20002e98:	400217b7          	lui	a5,0x40021
20002e9c:	01078793          	addi	a5,a5,16 # 40021010 <__stack_top+0x20016e4c>
20002ea0:	02076713          	ori	a4,a4,32
20002ea4:	00e7a023          	sw	a4,0(a5)
  * RCC_APB1PRSTR &= ~TIM7EN;
20002ea8:	400217b7          	lui	a5,0x40021
20002eac:	01078793          	addi	a5,a5,16 # 40021010 <__stack_top+0x20016e4c>
20002eb0:	0007a703          	lw	a4,0(a5)
20002eb4:	400217b7          	lui	a5,0x40021
20002eb8:	01078793          	addi	a5,a5,16 # 40021010 <__stack_top+0x20016e4c>
20002ebc:	fdf77713          	andi	a4,a4,-33
20002ec0:	00e7a023          	sw	a4,0(a5)
	*TIM7_CTLR1 = 0;
20002ec4:	400017b7          	lui	a5,0x40001
20002ec8:	40078793          	addi	a5,a5,1024 # 40001400 <__stack_top+0x1fff723c>
20002ecc:	00079023          	sh	zero,0(a5)
	tft_display_init(); 	
20002ed0:	bb0fe0ef          	jal	20001280 <tft_display_init>
	/* Reset the TFT */
	LCD_LED_CLR;	 
20002ed4:	400117b7          	lui	a5,0x40011
20002ed8:	c0c78793          	addi	a5,a5,-1012 # 40010c0c <__stack_top+0x20006a48>
20002edc:	0007d783          	lhu	a5,0(a5)
20002ee0:	01079693          	slli	a3,a5,0x10
20002ee4:	0106d693          	srli	a3,a3,0x10
20002ee8:	400117b7          	lui	a5,0x40011
20002eec:	c0c78793          	addi	a5,a5,-1012 # 40010c0c <__stack_top+0x20006a48>
20002ef0:	ffffe737          	lui	a4,0xffffe
20002ef4:	fff70713          	addi	a4,a4,-1 # ffffdfff <__stack_top+0xdfff3e3b>
20002ef8:	00e6f733          	and	a4,a3,a4
20002efc:	01071713          	slli	a4,a4,0x10
20002f00:	01075713          	srli	a4,a4,0x10
20002f04:	00e79023          	sh	a4,0(a5)
	LCD_RST_CLR;
20002f08:	400117b7          	lui	a5,0x40011
20002f0c:	c0c78793          	addi	a5,a5,-1012 # 40010c0c <__stack_top+0x20006a48>
20002f10:	0007d783          	lhu	a5,0(a5)
20002f14:	01079693          	slli	a3,a5,0x10
20002f18:	0106d693          	srli	a3,a3,0x10
20002f1c:	400117b7          	lui	a5,0x40011
20002f20:	c0c78793          	addi	a5,a5,-1012 # 40010c0c <__stack_top+0x20006a48>
20002f24:	fffff737          	lui	a4,0xfffff
20002f28:	fff70713          	addi	a4,a4,-1 # ffffefff <__stack_top+0xdfff4e3b>
20002f2c:	00e6f733          	and	a4,a3,a4
20002f30:	01071713          	slli	a4,a4,0x10
20002f34:	01075713          	srli	a4,a4,0x10
20002f38:	00e79023          	sh	a4,0(a5)
	_delay_ms(200);	
20002f3c:	0c800513          	li	a0,200
20002f40:	968fe0ef          	jal	200010a8 <_delay_ms>
	LCD_RST_SET;
20002f44:	400117b7          	lui	a5,0x40011
20002f48:	c0c78793          	addi	a5,a5,-1012 # 40010c0c <__stack_top+0x20006a48>
20002f4c:	0007d783          	lhu	a5,0(a5)
20002f50:	01079693          	slli	a3,a5,0x10
20002f54:	0106d693          	srli	a3,a3,0x10
20002f58:	400117b7          	lui	a5,0x40011
20002f5c:	c0c78793          	addi	a5,a5,-1012 # 40010c0c <__stack_top+0x20006a48>
20002f60:	00001737          	lui	a4,0x1
20002f64:	00e6e733          	or	a4,a3,a4
20002f68:	01071713          	slli	a4,a4,0x10
20002f6c:	01075713          	srli	a4,a4,0x10
20002f70:	00e79023          	sh	a4,0(a5)
	_delay_ms(120);
20002f74:	07800513          	li	a0,120
20002f78:	930fe0ef          	jal	200010a8 <_delay_ms>
	
	/* Start init */
 	lcd_write_register(0x01);	/* Software reset */
20002f7c:	00100513          	li	a0,1
20002f80:	ec8fe0ef          	jal	20001648 <lcd_write_register>
	
	if( option & TFT_INIT_ST7796S )
20002f84:	fec42783          	lw	a5,-20(s0)
20002f88:	0027f793          	andi	a5,a5,2
20002f8c:	28078863          	beqz	a5,2000321c <hw_tft_init+0x3f8>
	{
		lcd_write_register(0xF0);
20002f90:	0f000513          	li	a0,240
20002f94:	eb4fe0ef          	jal	20001648 <lcd_write_register>
		lcd_write_data(0xC3);
20002f98:	0c300513          	li	a0,195
20002f9c:	f80fe0ef          	jal	2000171c <lcd_write_data>
		
		lcd_write_register(0xF0);
20002fa0:	0f000513          	li	a0,240
20002fa4:	ea4fe0ef          	jal	20001648 <lcd_write_register>
		lcd_write_data(0x96);
20002fa8:	09600513          	li	a0,150
20002fac:	f70fe0ef          	jal	2000171c <lcd_write_data>
		
		lcd_write_register(0x36);
20002fb0:	03600513          	li	a0,54
20002fb4:	e94fe0ef          	jal	20001648 <lcd_write_register>
		lcd_write_data(0x68);	
20002fb8:	06800513          	li	a0,104
20002fbc:	f60fe0ef          	jal	2000171c <lcd_write_data>
		
		lcd_write_register(0x3A);
20002fc0:	03a00513          	li	a0,58
20002fc4:	e84fe0ef          	jal	20001648 <lcd_write_register>
		lcd_write_data(0x05);
20002fc8:	00500513          	li	a0,5
20002fcc:	f50fe0ef          	jal	2000171c <lcd_write_data>
		
		lcd_write_register(0xB0);
20002fd0:	0b000513          	li	a0,176
20002fd4:	e74fe0ef          	jal	20001648 <lcd_write_register>
		lcd_write_data(0x80);	
20002fd8:	08000513          	li	a0,128
20002fdc:	f40fe0ef          	jal	2000171c <lcd_write_data>
		
		lcd_write_register(0xB6);
20002fe0:	0b600513          	li	a0,182
20002fe4:	e64fe0ef          	jal	20001648 <lcd_write_register>
		lcd_write_data(0x00);
20002fe8:	00000513          	li	a0,0
20002fec:	f30fe0ef          	jal	2000171c <lcd_write_data>
		lcd_write_data(0x02);	
20002ff0:	00200513          	li	a0,2
20002ff4:	f28fe0ef          	jal	2000171c <lcd_write_data>

		lcd_write_register(0xB5);
20002ff8:	0b500513          	li	a0,181
20002ffc:	e4cfe0ef          	jal	20001648 <lcd_write_register>
		lcd_write_data(0x02);	/* VFP */
20003000:	00200513          	li	a0,2
20003004:	f18fe0ef          	jal	2000171c <lcd_write_data>
		lcd_write_data(0x03);	/* VBP */
20003008:	00300513          	li	a0,3
2000300c:	f10fe0ef          	jal	2000171c <lcd_write_data>
		lcd_write_data(0x00);
20003010:	00000513          	li	a0,0
20003014:	f08fe0ef          	jal	2000171c <lcd_write_data>
		lcd_write_data(0x04);	/*HBP */
20003018:	00400513          	li	a0,4
2000301c:	f00fe0ef          	jal	2000171c <lcd_write_data>
		
		lcd_write_register(0xB1);
20003020:	0b100513          	li	a0,177
20003024:	e24fe0ef          	jal	20001648 <lcd_write_register>
		lcd_write_data(0x80);	
20003028:	08000513          	li	a0,128
2000302c:	ef0fe0ef          	jal	2000171c <lcd_write_data>
		lcd_write_data(0x10);	
20003030:	01000513          	li	a0,16
20003034:	ee8fe0ef          	jal	2000171c <lcd_write_data>

		lcd_write_register(0xB4);
20003038:	0b400513          	li	a0,180
2000303c:	e0cfe0ef          	jal	20001648 <lcd_write_register>
		lcd_write_data(0x00);
20003040:	00000513          	li	a0,0
20003044:	ed8fe0ef          	jal	2000171c <lcd_write_data>
		
		lcd_write_register(0xB7);
20003048:	0b700513          	li	a0,183
2000304c:	dfcfe0ef          	jal	20001648 <lcd_write_register>
		lcd_write_data(0xC6);
20003050:	0c600513          	li	a0,198
20003054:	ec8fe0ef          	jal	2000171c <lcd_write_data>
		
		lcd_write_register(0xC5);
20003058:	0c500513          	li	a0,197
2000305c:	decfe0ef          	jal	20001648 <lcd_write_register>
		lcd_write_data(0x24);
20003060:	02400513          	li	a0,36
20003064:	eb8fe0ef          	jal	2000171c <lcd_write_data>
		
		lcd_write_register(0xE4);
20003068:	0e400513          	li	a0,228
2000306c:	ddcfe0ef          	jal	20001648 <lcd_write_register>
		lcd_write_data(0x31);
20003070:	03100513          	li	a0,49
20003074:	ea8fe0ef          	jal	2000171c <lcd_write_data>
		
		lcd_write_register(0xE8);
20003078:	0e800513          	li	a0,232
2000307c:	dccfe0ef          	jal	20001648 <lcd_write_register>
		lcd_write_data(0x40);
20003080:	04000513          	li	a0,64
20003084:	e98fe0ef          	jal	2000171c <lcd_write_data>
		lcd_write_data(0x8A);
20003088:	08a00513          	li	a0,138
2000308c:	e90fe0ef          	jal	2000171c <lcd_write_data>
		lcd_write_data(0x00);
20003090:	00000513          	li	a0,0
20003094:	e88fe0ef          	jal	2000171c <lcd_write_data>
		lcd_write_data(0x00);
20003098:	00000513          	li	a0,0
2000309c:	e80fe0ef          	jal	2000171c <lcd_write_data>
		lcd_write_data(0x29);
200030a0:	02900513          	li	a0,41
200030a4:	e78fe0ef          	jal	2000171c <lcd_write_data>
		lcd_write_data(0x19);
200030a8:	01900513          	li	a0,25
200030ac:	e70fe0ef          	jal	2000171c <lcd_write_data>
		lcd_write_data(0xA5);
200030b0:	0a500513          	li	a0,165
200030b4:	e68fe0ef          	jal	2000171c <lcd_write_data>
		lcd_write_data(0x33);
200030b8:	03300513          	li	a0,51
200030bc:	e60fe0ef          	jal	2000171c <lcd_write_data>
		
		lcd_write_register(0xC2);
200030c0:	0c200513          	li	a0,194
200030c4:	d84fe0ef          	jal	20001648 <lcd_write_register>
		
		lcd_write_register(0xA7);
200030c8:	0a700513          	li	a0,167
200030cc:	d7cfe0ef          	jal	20001648 <lcd_write_register>
		
		lcd_write_register(0xE0);
200030d0:	0e000513          	li	a0,224
200030d4:	d74fe0ef          	jal	20001648 <lcd_write_register>
		lcd_write_data(0xF0);
200030d8:	0f000513          	li	a0,240
200030dc:	e40fe0ef          	jal	2000171c <lcd_write_data>
		lcd_write_data(0x09);
200030e0:	00900513          	li	a0,9
200030e4:	e38fe0ef          	jal	2000171c <lcd_write_data>
		lcd_write_data(0x13);
200030e8:	01300513          	li	a0,19
200030ec:	e30fe0ef          	jal	2000171c <lcd_write_data>
		lcd_write_data(0x12);
200030f0:	01200513          	li	a0,18
200030f4:	e28fe0ef          	jal	2000171c <lcd_write_data>
		lcd_write_data(0x12);
200030f8:	01200513          	li	a0,18
200030fc:	e20fe0ef          	jal	2000171c <lcd_write_data>
		lcd_write_data(0x2B);
20003100:	02b00513          	li	a0,43
20003104:	e18fe0ef          	jal	2000171c <lcd_write_data>
		lcd_write_data(0x3C);
20003108:	03c00513          	li	a0,60
2000310c:	e10fe0ef          	jal	2000171c <lcd_write_data>
		lcd_write_data(0x44);
20003110:	04400513          	li	a0,68
20003114:	e08fe0ef          	jal	2000171c <lcd_write_data>
		lcd_write_data(0x4B);
20003118:	04b00513          	li	a0,75
2000311c:	e00fe0ef          	jal	2000171c <lcd_write_data>
		lcd_write_data(0x1B);
20003120:	01b00513          	li	a0,27
20003124:	df8fe0ef          	jal	2000171c <lcd_write_data>
		lcd_write_data(0x18);
20003128:	01800513          	li	a0,24
2000312c:	df0fe0ef          	jal	2000171c <lcd_write_data>
		lcd_write_data(0x17);
20003130:	01700513          	li	a0,23
20003134:	de8fe0ef          	jal	2000171c <lcd_write_data>
		lcd_write_data(0x1D);
20003138:	01d00513          	li	a0,29
2000313c:	de0fe0ef          	jal	2000171c <lcd_write_data>
		lcd_write_data(0x21);
20003140:	02100513          	li	a0,33
20003144:	dd8fe0ef          	jal	2000171c <lcd_write_data>

		lcd_write_register(0XE1);
20003148:	0e100513          	li	a0,225
2000314c:	cfcfe0ef          	jal	20001648 <lcd_write_register>
		lcd_write_data(0xF0);
20003150:	0f000513          	li	a0,240
20003154:	dc8fe0ef          	jal	2000171c <lcd_write_data>
		lcd_write_data(0x09);
20003158:	00900513          	li	a0,9
2000315c:	dc0fe0ef          	jal	2000171c <lcd_write_data>
		lcd_write_data(0x13);
20003160:	01300513          	li	a0,19
20003164:	db8fe0ef          	jal	2000171c <lcd_write_data>
		lcd_write_data(0x0C);
20003168:	00c00513          	li	a0,12
2000316c:	db0fe0ef          	jal	2000171c <lcd_write_data>
		lcd_write_data(0x0D);
20003170:	00d00513          	li	a0,13
20003174:	da8fe0ef          	jal	2000171c <lcd_write_data>
		lcd_write_data(0x27);
20003178:	02700513          	li	a0,39
2000317c:	da0fe0ef          	jal	2000171c <lcd_write_data>
		lcd_write_data(0x3B);
20003180:	03b00513          	li	a0,59
20003184:	d98fe0ef          	jal	2000171c <lcd_write_data>
		lcd_write_data(0x44);
20003188:	04400513          	li	a0,68
2000318c:	d90fe0ef          	jal	2000171c <lcd_write_data>
		lcd_write_data(0x4D);
20003190:	04d00513          	li	a0,77
20003194:	d88fe0ef          	jal	2000171c <lcd_write_data>
		lcd_write_data(0x0B);
20003198:	00b00513          	li	a0,11
2000319c:	d80fe0ef          	jal	2000171c <lcd_write_data>
		lcd_write_data(0x17);
200031a0:	01700513          	li	a0,23
200031a4:	d78fe0ef          	jal	2000171c <lcd_write_data>
		lcd_write_data(0x17);
200031a8:	01700513          	li	a0,23
200031ac:	d70fe0ef          	jal	2000171c <lcd_write_data>
		lcd_write_data(0x1D);
200031b0:	01d00513          	li	a0,29
200031b4:	d68fe0ef          	jal	2000171c <lcd_write_data>
		lcd_write_data(0x21);
200031b8:	02100513          	li	a0,33
200031bc:	d60fe0ef          	jal	2000171c <lcd_write_data>

		lcd_write_register(0X36);
200031c0:	03600513          	li	a0,54
200031c4:	c84fe0ef          	jal	20001648 <lcd_write_register>
		lcd_write_data(0xEC);
200031c8:	0ec00513          	li	a0,236
200031cc:	d50fe0ef          	jal	2000171c <lcd_write_data>
		lcd_write_register(0xF0);
200031d0:	0f000513          	li	a0,240
200031d4:	c74fe0ef          	jal	20001648 <lcd_write_register>
		lcd_write_data(0xC3);
200031d8:	0c300513          	li	a0,195
200031dc:	d40fe0ef          	jal	2000171c <lcd_write_data>
		lcd_write_register(0xF0);
200031e0:	0f000513          	li	a0,240
200031e4:	c64fe0ef          	jal	20001648 <lcd_write_register>
		lcd_write_data(0x69);		
200031e8:	06900513          	li	a0,105
200031ec:	d30fe0ef          	jal	2000171c <lcd_write_data>
		lcd_write_register(0X13);
200031f0:	01300513          	li	a0,19
200031f4:	c54fe0ef          	jal	20001648 <lcd_write_register>
		
		lcd_write_register(0x13);
200031f8:	01300513          	li	a0,19
200031fc:	c4cfe0ef          	jal	20001648 <lcd_write_register>
		lcd_write_register(0x11);
20003200:	01100513          	li	a0,17
20003204:	c44fe0ef          	jal	20001648 <lcd_write_register>
		lcd_write_register(0x29);
20003208:	02900513          	li	a0,41
2000320c:	c3cfe0ef          	jal	20001648 <lcd_write_register>
		_tft_lcd_direction(1);	
20003210:	00100513          	li	a0,1
20003214:	b41fe0ef          	jal	20001d54 <_tft_lcd_direction>
20003218:	4a00006f          	j	200036b8 <hw_tft_init+0x894>
	}
	else if( option & TFT_INIT_ILI9488 )
2000321c:	fec42783          	lw	a5,-20(s0)
20003220:	0017f793          	andi	a5,a5,1
20003224:	22078c63          	beqz	a5,2000345c <hw_tft_init+0x638>
	{
		lcd_write_register(0xF7);
20003228:	0f700513          	li	a0,247
2000322c:	c1cfe0ef          	jal	20001648 <lcd_write_register>
		lcd_write_data(0xA9);
20003230:	0a900513          	li	a0,169
20003234:	ce8fe0ef          	jal	2000171c <lcd_write_data>
		lcd_write_data(0x51);
20003238:	05100513          	li	a0,81
2000323c:	ce0fe0ef          	jal	2000171c <lcd_write_data>
		lcd_write_data(0x2C);
20003240:	02c00513          	li	a0,44
20003244:	cd8fe0ef          	jal	2000171c <lcd_write_data>
		lcd_write_data(0x82);
20003248:	08200513          	li	a0,130
2000324c:	cd0fe0ef          	jal	2000171c <lcd_write_data>
		
		lcd_write_register(0xC0);
20003250:	0c000513          	li	a0,192
20003254:	bf4fe0ef          	jal	20001648 <lcd_write_register>
		lcd_write_data(0x11);
20003258:	01100513          	li	a0,17
2000325c:	cc0fe0ef          	jal	2000171c <lcd_write_data>
		lcd_write_data(0x09);
20003260:	00900513          	li	a0,9
20003264:	cb8fe0ef          	jal	2000171c <lcd_write_data>
		
		lcd_write_register(0xC1);
20003268:	0c100513          	li	a0,193
2000326c:	bdcfe0ef          	jal	20001648 <lcd_write_register>
		lcd_write_data(0x44);
20003270:	04400513          	li	a0,68
20003274:	ca8fe0ef          	jal	2000171c <lcd_write_data>
		
		lcd_write_register(0XC5);
20003278:	0c500513          	li	a0,197
2000327c:	bccfe0ef          	jal	20001648 <lcd_write_register>
		lcd_write_data(0x00);
20003280:	00000513          	li	a0,0
20003284:	c98fe0ef          	jal	2000171c <lcd_write_data>
		lcd_write_data(0x0A);
20003288:	00a00513          	li	a0,10
2000328c:	c90fe0ef          	jal	2000171c <lcd_write_data>
		lcd_write_data(0x80);
20003290:	08000513          	li	a0,128
20003294:	c88fe0ef          	jal	2000171c <lcd_write_data>
		
		lcd_write_register(0xB1);
20003298:	0b100513          	li	a0,177
2000329c:	bacfe0ef          	jal	20001648 <lcd_write_register>
		lcd_write_data(0xB0);
200032a0:	0b000513          	li	a0,176
200032a4:	c78fe0ef          	jal	2000171c <lcd_write_data>
		lcd_write_data(0x11);
200032a8:	01100513          	li	a0,17
200032ac:	c70fe0ef          	jal	2000171c <lcd_write_data>
		
		lcd_write_register(0xB4);
200032b0:	0b400513          	li	a0,180
200032b4:	b94fe0ef          	jal	20001648 <lcd_write_register>
		lcd_write_data(0x02);
200032b8:	00200513          	li	a0,2
200032bc:	c60fe0ef          	jal	2000171c <lcd_write_data>

		lcd_write_register(0xB6);
200032c0:	0b600513          	li	a0,182
200032c4:	b84fe0ef          	jal	20001648 <lcd_write_register>
		
		lcd_write_data(0x02);
200032c8:	00200513          	li	a0,2
200032cc:	c50fe0ef          	jal	2000171c <lcd_write_data>
		lcd_write_data(0x02);
200032d0:	00200513          	li	a0,2
200032d4:	c48fe0ef          	jal	2000171c <lcd_write_data>
		lcd_write_data(0x3B);
200032d8:	03b00513          	li	a0,59
200032dc:	c40fe0ef          	jal	2000171c <lcd_write_data>
		
		
		lcd_write_register(0xB7);
200032e0:	0b700513          	li	a0,183
200032e4:	b64fe0ef          	jal	20001648 <lcd_write_register>
		lcd_write_data(0xc6);
200032e8:	0c600513          	li	a0,198
200032ec:	c30fe0ef          	jal	2000171c <lcd_write_data>
		
		lcd_write_register(0xBE);
200032f0:	0be00513          	li	a0,190
200032f4:	b54fe0ef          	jal	20001648 <lcd_write_register>
		lcd_write_data(0x00);
200032f8:	00000513          	li	a0,0
200032fc:	c20fe0ef          	jal	2000171c <lcd_write_data>
		lcd_write_data(0x04);
20003300:	00400513          	li	a0,4
20003304:	c18fe0ef          	jal	2000171c <lcd_write_data>
		
		lcd_write_register(0xE9);
20003308:	0e900513          	li	a0,233
2000330c:	b3cfe0ef          	jal	20001648 <lcd_write_register>
		lcd_write_data(0x00);
20003310:	00000513          	li	a0,0
20003314:	c08fe0ef          	jal	2000171c <lcd_write_data>
		
		lcd_write_register(0x36);
20003318:	03600513          	li	a0,54
2000331c:	b2cfe0ef          	jal	20001648 <lcd_write_register>
		lcd_write_data(0x48);
20003320:	04800513          	li	a0,72
20003324:	bf8fe0ef          	jal	2000171c <lcd_write_data>
		lcd_write_register(0x3A);
20003328:	03a00513          	li	a0,58
2000332c:	b1cfe0ef          	jal	20001648 <lcd_write_register>
		lcd_write_data(0x06);
20003330:	00600513          	li	a0,6
20003334:	be8fe0ef          	jal	2000171c <lcd_write_data>
		
		lcd_write_register(0xE0);
20003338:	0e000513          	li	a0,224
2000333c:	b0cfe0ef          	jal	20001648 <lcd_write_register>
		lcd_write_data(0x00);
20003340:	00000513          	li	a0,0
20003344:	bd8fe0ef          	jal	2000171c <lcd_write_data>
		lcd_write_data(0x07);
20003348:	00700513          	li	a0,7
2000334c:	bd0fe0ef          	jal	2000171c <lcd_write_data>
		lcd_write_data(0x10);
20003350:	01000513          	li	a0,16
20003354:	bc8fe0ef          	jal	2000171c <lcd_write_data>
		lcd_write_data(0x09);
20003358:	00900513          	li	a0,9
2000335c:	bc0fe0ef          	jal	2000171c <lcd_write_data>
		lcd_write_data(0x17);
20003360:	01700513          	li	a0,23
20003364:	bb8fe0ef          	jal	2000171c <lcd_write_data>
		lcd_write_data(0x0B);
20003368:	00b00513          	li	a0,11
2000336c:	bb0fe0ef          	jal	2000171c <lcd_write_data>
		lcd_write_data(0x41);
20003370:	04100513          	li	a0,65
20003374:	ba8fe0ef          	jal	2000171c <lcd_write_data>
		lcd_write_data(0x89);
20003378:	08900513          	li	a0,137
2000337c:	ba0fe0ef          	jal	2000171c <lcd_write_data>
		lcd_write_data(0x4B);
20003380:	04b00513          	li	a0,75
20003384:	b98fe0ef          	jal	2000171c <lcd_write_data>
		lcd_write_data(0x0A);
20003388:	00a00513          	li	a0,10
2000338c:	b90fe0ef          	jal	2000171c <lcd_write_data>
		lcd_write_data(0x0C);
20003390:	00c00513          	li	a0,12
20003394:	b88fe0ef          	jal	2000171c <lcd_write_data>
		lcd_write_data(0x0E);
20003398:	00e00513          	li	a0,14
2000339c:	b80fe0ef          	jal	2000171c <lcd_write_data>
		lcd_write_data(0x18);
200033a0:	01800513          	li	a0,24
200033a4:	b78fe0ef          	jal	2000171c <lcd_write_data>
		lcd_write_data(0x1B);
200033a8:	01b00513          	li	a0,27
200033ac:	b70fe0ef          	jal	2000171c <lcd_write_data>
		lcd_write_data(0x0F);
200033b0:	00f00513          	li	a0,15
200033b4:	b68fe0ef          	jal	2000171c <lcd_write_data>
		
		lcd_write_register(0XE1);
200033b8:	0e100513          	li	a0,225
200033bc:	a8cfe0ef          	jal	20001648 <lcd_write_register>
		lcd_write_data(0x00);
200033c0:	00000513          	li	a0,0
200033c4:	b58fe0ef          	jal	2000171c <lcd_write_data>
		lcd_write_data(0x17);
200033c8:	01700513          	li	a0,23
200033cc:	b50fe0ef          	jal	2000171c <lcd_write_data>
		lcd_write_data(0x1A);
200033d0:	01a00513          	li	a0,26
200033d4:	b48fe0ef          	jal	2000171c <lcd_write_data>
		lcd_write_data(0x04);
200033d8:	00400513          	li	a0,4
200033dc:	b40fe0ef          	jal	2000171c <lcd_write_data>
		lcd_write_data(0x0E);
200033e0:	00e00513          	li	a0,14
200033e4:	b38fe0ef          	jal	2000171c <lcd_write_data>
		lcd_write_data(0x06);
200033e8:	00600513          	li	a0,6
200033ec:	b30fe0ef          	jal	2000171c <lcd_write_data>
		lcd_write_data(0x2F);
200033f0:	02f00513          	li	a0,47
200033f4:	b28fe0ef          	jal	2000171c <lcd_write_data>
		lcd_write_data(0x45);
200033f8:	04500513          	li	a0,69
200033fc:	b20fe0ef          	jal	2000171c <lcd_write_data>
		lcd_write_data(0x43);
20003400:	04300513          	li	a0,67
20003404:	b18fe0ef          	jal	2000171c <lcd_write_data>
		lcd_write_data(0x02);
20003408:	00200513          	li	a0,2
2000340c:	b10fe0ef          	jal	2000171c <lcd_write_data>
		lcd_write_data(0x0A);
20003410:	00a00513          	li	a0,10
20003414:	b08fe0ef          	jal	2000171c <lcd_write_data>
		lcd_write_data(0x09);
20003418:	00900513          	li	a0,9
2000341c:	b00fe0ef          	jal	2000171c <lcd_write_data>
		lcd_write_data(0x32);
20003420:	03200513          	li	a0,50
20003424:	af8fe0ef          	jal	2000171c <lcd_write_data>
		lcd_write_data(0x36);
20003428:	03600513          	li	a0,54
2000342c:	af0fe0ef          	jal	2000171c <lcd_write_data>
		lcd_write_data(0x0F);
20003430:	00f00513          	li	a0,15
20003434:	ae8fe0ef          	jal	2000171c <lcd_write_data>

		lcd_write_register(0x11);
20003438:	01100513          	li	a0,17
2000343c:	a0cfe0ef          	jal	20001648 <lcd_write_register>
		_delay_ms(200);
20003440:	0c800513          	li	a0,200
20003444:	c65fd0ef          	jal	200010a8 <_delay_ms>
		
		lcd_write_register(0x29);
20003448:	02900513          	li	a0,41
2000344c:	9fcfe0ef          	jal	20001648 <lcd_write_register>
		_tft_lcd_direction(1);
20003450:	00100513          	li	a0,1
20003454:	901fe0ef          	jal	20001d54 <_tft_lcd_direction>
20003458:	2600006f          	j	200036b8 <hw_tft_init+0x894>
	}
	else if( option & TFT_INIT_ILI9486 )
2000345c:	fec42783          	lw	a5,-20(s0)
20003460:	0047f793          	andi	a5,a5,4
20003464:	24078a63          	beqz	a5,200036b8 <hw_tft_init+0x894>
	{
		lcd_write_register(0XF1);
20003468:	0f100513          	li	a0,241
2000346c:	9dcfe0ef          	jal	20001648 <lcd_write_register>
		lcd_write_data(0x36);
20003470:	03600513          	li	a0,54
20003474:	aa8fe0ef          	jal	2000171c <lcd_write_data>
		lcd_write_data(0x04);
20003478:	00400513          	li	a0,4
2000347c:	aa0fe0ef          	jal	2000171c <lcd_write_data>
		lcd_write_data(0x00);
20003480:	00000513          	li	a0,0
20003484:	a98fe0ef          	jal	2000171c <lcd_write_data>
		lcd_write_data(0x3C);
20003488:	03c00513          	li	a0,60
2000348c:	a90fe0ef          	jal	2000171c <lcd_write_data>
		lcd_write_data(0X0F);
20003490:	00f00513          	li	a0,15
20003494:	a88fe0ef          	jal	2000171c <lcd_write_data>
		lcd_write_data(0x8F);
20003498:	08f00513          	li	a0,143
2000349c:	a80fe0ef          	jal	2000171c <lcd_write_data>
		
		lcd_write_register(0XF2);
200034a0:	0f200513          	li	a0,242
200034a4:	9a4fe0ef          	jal	20001648 <lcd_write_register>
		lcd_write_data(0x18);
200034a8:	01800513          	li	a0,24
200034ac:	a70fe0ef          	jal	2000171c <lcd_write_data>
		lcd_write_data(0xA3);
200034b0:	0a300513          	li	a0,163
200034b4:	a68fe0ef          	jal	2000171c <lcd_write_data>
		lcd_write_data(0x12);
200034b8:	01200513          	li	a0,18
200034bc:	a60fe0ef          	jal	2000171c <lcd_write_data>
		lcd_write_data(0x02);
200034c0:	00200513          	li	a0,2
200034c4:	a58fe0ef          	jal	2000171c <lcd_write_data>
		lcd_write_data(0XB2);
200034c8:	0b200513          	li	a0,178
200034cc:	a50fe0ef          	jal	2000171c <lcd_write_data>
		lcd_write_data(0x12);
200034d0:	01200513          	li	a0,18
200034d4:	a48fe0ef          	jal	2000171c <lcd_write_data>
		lcd_write_data(0xFF);
200034d8:	0ff00513          	li	a0,255
200034dc:	a40fe0ef          	jal	2000171c <lcd_write_data>
		lcd_write_data(0x10);
200034e0:	01000513          	li	a0,16
200034e4:	a38fe0ef          	jal	2000171c <lcd_write_data>
		lcd_write_data(0x00);
200034e8:	00000513          	li	a0,0
200034ec:	a30fe0ef          	jal	2000171c <lcd_write_data>
		
		lcd_write_register(0XF8);
200034f0:	0f800513          	li	a0,248
200034f4:	954fe0ef          	jal	20001648 <lcd_write_register>
		lcd_write_data(0x21);
200034f8:	02100513          	li	a0,33
200034fc:	a20fe0ef          	jal	2000171c <lcd_write_data>
		lcd_write_data(0x04);
20003500:	00400513          	li	a0,4
20003504:	a18fe0ef          	jal	2000171c <lcd_write_data>
		
		lcd_write_register(0XF9);
20003508:	0f900513          	li	a0,249
2000350c:	93cfe0ef          	jal	20001648 <lcd_write_register>
		lcd_write_data(0x00);
20003510:	00000513          	li	a0,0
20003514:	a08fe0ef          	jal	2000171c <lcd_write_data>
		lcd_write_data(0x08);
20003518:	00800513          	li	a0,8
2000351c:	a00fe0ef          	jal	2000171c <lcd_write_data>
		
		lcd_write_register(0x36);
20003520:	03600513          	li	a0,54
20003524:	924fe0ef          	jal	20001648 <lcd_write_register>
		lcd_write_data(0x08);
20003528:	00800513          	li	a0,8
2000352c:	9f0fe0ef          	jal	2000171c <lcd_write_data>
		
		lcd_write_register(0xB4);
20003530:	0b400513          	li	a0,180
20003534:	914fe0ef          	jal	20001648 <lcd_write_register>
		lcd_write_data(0x00);
20003538:	00000513          	li	a0,0
2000353c:	9e0fe0ef          	jal	2000171c <lcd_write_data>
		
		lcd_write_register(0xC1);
20003540:	0c100513          	li	a0,193
20003544:	904fe0ef          	jal	20001648 <lcd_write_register>
		lcd_write_data(0x47); //0x41
20003548:	04700513          	li	a0,71
2000354c:	9d0fe0ef          	jal	2000171c <lcd_write_data>
		
		lcd_write_register(0xC5);
20003550:	0c500513          	li	a0,197
20003554:	8f4fe0ef          	jal	20001648 <lcd_write_register>
		lcd_write_data(0x00);
20003558:	00000513          	li	a0,0
2000355c:	9c0fe0ef          	jal	2000171c <lcd_write_data>
		lcd_write_data(0xAF); //0x91
20003560:	0af00513          	li	a0,175
20003564:	9b8fe0ef          	jal	2000171c <lcd_write_data>
		lcd_write_data(0x80);
20003568:	08000513          	li	a0,128
2000356c:	9b0fe0ef          	jal	2000171c <lcd_write_data>
		lcd_write_data(0x00);
20003570:	00000513          	li	a0,0
20003574:	9a8fe0ef          	jal	2000171c <lcd_write_data>
		
		lcd_write_register(0xE0);
20003578:	0e000513          	li	a0,224
2000357c:	8ccfe0ef          	jal	20001648 <lcd_write_register>
		lcd_write_data(0x0F);
20003580:	00f00513          	li	a0,15
20003584:	998fe0ef          	jal	2000171c <lcd_write_data>
		lcd_write_data(0x1F);
20003588:	01f00513          	li	a0,31
2000358c:	990fe0ef          	jal	2000171c <lcd_write_data>
		lcd_write_data(0x1C);
20003590:	01c00513          	li	a0,28
20003594:	988fe0ef          	jal	2000171c <lcd_write_data>
		lcd_write_data(0x0C);
20003598:	00c00513          	li	a0,12
2000359c:	980fe0ef          	jal	2000171c <lcd_write_data>
		lcd_write_data(0x0F);
200035a0:	00f00513          	li	a0,15
200035a4:	978fe0ef          	jal	2000171c <lcd_write_data>
		lcd_write_data(0x08);
200035a8:	00800513          	li	a0,8
200035ac:	970fe0ef          	jal	2000171c <lcd_write_data>
		lcd_write_data(0x48);
200035b0:	04800513          	li	a0,72
200035b4:	968fe0ef          	jal	2000171c <lcd_write_data>
		lcd_write_data(0x98);
200035b8:	09800513          	li	a0,152
200035bc:	960fe0ef          	jal	2000171c <lcd_write_data>
		lcd_write_data(0x37);
200035c0:	03700513          	li	a0,55
200035c4:	958fe0ef          	jal	2000171c <lcd_write_data>
		lcd_write_data(0x0A);
200035c8:	00a00513          	li	a0,10
200035cc:	950fe0ef          	jal	2000171c <lcd_write_data>
		lcd_write_data(0x13);
200035d0:	01300513          	li	a0,19
200035d4:	948fe0ef          	jal	2000171c <lcd_write_data>
		lcd_write_data(0x04);
200035d8:	00400513          	li	a0,4
200035dc:	940fe0ef          	jal	2000171c <lcd_write_data>
		lcd_write_data(0x11);
200035e0:	01100513          	li	a0,17
200035e4:	938fe0ef          	jal	2000171c <lcd_write_data>
		lcd_write_data(0x0D);
200035e8:	00d00513          	li	a0,13
200035ec:	930fe0ef          	jal	2000171c <lcd_write_data>
		lcd_write_data(0x00);
200035f0:	00000513          	li	a0,0
200035f4:	928fe0ef          	jal	2000171c <lcd_write_data>
		
		lcd_write_register(0xE1);
200035f8:	0e100513          	li	a0,225
200035fc:	84cfe0ef          	jal	20001648 <lcd_write_register>
		lcd_write_data(0x0F);
20003600:	00f00513          	li	a0,15
20003604:	918fe0ef          	jal	2000171c <lcd_write_data>
		lcd_write_data(0x32);
20003608:	03200513          	li	a0,50
2000360c:	910fe0ef          	jal	2000171c <lcd_write_data>
		lcd_write_data(0x2E);
20003610:	02e00513          	li	a0,46
20003614:	908fe0ef          	jal	2000171c <lcd_write_data>
		lcd_write_data(0x0B);
20003618:	00b00513          	li	a0,11
2000361c:	900fe0ef          	jal	2000171c <lcd_write_data>
		lcd_write_data(0x0D);
20003620:	00d00513          	li	a0,13
20003624:	8f8fe0ef          	jal	2000171c <lcd_write_data>
		lcd_write_data(0x05);
20003628:	00500513          	li	a0,5
2000362c:	8f0fe0ef          	jal	2000171c <lcd_write_data>
		lcd_write_data(0x47);
20003630:	04700513          	li	a0,71
20003634:	8e8fe0ef          	jal	2000171c <lcd_write_data>
		lcd_write_data(0x75);
20003638:	07500513          	li	a0,117
2000363c:	8e0fe0ef          	jal	2000171c <lcd_write_data>
		lcd_write_data(0x37);
20003640:	03700513          	li	a0,55
20003644:	8d8fe0ef          	jal	2000171c <lcd_write_data>
		lcd_write_data(0x06);
20003648:	00600513          	li	a0,6
2000364c:	8d0fe0ef          	jal	2000171c <lcd_write_data>
		lcd_write_data(0x10);
20003650:	01000513          	li	a0,16
20003654:	8c8fe0ef          	jal	2000171c <lcd_write_data>
		lcd_write_data(0x03);
20003658:	00300513          	li	a0,3
2000365c:	8c0fe0ef          	jal	2000171c <lcd_write_data>
		lcd_write_data(0x24);
20003660:	02400513          	li	a0,36
20003664:	8b8fe0ef          	jal	2000171c <lcd_write_data>
		lcd_write_data(0x20);
20003668:	02000513          	li	a0,32
2000366c:	8b0fe0ef          	jal	2000171c <lcd_write_data>
		lcd_write_data(0x00);
20003670:	00000513          	li	a0,0
20003674:	8a8fe0ef          	jal	2000171c <lcd_write_data>
		
		lcd_write_register(0x3A);
20003678:	03a00513          	li	a0,58
2000367c:	fcdfd0ef          	jal	20001648 <lcd_write_register>
		lcd_write_data(0x66);
20003680:	06600513          	li	a0,102
20003684:	898fe0ef          	jal	2000171c <lcd_write_data>
		
		lcd_write_register(0x11);
20003688:	01100513          	li	a0,17
2000368c:	fbdfd0ef          	jal	20001648 <lcd_write_register>
		
		lcd_write_register(0x36);
20003690:	03600513          	li	a0,54
20003694:	fb5fd0ef          	jal	20001648 <lcd_write_register>
		lcd_write_data(0x28);
20003698:	02800513          	li	a0,40
2000369c:	880fe0ef          	jal	2000171c <lcd_write_data>
		
		_delay_ms(120);
200036a0:	07800513          	li	a0,120
200036a4:	a05fd0ef          	jal	200010a8 <_delay_ms>
		lcd_write_register(0x29);
200036a8:	02900513          	li	a0,41
200036ac:	f9dfd0ef          	jal	20001648 <lcd_write_register>
		_tft_lcd_direction(3);
200036b0:	00300513          	li	a0,3
200036b4:	ea0fe0ef          	jal	20001d54 <_tft_lcd_direction>
	}
	_tft_lcd_setwindow(0,0,lcddev.width-1,lcddev.height-1);
200036b8:	200097b7          	lui	a5,0x20009
200036bc:	43878793          	addi	a5,a5,1080 # 20009438 <lcddev>
200036c0:	0007d783          	lhu	a5,0(a5)
200036c4:	fff78793          	addi	a5,a5,-1
200036c8:	01079713          	slli	a4,a5,0x10
200036cc:	01075713          	srli	a4,a4,0x10
200036d0:	200097b7          	lui	a5,0x20009
200036d4:	43878793          	addi	a5,a5,1080 # 20009438 <lcddev>
200036d8:	0027d783          	lhu	a5,2(a5)
200036dc:	fff78793          	addi	a5,a5,-1
200036e0:	01079793          	slli	a5,a5,0x10
200036e4:	0107d793          	srli	a5,a5,0x10
200036e8:	00078693          	mv	a3,a5
200036ec:	00070613          	mv	a2,a4
200036f0:	00000593          	li	a1,0
200036f4:	00000513          	li	a0,0
200036f8:	a78fe0ef          	jal	20001970 <_tft_lcd_setwindow>
	tft_fill_colour(TFT_YELLOW);
200036fc:	000107b7          	lui	a5,0x10
20003700:	fe078513          	addi	a0,a5,-32 # ffe0 <_start-0x1fff0020>
20003704:	bbcfe0ef          	jal	20001ac0 <tft_fill_colour>
	LCD_LED_SET;	
20003708:	400117b7          	lui	a5,0x40011
2000370c:	c0c78793          	addi	a5,a5,-1012 # 40010c0c <__stack_top+0x20006a48>
20003710:	0007d783          	lhu	a5,0(a5)
20003714:	01079693          	slli	a3,a5,0x10
20003718:	0106d693          	srli	a3,a3,0x10
2000371c:	400117b7          	lui	a5,0x40011
20003720:	c0c78793          	addi	a5,a5,-1012 # 40010c0c <__stack_top+0x20006a48>
20003724:	00002737          	lui	a4,0x2
20003728:	00e6e733          	or	a4,a3,a4
2000372c:	01071713          	slli	a4,a4,0x10
20003730:	01075713          	srli	a4,a4,0x10
20003734:	00e79023          	sh	a4,0(a5)
	return 1; 
20003738:	00100793          	li	a5,1
}
2000373c:	00078513          	mv	a0,a5
20003740:	01c12083          	lw	ra,28(sp)
20003744:	01812403          	lw	s0,24(sp)
20003748:	02010113          	addi	sp,sp,32
2000374c:	00008067          	ret

20003750 <_pll_init_144>:
20003750:	fe010113          	addi	sp,sp,-32
20003754:	00112e23          	sw	ra,28(sp)
20003758:	00812c23          	sw	s0,24(sp)
2000375c:	02010413          	addi	s0,sp,32
20003760:	fe042623          	sw	zero,-20(s0)
20003764:	fe042423          	sw	zero,-24(s0)
20003768:	400217b7          	lui	a5,0x40021
2000376c:	0007a703          	lw	a4,0(a5) # 40021000 <__stack_top+0x20016e3c>
20003770:	400217b7          	lui	a5,0x40021
20003774:	00176713          	ori	a4,a4,1
20003778:	00e7a023          	sw	a4,0(a5) # 40021000 <__stack_top+0x20016e3c>
2000377c:	400217b7          	lui	a5,0x40021
20003780:	00478793          	addi	a5,a5,4 # 40021004 <__stack_top+0x20016e40>
20003784:	0007a683          	lw	a3,0(a5)
20003788:	400217b7          	lui	a5,0x40021
2000378c:	00478793          	addi	a5,a5,4 # 40021004 <__stack_top+0x20016e40>
20003790:	f8ff0737          	lui	a4,0xf8ff0
20003794:	00e6f733          	and	a4,a3,a4
20003798:	00e7a023          	sw	a4,0(a5)
2000379c:	400217b7          	lui	a5,0x40021
200037a0:	0007a683          	lw	a3,0(a5) # 40021000 <__stack_top+0x20016e3c>
200037a4:	400217b7          	lui	a5,0x40021
200037a8:	fef70737          	lui	a4,0xfef70
200037ac:	fff70713          	addi	a4,a4,-1 # fef6ffff <__stack_top+0xdef65e3b>
200037b0:	00e6f733          	and	a4,a3,a4
200037b4:	00e7a023          	sw	a4,0(a5) # 40021000 <__stack_top+0x20016e3c>
200037b8:	400217b7          	lui	a5,0x40021
200037bc:	0007a683          	lw	a3,0(a5) # 40021000 <__stack_top+0x20016e3c>
200037c0:	400217b7          	lui	a5,0x40021
200037c4:	fffc0737          	lui	a4,0xfffc0
200037c8:	fff70713          	addi	a4,a4,-1 # fffbffff <__stack_top+0xdffb5e3b>
200037cc:	00e6f733          	and	a4,a3,a4
200037d0:	00e7a023          	sw	a4,0(a5) # 40021000 <__stack_top+0x20016e3c>
200037d4:	400217b7          	lui	a5,0x40021
200037d8:	00478793          	addi	a5,a5,4 # 40021004 <__stack_top+0x20016e40>
200037dc:	0007a683          	lw	a3,0(a5)
200037e0:	400217b7          	lui	a5,0x40021
200037e4:	00478793          	addi	a5,a5,4 # 40021004 <__stack_top+0x20016e40>
200037e8:	ff810737          	lui	a4,0xff810
200037ec:	fff70713          	addi	a4,a4,-1 # ff80ffff <__stack_top+0xdf805e3b>
200037f0:	00e6f733          	and	a4,a3,a4
200037f4:	00e7a023          	sw	a4,0(a5)
200037f8:	400217b7          	lui	a5,0x40021
200037fc:	0007a683          	lw	a3,0(a5) # 40021000 <__stack_top+0x20016e3c>
20003800:	400217b7          	lui	a5,0x40021
20003804:	ec000737          	lui	a4,0xec000
20003808:	fff70713          	addi	a4,a4,-1 # ebffffff <__stack_top+0xcbff5e3b>
2000380c:	00e6f733          	and	a4,a3,a4
20003810:	00e7a023          	sw	a4,0(a5) # 40021000 <__stack_top+0x20016e3c>
20003814:	400217b7          	lui	a5,0x40021
20003818:	00878793          	addi	a5,a5,8 # 40021008 <__stack_top+0x20016e44>
2000381c:	00ff0737          	lui	a4,0xff0
20003820:	00e7a023          	sw	a4,0(a5)
20003824:	400217b7          	lui	a5,0x40021
20003828:	02c78793          	addi	a5,a5,44 # 4002102c <__stack_top+0x20016e68>
2000382c:	0007a023          	sw	zero,0(a5)
20003830:	400217b7          	lui	a5,0x40021
20003834:	0007a683          	lw	a3,0(a5) # 40021000 <__stack_top+0x20016e3c>
20003838:	400217b7          	lui	a5,0x40021
2000383c:	00010737          	lui	a4,0x10
20003840:	00e6e733          	or	a4,a3,a4
20003844:	00e7a023          	sw	a4,0(a5) # 40021000 <__stack_top+0x20016e3c>
20003848:	400217b7          	lui	a5,0x40021
2000384c:	0007a703          	lw	a4,0(a5) # 40021000 <__stack_top+0x20016e3c>
20003850:	000207b7          	lui	a5,0x20
20003854:	00f777b3          	and	a5,a4,a5
20003858:	fef42423          	sw	a5,-24(s0)
2000385c:	fec42783          	lw	a5,-20(s0)
20003860:	00178793          	addi	a5,a5,1 # 20001 <_start-0x1ffdffff>
20003864:	fef42623          	sw	a5,-20(s0)
20003868:	fe842783          	lw	a5,-24(s0)
2000386c:	00079863          	bnez	a5,2000387c <_pll_init_144+0x12c>
20003870:	fec42703          	lw	a4,-20(s0)
20003874:	1f400793          	li	a5,500
20003878:	fcf718e3          	bne	a4,a5,20003848 <_pll_init_144+0xf8>
2000387c:	400217b7          	lui	a5,0x40021
20003880:	0007a703          	lw	a4,0(a5) # 40021000 <__stack_top+0x20016e3c>
20003884:	000207b7          	lui	a5,0x20
20003888:	00f777b3          	and	a5,a4,a5
2000388c:	00079663          	bnez	a5,20003898 <_pll_init_144+0x148>
20003890:	00100793          	li	a5,1
20003894:	11c0006f          	j	200039b0 <_pll_init_144+0x260>
20003898:	400217b7          	lui	a5,0x40021
2000389c:	00478713          	addi	a4,a5,4 # 40021004 <__stack_top+0x20016e40>
200038a0:	400217b7          	lui	a5,0x40021
200038a4:	00478793          	addi	a5,a5,4 # 40021004 <__stack_top+0x20016e40>
200038a8:	00072703          	lw	a4,0(a4) # 10000 <_start-0x1fff0000>
200038ac:	00e7a023          	sw	a4,0(a5)
200038b0:	400217b7          	lui	a5,0x40021
200038b4:	00478713          	addi	a4,a5,4 # 40021004 <__stack_top+0x20016e40>
200038b8:	400217b7          	lui	a5,0x40021
200038bc:	00478793          	addi	a5,a5,4 # 40021004 <__stack_top+0x20016e40>
200038c0:	00072703          	lw	a4,0(a4)
200038c4:	00e7a023          	sw	a4,0(a5)
200038c8:	400217b7          	lui	a5,0x40021
200038cc:	02c78793          	addi	a5,a5,44 # 4002102c <__stack_top+0x20016e68>
200038d0:	0007a703          	lw	a4,0(a5)
200038d4:	400217b7          	lui	a5,0x40021
200038d8:	02c78793          	addi	a5,a5,44 # 4002102c <__stack_top+0x20016e68>
200038dc:	40076713          	ori	a4,a4,1024
200038e0:	00e7a023          	sw	a4,0(a5)
200038e4:	400217b7          	lui	a5,0x40021
200038e8:	00478793          	addi	a5,a5,4 # 40021004 <__stack_top+0x20016e40>
200038ec:	0007a683          	lw	a3,0(a5)
200038f0:	400217b7          	lui	a5,0x40021
200038f4:	00478793          	addi	a5,a5,4 # 40021004 <__stack_top+0x20016e40>
200038f8:	ffc10737          	lui	a4,0xffc10
200038fc:	fff70713          	addi	a4,a4,-1 # ffc0ffff <__stack_top+0xdfc05e3b>
20003900:	00e6f733          	and	a4,a3,a4
20003904:	00e7a023          	sw	a4,0(a5)
20003908:	400217b7          	lui	a5,0x40021
2000390c:	00478793          	addi	a5,a5,4 # 40021004 <__stack_top+0x20016e40>
20003910:	0007a683          	lw	a3,0(a5)
20003914:	400217b7          	lui	a5,0x40021
20003918:	00478793          	addi	a5,a5,4 # 40021004 <__stack_top+0x20016e40>
2000391c:	00010737          	lui	a4,0x10
20003920:	00e6e733          	or	a4,a3,a4
20003924:	00e7a023          	sw	a4,0(a5)
20003928:	400217b7          	lui	a5,0x40021
2000392c:	0007a683          	lw	a3,0(a5) # 40021000 <__stack_top+0x20016e3c>
20003930:	400217b7          	lui	a5,0x40021
20003934:	01000737          	lui	a4,0x1000
20003938:	00e6e733          	or	a4,a3,a4
2000393c:	00e7a023          	sw	a4,0(a5) # 40021000 <__stack_top+0x20016e3c>
20003940:	00000013          	nop
20003944:	400217b7          	lui	a5,0x40021
20003948:	0007a703          	lw	a4,0(a5) # 40021000 <__stack_top+0x20016e3c>
2000394c:	020007b7          	lui	a5,0x2000
20003950:	00f777b3          	and	a5,a4,a5
20003954:	fe0788e3          	beqz	a5,20003944 <_pll_init_144+0x1f4>
20003958:	400217b7          	lui	a5,0x40021
2000395c:	00478793          	addi	a5,a5,4 # 40021004 <__stack_top+0x20016e40>
20003960:	0007a703          	lw	a4,0(a5)
20003964:	400217b7          	lui	a5,0x40021
20003968:	00478793          	addi	a5,a5,4 # 40021004 <__stack_top+0x20016e40>
2000396c:	ffc77713          	andi	a4,a4,-4
20003970:	00e7a023          	sw	a4,0(a5)
20003974:	400217b7          	lui	a5,0x40021
20003978:	00478793          	addi	a5,a5,4 # 40021004 <__stack_top+0x20016e40>
2000397c:	0007a703          	lw	a4,0(a5)
20003980:	400217b7          	lui	a5,0x40021
20003984:	00478793          	addi	a5,a5,4 # 40021004 <__stack_top+0x20016e40>
20003988:	00276713          	ori	a4,a4,2
2000398c:	00e7a023          	sw	a4,0(a5)
20003990:	00000013          	nop
20003994:	400217b7          	lui	a5,0x40021
20003998:	00478793          	addi	a5,a5,4 # 40021004 <__stack_top+0x20016e40>
2000399c:	0007a783          	lw	a5,0(a5)
200039a0:	00c7f713          	andi	a4,a5,12
200039a4:	00800793          	li	a5,8
200039a8:	fef716e3          	bne	a4,a5,20003994 <_pll_init_144+0x244>
200039ac:	00000793          	li	a5,0
200039b0:	00078513          	mv	a0,a5
200039b4:	01c12083          	lw	ra,28(sp)
200039b8:	01812403          	lw	s0,24(sp)
200039bc:	02010113          	addi	sp,sp,32
200039c0:	00008067          	ret

200039c4 <crt_timer_interrupt>:
200039c4:	fd010113          	addi	sp,sp,-48
200039c8:	02112623          	sw	ra,44(sp)
200039cc:	02512423          	sw	t0,40(sp)
200039d0:	02812223          	sw	s0,36(sp)
200039d4:	02a12023          	sw	a0,32(sp)
200039d8:	00b12e23          	sw	a1,28(sp)
200039dc:	00c12c23          	sw	a2,24(sp)
200039e0:	00d12a23          	sw	a3,20(sp)
200039e4:	00e12823          	sw	a4,16(sp)
200039e8:	00f12623          	sw	a5,12(sp)
200039ec:	01012423          	sw	a6,8(sp)
200039f0:	03010413          	addi	s0,sp,48
200039f4:	400017b7          	lui	a5,0x40001
200039f8:	0107d783          	lhu	a5,16(a5) # 40001010 <__stack_top+0x1fff6e4c>
200039fc:	01079713          	slli	a4,a5,0x10
20003a00:	01075713          	srli	a4,a4,0x10
20003a04:	400017b7          	lui	a5,0x40001
20003a08:	ffe77713          	andi	a4,a4,-2
20003a0c:	01071713          	slli	a4,a4,0x10
20003a10:	01075713          	srli	a4,a4,0x10
20003a14:	00e79823          	sh	a4,16(a5) # 40001010 <__stack_top+0x1fff6e4c>
20003a18:	200097b7          	lui	a5,0x20009
20003a1c:	4507a703          	lw	a4,1104(a5) # 20009450 <current_time>
20003a20:	4547a783          	lw	a5,1108(a5)
20003a24:	00100513          	li	a0,1
20003a28:	00000593          	li	a1,0
20003a2c:	00a70633          	add	a2,a4,a0
20003a30:	00060813          	mv	a6,a2
20003a34:	00e83833          	sltu	a6,a6,a4
20003a38:	00b786b3          	add	a3,a5,a1
20003a3c:	00d807b3          	add	a5,a6,a3
20003a40:	00078693          	mv	a3,a5
20003a44:	00060713          	mv	a4,a2
20003a48:	00068793          	mv	a5,a3
20003a4c:	200096b7          	lui	a3,0x20009
20003a50:	44e6a823          	sw	a4,1104(a3) # 20009450 <current_time>
20003a54:	44f6aa23          	sw	a5,1108(a3)
20003a58:	00000013          	nop
20003a5c:	02c12083          	lw	ra,44(sp)
20003a60:	02812283          	lw	t0,40(sp)
20003a64:	02412403          	lw	s0,36(sp)
20003a68:	02012503          	lw	a0,32(sp)
20003a6c:	01c12583          	lw	a1,28(sp)
20003a70:	01812603          	lw	a2,24(sp)
20003a74:	01412683          	lw	a3,20(sp)
20003a78:	01012703          	lw	a4,16(sp)
20003a7c:	00c12783          	lw	a5,12(sp)
20003a80:	00812803          	lw	a6,8(sp)
20003a84:	03010113          	addi	sp,sp,48
20003a88:	30200073          	mret

20003a8c <_times>:
20003a8c:	fe010113          	addi	sp,sp,-32
20003a90:	00112e23          	sw	ra,28(sp)
20003a94:	00812c23          	sw	s0,24(sp)
20003a98:	02010413          	addi	s0,sp,32
20003a9c:	fea42623          	sw	a0,-20(s0)
20003aa0:	200097b7          	lui	a5,0x20009
20003aa4:	4507a703          	lw	a4,1104(a5) # 20009450 <current_time>
20003aa8:	4547a783          	lw	a5,1108(a5)
20003aac:	fec42783          	lw	a5,-20(s0)
20003ab0:	00e7a223          	sw	a4,4(a5)
20003ab4:	fec42783          	lw	a5,-20(s0)
20003ab8:	0047a703          	lw	a4,4(a5)
20003abc:	fec42783          	lw	a5,-20(s0)
20003ac0:	00e7a023          	sw	a4,0(a5)
20003ac4:	200097b7          	lui	a5,0x20009
20003ac8:	4507a703          	lw	a4,1104(a5) # 20009450 <current_time>
20003acc:	4547a783          	lw	a5,1108(a5)
20003ad0:	00070793          	mv	a5,a4
20003ad4:	00078513          	mv	a0,a5
20003ad8:	01c12083          	lw	ra,28(sp)
20003adc:	01812403          	lw	s0,24(sp)
20003ae0:	02010113          	addi	sp,sp,32
20003ae4:	00008067          	ret

20003ae8 <_gettimeofday>:
20003ae8:	fd010113          	addi	sp,sp,-48
20003aec:	02112623          	sw	ra,44(sp)
20003af0:	02812423          	sw	s0,40(sp)
20003af4:	03010413          	addi	s0,sp,48
20003af8:	fca42e23          	sw	a0,-36(s0)
20003afc:	fcb42c23          	sw	a1,-40(s0)
20003b00:	200097b7          	lui	a5,0x20009
20003b04:	4507a703          	lw	a4,1104(a5) # 20009450 <current_time>
20003b08:	4547a783          	lw	a5,1108(a5)
20003b0c:	fee42423          	sw	a4,-24(s0)
20003b10:	fef42623          	sw	a5,-20(s0)
20003b14:	fe842703          	lw	a4,-24(s0)
20003b18:	fec42783          	lw	a5,-20(s0)
20003b1c:	06400613          	li	a2,100
20003b20:	00000693          	li	a3,0
20003b24:	00070513          	mv	a0,a4
20003b28:	00078593          	mv	a1,a5
20003b2c:	768000ef          	jal	20004294 <__udivdi3>
20003b30:	00050713          	mv	a4,a0
20003b34:	00058793          	mv	a5,a1
20003b38:	fdc42683          	lw	a3,-36(s0)
20003b3c:	00e6a023          	sw	a4,0(a3)
20003b40:	00f6a223          	sw	a5,4(a3)
20003b44:	fe842703          	lw	a4,-24(s0)
20003b48:	fec42783          	lw	a5,-20(s0)
20003b4c:	06400613          	li	a2,100
20003b50:	00000693          	li	a3,0
20003b54:	00070513          	mv	a0,a4
20003b58:	00078593          	mv	a1,a5
20003b5c:	325000ef          	jal	20004680 <__umoddi3>
20003b60:	00050713          	mv	a4,a0
20003b64:	00058793          	mv	a5,a1
20003b68:	fdc42783          	lw	a5,-36(s0)
20003b6c:	00e7a423          	sw	a4,8(a5)
20003b70:	00000793          	li	a5,0
20003b74:	00078513          	mv	a0,a5
20003b78:	02c12083          	lw	ra,44(sp)
20003b7c:	02812403          	lw	s0,40(sp)
20003b80:	03010113          	addi	sp,sp,48
20003b84:	00008067          	ret

20003b88 <_settimeofday>:
20003b88:	fe010113          	addi	sp,sp,-32
20003b8c:	00112e23          	sw	ra,28(sp)
20003b90:	00812c23          	sw	s0,24(sp)
20003b94:	02010413          	addi	s0,sp,32
20003b98:	fea42623          	sw	a0,-20(s0)
20003b9c:	feb42423          	sw	a1,-24(s0)
20003ba0:	fec42783          	lw	a5,-20(s0)
20003ba4:	0007a703          	lw	a4,0(a5)
20003ba8:	0047a783          	lw	a5,4(a5)
20003bac:	06400593          	li	a1,100
20003bb0:	02b78533          	mul	a0,a5,a1
20003bb4:	00000593          	li	a1,0
20003bb8:	02b705b3          	mul	a1,a4,a1
20003bbc:	00b50533          	add	a0,a0,a1
20003bc0:	06400593          	li	a1,100
20003bc4:	02b70333          	mul	t1,a4,a1
20003bc8:	02b738b3          	mulhu	a7,a4,a1
20003bcc:	00030813          	mv	a6,t1
20003bd0:	011507b3          	add	a5,a0,a7
20003bd4:	00078893          	mv	a7,a5
20003bd8:	00080713          	mv	a4,a6
20003bdc:	00088793          	mv	a5,a7
20003be0:	200095b7          	lui	a1,0x20009
20003be4:	44e5a823          	sw	a4,1104(a1) # 20009450 <current_time>
20003be8:	44f5aa23          	sw	a5,1108(a1)
20003bec:	fec42783          	lw	a5,-20(s0)
20003bf0:	0087a783          	lw	a5,8(a5)
20003bf4:	00078613          	mv	a2,a5
20003bf8:	41f7d793          	srai	a5,a5,0x1f
20003bfc:	00078693          	mv	a3,a5
20003c00:	200097b7          	lui	a5,0x20009
20003c04:	4507a503          	lw	a0,1104(a5) # 20009450 <current_time>
20003c08:	4547a583          	lw	a1,1108(a5)
20003c0c:	00a60733          	add	a4,a2,a0
20003c10:	00070813          	mv	a6,a4
20003c14:	00c83833          	sltu	a6,a6,a2
20003c18:	00b687b3          	add	a5,a3,a1
20003c1c:	00f806b3          	add	a3,a6,a5
20003c20:	00068793          	mv	a5,a3
20003c24:	200096b7          	lui	a3,0x20009
20003c28:	44e6a823          	sw	a4,1104(a3) # 20009450 <current_time>
20003c2c:	44f6aa23          	sw	a5,1108(a3)
20003c30:	00000793          	li	a5,0
20003c34:	00078513          	mv	a0,a5
20003c38:	01c12083          	lw	ra,28(sp)
20003c3c:	01812403          	lw	s0,24(sp)
20003c40:	02010113          	addi	sp,sp,32
20003c44:	00008067          	ret

20003c48 <_tstchar>:
20003c48:	ff010113          	addi	sp,sp,-16
20003c4c:	00112623          	sw	ra,12(sp)
20003c50:	00812423          	sw	s0,8(sp)
20003c54:	01010413          	addi	s0,sp,16
20003c58:	400147b7          	lui	a5,0x40014
20003c5c:	80078793          	addi	a5,a5,-2048 # 40013800 <__stack_top+0x2000963c>
20003c60:	0007d783          	lhu	a5,0(a5)
20003c64:	01079793          	slli	a5,a5,0x10
20003c68:	0107d793          	srli	a5,a5,0x10
20003c6c:	0207f793          	andi	a5,a5,32
20003c70:	02078063          	beqz	a5,20003c90 <_tstchar+0x48>
20003c74:	400147b7          	lui	a5,0x40014
20003c78:	80078793          	addi	a5,a5,-2048 # 40013800 <__stack_top+0x2000963c>
20003c7c:	0047d783          	lhu	a5,4(a5)
20003c80:	01079793          	slli	a5,a5,0x10
20003c84:	0107d793          	srli	a5,a5,0x10
20003c88:	0ff7f793          	zext.b	a5,a5
20003c8c:	0080006f          	j	20003c94 <_tstchar+0x4c>
20003c90:	00000793          	li	a5,0
20003c94:	00078513          	mv	a0,a5
20003c98:	00c12083          	lw	ra,12(sp)
20003c9c:	00812403          	lw	s0,8(sp)
20003ca0:	01010113          	addi	sp,sp,16
20003ca4:	00008067          	ret

20003ca8 <_outchar>:
20003ca8:	fe010113          	addi	sp,sp,-32
20003cac:	00112e23          	sw	ra,28(sp)
20003cb0:	00812c23          	sw	s0,24(sp)
20003cb4:	02010413          	addi	s0,sp,32
20003cb8:	00050793          	mv	a5,a0
20003cbc:	fef407a3          	sb	a5,-17(s0)
20003cc0:	400147b7          	lui	a5,0x40014
20003cc4:	80078793          	addi	a5,a5,-2048 # 40013800 <__stack_top+0x2000963c>
20003cc8:	fef44703          	lbu	a4,-17(s0)
20003ccc:	01071713          	slli	a4,a4,0x10
20003cd0:	01075713          	srli	a4,a4,0x10
20003cd4:	00e79223          	sh	a4,4(a5)
20003cd8:	00000013          	nop
20003cdc:	400147b7          	lui	a5,0x40014
20003ce0:	80078793          	addi	a5,a5,-2048 # 40013800 <__stack_top+0x2000963c>
20003ce4:	0007d783          	lhu	a5,0(a5)
20003ce8:	01079793          	slli	a5,a5,0x10
20003cec:	0107d793          	srli	a5,a5,0x10
20003cf0:	0807f793          	andi	a5,a5,128
20003cf4:	fe0784e3          	beqz	a5,20003cdc <_outchar+0x34>
20003cf8:	00000013          	nop
20003cfc:	00000013          	nop
20003d00:	01c12083          	lw	ra,28(sp)
20003d04:	01812403          	lw	s0,24(sp)
20003d08:	02010113          	addi	sp,sp,32
20003d0c:	00008067          	ret

20003d10 <_sbrk>:
20003d10:	fd010113          	addi	sp,sp,-48
20003d14:	02112623          	sw	ra,44(sp)
20003d18:	02812423          	sw	s0,40(sp)
20003d1c:	03010413          	addi	s0,sp,48
20003d20:	fca42e23          	sw	a0,-36(s0)
20003d24:	200097b7          	lui	a5,0x20009
20003d28:	4587a783          	lw	a5,1112(a5) # 20009458 <heap_end>
20003d2c:	00079a63          	bnez	a5,20003d40 <_sbrk+0x30>
20003d30:	200097b7          	lui	a5,0x20009
20003d34:	20009737          	lui	a4,0x20009
20003d38:	5c470713          	addi	a4,a4,1476 # 200095c4 <__bss_end__>
20003d3c:	44e7ac23          	sw	a4,1112(a5) # 20009458 <heap_end>
20003d40:	200097b7          	lui	a5,0x20009
20003d44:	4587a783          	lw	a5,1112(a5) # 20009458 <heap_end>
20003d48:	fef42623          	sw	a5,-20(s0)
20003d4c:	200097b7          	lui	a5,0x20009
20003d50:	4587a703          	lw	a4,1112(a5) # 20009458 <heap_end>
20003d54:	fdc42783          	lw	a5,-36(s0)
20003d58:	00f70733          	add	a4,a4,a5
20003d5c:	2000a7b7          	lui	a5,0x2000a
20003d60:	dc478793          	addi	a5,a5,-572 # 20009dc4 <__heap_top>
20003d64:	00e7fe63          	bgeu	a5,a4,20003d80 <_sbrk+0x70>
20003d68:	07c030ef          	jal	20006de4 <__errno>
20003d6c:	00050713          	mv	a4,a0
20003d70:	00c00793          	li	a5,12
20003d74:	00f72023          	sw	a5,0(a4)
20003d78:	fff00793          	li	a5,-1
20003d7c:	0200006f          	j	20003d9c <_sbrk+0x8c>
20003d80:	200097b7          	lui	a5,0x20009
20003d84:	4587a703          	lw	a4,1112(a5) # 20009458 <heap_end>
20003d88:	fdc42783          	lw	a5,-36(s0)
20003d8c:	00f70733          	add	a4,a4,a5
20003d90:	200097b7          	lui	a5,0x20009
20003d94:	44e7ac23          	sw	a4,1112(a5) # 20009458 <heap_end>
20003d98:	fec42783          	lw	a5,-20(s0)
20003d9c:	00078513          	mv	a0,a5
20003da0:	02c12083          	lw	ra,44(sp)
20003da4:	02812403          	lw	s0,40(sp)
20003da8:	03010113          	addi	sp,sp,48
20003dac:	00008067          	ret

20003db0 <_crt_init>:
20003db0:	fe010113          	addi	sp,sp,-32
20003db4:	00112e23          	sw	ra,28(sp)
20003db8:	00812c23          	sw	s0,24(sp)
20003dbc:	02010413          	addi	s0,sp,32
20003dc0:	00000013          	nop
20003dc4:	98dff0ef          	jal	20003750 <_pll_init_144>
20003dc8:	00050793          	mv	a5,a0
20003dcc:	fe079ce3          	bnez	a5,20003dc4 <_crt_init+0x14>
20003dd0:	400217b7          	lui	a5,0x40021
20003dd4:	0187a683          	lw	a3,24(a5) # 40021018 <__stack_top+0x20016e54>
20003dd8:	400217b7          	lui	a5,0x40021
20003ddc:	00004737          	lui	a4,0x4
20003de0:	00e6e733          	or	a4,a3,a4
20003de4:	00e7ac23          	sw	a4,24(a5) # 40021018 <__stack_top+0x20016e54>
20003de8:	400217b7          	lui	a5,0x40021
20003dec:	0187a703          	lw	a4,24(a5) # 40021018 <__stack_top+0x20016e54>
20003df0:	400217b7          	lui	a5,0x40021
20003df4:	00476713          	ori	a4,a4,4
20003df8:	00e7ac23          	sw	a4,24(a5) # 40021018 <__stack_top+0x20016e54>
20003dfc:	400217b7          	lui	a5,0x40021
20003e00:	0187a703          	lw	a4,24(a5) # 40021018 <__stack_top+0x20016e54>
20003e04:	400217b7          	lui	a5,0x40021
20003e08:	00176713          	ori	a4,a4,1
20003e0c:	00e7ac23          	sw	a4,24(a5) # 40021018 <__stack_top+0x20016e54>
20003e10:	400217b7          	lui	a5,0x40021
20003e14:	0187a703          	lw	a4,24(a5) # 40021018 <__stack_top+0x20016e54>
20003e18:	400217b7          	lui	a5,0x40021
20003e1c:	02076713          	ori	a4,a4,32
20003e20:	00e7ac23          	sw	a4,24(a5) # 40021018 <__stack_top+0x20016e54>
20003e24:	400217b7          	lui	a5,0x40021
20003e28:	0187a703          	lw	a4,24(a5) # 40021018 <__stack_top+0x20016e54>
20003e2c:	400217b7          	lui	a5,0x40021
20003e30:	04076713          	ori	a4,a4,64
20003e34:	00e7ac23          	sw	a4,24(a5) # 40021018 <__stack_top+0x20016e54>
20003e38:	400217b7          	lui	a5,0x40021
20003e3c:	00c7a683          	lw	a3,12(a5) # 4002100c <__stack_top+0x20016e48>
20003e40:	400217b7          	lui	a5,0x40021
20003e44:	00004737          	lui	a4,0x4
20003e48:	06070713          	addi	a4,a4,96 # 4060 <_start-0x1fffbfa0>
20003e4c:	00e6e733          	or	a4,a3,a4
20003e50:	00e7a623          	sw	a4,12(a5) # 4002100c <__stack_top+0x20016e48>
20003e54:	400217b7          	lui	a5,0x40021
20003e58:	00c7a683          	lw	a3,12(a5) # 4002100c <__stack_top+0x20016e48>
20003e5c:	400217b7          	lui	a5,0x40021
20003e60:	ffffc737          	lui	a4,0xffffc
20003e64:	f9f70713          	addi	a4,a4,-97 # ffffbf9f <__stack_top+0xdfff1ddb>
20003e68:	00e6f733          	and	a4,a3,a4
20003e6c:	00e7a623          	sw	a4,12(a5) # 4002100c <__stack_top+0x20016e48>
20003e70:	400117b7          	lui	a5,0x40011
20003e74:	80478793          	addi	a5,a5,-2044 # 40010804 <__stack_top+0x20006640>
20003e78:	0007a703          	lw	a4,0(a5)
20003e7c:	400117b7          	lui	a5,0x40011
20003e80:	80478793          	addi	a5,a5,-2044 # 40010804 <__stack_top+0x20006640>
20003e84:	0b076713          	ori	a4,a4,176
20003e88:	00e7a023          	sw	a4,0(a5)
20003e8c:	400117b7          	lui	a5,0x40011
20003e90:	80478793          	addi	a5,a5,-2044 # 40010804 <__stack_top+0x20006640>
20003e94:	0007a703          	lw	a4,0(a5)
20003e98:	400117b7          	lui	a5,0x40011
20003e9c:	80478793          	addi	a5,a5,-2044 # 40010804 <__stack_top+0x20006640>
20003ea0:	40076713          	ori	a4,a4,1024
20003ea4:	00e7a023          	sw	a4,0(a5)
20003ea8:	400147b7          	lui	a5,0x40014
20003eac:	80078793          	addi	a5,a5,-2048 # 40013800 <__stack_top+0x2000963c>
20003eb0:	4e200713          	li	a4,1250
20003eb4:	00e79423          	sh	a4,8(a5)
20003eb8:	400147b7          	lui	a5,0x40014
20003ebc:	80078793          	addi	a5,a5,-2048 # 40013800 <__stack_top+0x2000963c>
20003ec0:	00002737          	lui	a4,0x2
20003ec4:	00c70713          	addi	a4,a4,12 # 200c <_start-0x1fffdff4>
20003ec8:	00e79623          	sh	a4,12(a5)
20003ecc:	400217b7          	lui	a5,0x40021
20003ed0:	01c7a703          	lw	a4,28(a5) # 4002101c <__stack_top+0x20016e58>
20003ed4:	400217b7          	lui	a5,0x40021
20003ed8:	01076713          	ori	a4,a4,16
20003edc:	00e7ae23          	sw	a4,28(a5) # 4002101c <__stack_top+0x20016e58>
20003ee0:	400217b7          	lui	a5,0x40021
20003ee4:	0107a703          	lw	a4,16(a5) # 40021010 <__stack_top+0x20016e4c>
20003ee8:	400217b7          	lui	a5,0x40021
20003eec:	01076713          	ori	a4,a4,16
20003ef0:	00e7a823          	sw	a4,16(a5) # 40021010 <__stack_top+0x20016e4c>
20003ef4:	400217b7          	lui	a5,0x40021
20003ef8:	0107a703          	lw	a4,16(a5) # 40021010 <__stack_top+0x20016e4c>
20003efc:	400217b7          	lui	a5,0x40021
20003f00:	fef77713          	andi	a4,a4,-17
20003f04:	00e7a823          	sw	a4,16(a5) # 40021010 <__stack_top+0x20016e4c>
20003f08:	400217b7          	lui	a5,0x40021
20003f0c:	01c7a703          	lw	a4,28(a5) # 4002101c <__stack_top+0x20016e58>
20003f10:	400217b7          	lui	a5,0x40021
20003f14:	02076713          	ori	a4,a4,32
20003f18:	00e7ae23          	sw	a4,28(a5) # 4002101c <__stack_top+0x20016e58>
20003f1c:	400217b7          	lui	a5,0x40021
20003f20:	0107a703          	lw	a4,16(a5) # 40021010 <__stack_top+0x20016e4c>
20003f24:	400217b7          	lui	a5,0x40021
20003f28:	02076713          	ori	a4,a4,32
20003f2c:	00e7a823          	sw	a4,16(a5) # 40021010 <__stack_top+0x20016e4c>
20003f30:	400217b7          	lui	a5,0x40021
20003f34:	0107a703          	lw	a4,16(a5) # 40021010 <__stack_top+0x20016e4c>
20003f38:	400217b7          	lui	a5,0x40021
20003f3c:	fdf77713          	andi	a4,a4,-33
20003f40:	00e7a823          	sw	a4,16(a5) # 40021010 <__stack_top+0x20016e4c>
20003f44:	200097b7          	lui	a5,0x20009
20003f48:	4407ac23          	sw	zero,1112(a5) # 20009458 <heap_end>
20003f4c:	200097b7          	lui	a5,0x20009
20003f50:	43878793          	addi	a5,a5,1080 # 20009438 <lcddev>
20003f54:	fef42623          	sw	a5,-20(s0)
20003f58:	200097b7          	lui	a5,0x20009
20003f5c:	5c478793          	addi	a5,a5,1476 # 200095c4 <__bss_end__>
20003f60:	fef42423          	sw	a5,-24(s0)
20003f64:	0140006f          	j	20003f78 <_crt_init+0x1c8>
20003f68:	fec42783          	lw	a5,-20(s0)
20003f6c:	00178713          	addi	a4,a5,1
20003f70:	fee42623          	sw	a4,-20(s0)
20003f74:	00078023          	sb	zero,0(a5)
20003f78:	fec42703          	lw	a4,-20(s0)
20003f7c:	fe842783          	lw	a5,-24(s0)
20003f80:	fef764e3          	bltu	a4,a5,20003f68 <_crt_init+0x1b8>
20003f84:	200097b7          	lui	a5,0x20009
20003f88:	4347a783          	lw	a5,1076(a5) # 20009434 <_impure_ptr>
20003f8c:	0047a783          	lw	a5,4(a5)
20003f90:	00000693          	li	a3,0
20003f94:	00200613          	li	a2,2
20003f98:	00000593          	li	a1,0
20003f9c:	00078513          	mv	a0,a5
20003fa0:	451020ef          	jal	20006bf0 <setvbuf>
20003fa4:	200097b7          	lui	a5,0x20009
20003fa8:	4347a783          	lw	a5,1076(a5) # 20009434 <_impure_ptr>
20003fac:	0087a783          	lw	a5,8(a5)
20003fb0:	00000693          	li	a3,0
20003fb4:	00200613          	li	a2,2
20003fb8:	00000593          	li	a1,0
20003fbc:	00078513          	mv	a0,a5
20003fc0:	431020ef          	jal	20006bf0 <setvbuf>
20003fc4:	200097b7          	lui	a5,0x20009
20003fc8:	4347a783          	lw	a5,1076(a5) # 20009434 <_impure_ptr>
20003fcc:	00c7a783          	lw	a5,12(a5)
20003fd0:	00000693          	li	a3,0
20003fd4:	00200613          	li	a2,2
20003fd8:	00000593          	li	a1,0
20003fdc:	00078513          	mv	a0,a5
20003fe0:	411020ef          	jal	20006bf0 <setvbuf>
20003fe4:	00000013          	nop
20003fe8:	01c12083          	lw	ra,28(sp)
20003fec:	01812403          	lw	s0,24(sp)
20003ff0:	02010113          	addi	sp,sp,32
20003ff4:	00008067          	ret

20003ff8 <_crt_deinit>:
20003ff8:	ff010113          	addi	sp,sp,-16
20003ffc:	00112623          	sw	ra,12(sp)
20004000:	00812423          	sw	s0,8(sp)
20004004:	01010413          	addi	s0,sp,16
20004008:	00000013          	nop
2000400c:	00c12083          	lw	ra,12(sp)
20004010:	00812403          	lw	s0,8(sp)
20004014:	01010113          	addi	sp,sp,16
20004018:	00008067          	ret

2000401c <_exit>:
2000401c:	fe010113          	addi	sp,sp,-32
20004020:	00112e23          	sw	ra,28(sp)
20004024:	00812c23          	sw	s0,24(sp)
20004028:	02010413          	addi	s0,sp,32
2000402c:	fea42623          	sw	a0,-20(s0)
20004030:	fec42783          	lw	a5,-20(s0)
20004034:	00078a63          	beqz	a5,20004048 <_exit+0x2c>
20004038:	fec42583          	lw	a1,-20(s0)
2000403c:	200097b7          	lui	a5,0x20009
20004040:	f6878513          	addi	a0,a5,-152 # 20008f68 <_malloc_usable_size_r+0x30>
20004044:	35d020ef          	jal	20006ba0 <iprintf>
20004048:	fb1ff0ef          	jal	20003ff8 <_crt_deinit>
2000404c:	00000013          	nop
20004050:	01c12083          	lw	ra,28(sp)
20004054:	01812403          	lw	s0,24(sp)
20004058:	02010113          	addi	sp,sp,32
2000405c:	00008067          	ret

20004060 <_close>:
20004060:	fe010113          	addi	sp,sp,-32
20004064:	00112e23          	sw	ra,28(sp)
20004068:	00812c23          	sw	s0,24(sp)
2000406c:	02010413          	addi	s0,sp,32
20004070:	fea42623          	sw	a0,-20(s0)
20004074:	fff00793          	li	a5,-1
20004078:	00078513          	mv	a0,a5
2000407c:	01c12083          	lw	ra,28(sp)
20004080:	01812403          	lw	s0,24(sp)
20004084:	02010113          	addi	sp,sp,32
20004088:	00008067          	ret

2000408c <_open>:
2000408c:	fe010113          	addi	sp,sp,-32
20004090:	00112e23          	sw	ra,28(sp)
20004094:	00812c23          	sw	s0,24(sp)
20004098:	02010413          	addi	s0,sp,32
2000409c:	fea42623          	sw	a0,-20(s0)
200040a0:	feb42423          	sw	a1,-24(s0)
200040a4:	fec42223          	sw	a2,-28(s0)
200040a8:	fff00793          	li	a5,-1
200040ac:	00078513          	mv	a0,a5
200040b0:	01c12083          	lw	ra,28(sp)
200040b4:	01812403          	lw	s0,24(sp)
200040b8:	02010113          	addi	sp,sp,32
200040bc:	00008067          	ret

200040c0 <_fstat>:
200040c0:	fe010113          	addi	sp,sp,-32
200040c4:	00112e23          	sw	ra,28(sp)
200040c8:	00812c23          	sw	s0,24(sp)
200040cc:	02010413          	addi	s0,sp,32
200040d0:	fea42623          	sw	a0,-20(s0)
200040d4:	feb42423          	sw	a1,-24(s0)
200040d8:	fe842783          	lw	a5,-24(s0)
200040dc:	00002737          	lui	a4,0x2
200040e0:	00e7a223          	sw	a4,4(a5)
200040e4:	00000793          	li	a5,0
200040e8:	00078513          	mv	a0,a5
200040ec:	01c12083          	lw	ra,28(sp)
200040f0:	01812403          	lw	s0,24(sp)
200040f4:	02010113          	addi	sp,sp,32
200040f8:	00008067          	ret

200040fc <_lseek>:
200040fc:	fe010113          	addi	sp,sp,-32
20004100:	00112e23          	sw	ra,28(sp)
20004104:	00812c23          	sw	s0,24(sp)
20004108:	02010413          	addi	s0,sp,32
2000410c:	fea42623          	sw	a0,-20(s0)
20004110:	feb42423          	sw	a1,-24(s0)
20004114:	fec42223          	sw	a2,-28(s0)
20004118:	00000793          	li	a5,0
2000411c:	00078513          	mv	a0,a5
20004120:	01c12083          	lw	ra,28(sp)
20004124:	01812403          	lw	s0,24(sp)
20004128:	02010113          	addi	sp,sp,32
2000412c:	00008067          	ret

20004130 <_isatty>:
20004130:	fe010113          	addi	sp,sp,-32
20004134:	00112e23          	sw	ra,28(sp)
20004138:	00812c23          	sw	s0,24(sp)
2000413c:	02010413          	addi	s0,sp,32
20004140:	fea42623          	sw	a0,-20(s0)
20004144:	00000793          	li	a5,0
20004148:	00078513          	mv	a0,a5
2000414c:	01c12083          	lw	ra,28(sp)
20004150:	01812403          	lw	s0,24(sp)
20004154:	02010113          	addi	sp,sp,32
20004158:	00008067          	ret

2000415c <_write>:
2000415c:	fd010113          	addi	sp,sp,-48
20004160:	02112623          	sw	ra,44(sp)
20004164:	02812423          	sw	s0,40(sp)
20004168:	03010413          	addi	s0,sp,48
2000416c:	fca42e23          	sw	a0,-36(s0)
20004170:	fcb42c23          	sw	a1,-40(s0)
20004174:	fcc42a23          	sw	a2,-44(s0)
20004178:	fd442783          	lw	a5,-44(s0)
2000417c:	fef42623          	sw	a5,-20(s0)
20004180:	01c0006f          	j	2000419c <_write+0x40>
20004184:	fd842783          	lw	a5,-40(s0)
20004188:	00178713          	addi	a4,a5,1
2000418c:	fce42c23          	sw	a4,-40(s0)
20004190:	0007c783          	lbu	a5,0(a5)
20004194:	00078513          	mv	a0,a5
20004198:	b11ff0ef          	jal	20003ca8 <_outchar>
2000419c:	fd442783          	lw	a5,-44(s0)
200041a0:	fff78713          	addi	a4,a5,-1
200041a4:	fce42a23          	sw	a4,-44(s0)
200041a8:	fc079ee3          	bnez	a5,20004184 <_write+0x28>
200041ac:	fec42783          	lw	a5,-20(s0)
200041b0:	00078513          	mv	a0,a5
200041b4:	02c12083          	lw	ra,44(sp)
200041b8:	02812403          	lw	s0,40(sp)
200041bc:	03010113          	addi	sp,sp,48
200041c0:	00008067          	ret

200041c4 <_read>:
200041c4:	fd010113          	addi	sp,sp,-48
200041c8:	02112623          	sw	ra,44(sp)
200041cc:	02812423          	sw	s0,40(sp)
200041d0:	03010413          	addi	s0,sp,48
200041d4:	fca42e23          	sw	a0,-36(s0)
200041d8:	fcb42c23          	sw	a1,-40(s0)
200041dc:	fcc42a23          	sw	a2,-44(s0)
200041e0:	fe042623          	sw	zero,-20(s0)
200041e4:	a65ff0ef          	jal	20003c48 <_tstchar>
200041e8:	00050793          	mv	a5,a0
200041ec:	fef405a3          	sb	a5,-21(s0)
200041f0:	feb44783          	lbu	a5,-21(s0)
200041f4:	02078263          	beqz	a5,20004218 <_read+0x54>
200041f8:	fd842783          	lw	a5,-40(s0)
200041fc:	00178713          	addi	a4,a5,1
20004200:	fce42c23          	sw	a4,-40(s0)
20004204:	feb44703          	lbu	a4,-21(s0)
20004208:	00e78023          	sb	a4,0(a5)
2000420c:	fec42783          	lw	a5,-20(s0)
20004210:	00178793          	addi	a5,a5,1
20004214:	fef42623          	sw	a5,-20(s0)
20004218:	fd442703          	lw	a4,-44(s0)
2000421c:	fec42783          	lw	a5,-20(s0)
20004220:	fcf712e3          	bne	a4,a5,200041e4 <_read+0x20>
20004224:	fec42783          	lw	a5,-20(s0)
20004228:	00078513          	mv	a0,a5
2000422c:	02c12083          	lw	ra,44(sp)
20004230:	02812403          	lw	s0,40(sp)
20004234:	03010113          	addi	sp,sp,48
20004238:	00008067          	ret

2000423c <_getpid>:
2000423c:	ff010113          	addi	sp,sp,-16
20004240:	00112623          	sw	ra,12(sp)
20004244:	00812423          	sw	s0,8(sp)
20004248:	01010413          	addi	s0,sp,16
2000424c:	00000793          	li	a5,0
20004250:	00078513          	mv	a0,a5
20004254:	00c12083          	lw	ra,12(sp)
20004258:	00812403          	lw	s0,8(sp)
2000425c:	01010113          	addi	sp,sp,16
20004260:	00008067          	ret

20004264 <_kill>:
20004264:	fe010113          	addi	sp,sp,-32
20004268:	00112e23          	sw	ra,28(sp)
2000426c:	00812c23          	sw	s0,24(sp)
20004270:	02010413          	addi	s0,sp,32
20004274:	fea42623          	sw	a0,-20(s0)
20004278:	feb42423          	sw	a1,-24(s0)
2000427c:	00000793          	li	a5,0
20004280:	00078513          	mv	a0,a5
20004284:	01c12083          	lw	ra,28(sp)
20004288:	01812403          	lw	s0,24(sp)
2000428c:	02010113          	addi	sp,sp,32
20004290:	00008067          	ret

20004294 <__udivdi3>:
20004294:	00060713          	mv	a4,a2
20004298:	00068893          	mv	a7,a3
2000429c:	00050813          	mv	a6,a0
200042a0:	00058313          	mv	t1,a1
200042a4:	24069463          	bnez	a3,200044ec <__udivdi3+0x258>
200042a8:	200097b7          	lui	a5,0x20009
200042ac:	f8878793          	addi	a5,a5,-120 # 20008f88 <__clz_tab>
200042b0:	0ec5f463          	bgeu	a1,a2,20004398 <__udivdi3+0x104>
200042b4:	000106b7          	lui	a3,0x10
200042b8:	0cd67063          	bgeu	a2,a3,20004378 <__udivdi3+0xe4>
200042bc:	10063693          	sltiu	a3,a2,256
200042c0:	0016b693          	seqz	a3,a3
200042c4:	00369693          	slli	a3,a3,0x3
200042c8:	00d65e33          	srl	t3,a2,a3
200042cc:	01c787b3          	add	a5,a5,t3
200042d0:	0007c783          	lbu	a5,0(a5)
200042d4:	00d787b3          	add	a5,a5,a3
200042d8:	02000693          	li	a3,32
200042dc:	00d78e63          	beq	a5,a3,200042f8 <__udivdi3+0x64>
200042e0:	40f686b3          	sub	a3,a3,a5
200042e4:	00d59333          	sll	t1,a1,a3
200042e8:	00f557b3          	srl	a5,a0,a5
200042ec:	00d61733          	sll	a4,a2,a3
200042f0:	0067e333          	or	t1,a5,t1
200042f4:	00d51833          	sll	a6,a0,a3
200042f8:	01075513          	srli	a0,a4,0x10
200042fc:	02a357b3          	divu	a5,t1,a0
20004300:	01071593          	slli	a1,a4,0x10
20004304:	0105d593          	srli	a1,a1,0x10
20004308:	01085693          	srli	a3,a6,0x10
2000430c:	02a37333          	remu	t1,t1,a0
20004310:	02f58633          	mul	a2,a1,a5
20004314:	01031313          	slli	t1,t1,0x10
20004318:	0066e6b3          	or	a3,a3,t1
2000431c:	00c6fa63          	bgeu	a3,a2,20004330 <__udivdi3+0x9c>
20004320:	00d706b3          	add	a3,a4,a3
20004324:	00c6f463          	bgeu	a3,a2,2000432c <__udivdi3+0x98>
20004328:	06e6f263          	bgeu	a3,a4,2000438c <__udivdi3+0xf8>
2000432c:	fff78793          	addi	a5,a5,-1
20004330:	40c686b3          	sub	a3,a3,a2
20004334:	02a6d633          	divu	a2,a3,a0
20004338:	01081813          	slli	a6,a6,0x10
2000433c:	01085813          	srli	a6,a6,0x10
20004340:	02a6f6b3          	remu	a3,a3,a0
20004344:	02c585b3          	mul	a1,a1,a2
20004348:	01069693          	slli	a3,a3,0x10
2000434c:	00d86833          	or	a6,a6,a3
20004350:	00b87a63          	bgeu	a6,a1,20004364 <__udivdi3+0xd0>
20004354:	01070833          	add	a6,a4,a6
20004358:	00b87463          	bgeu	a6,a1,20004360 <__udivdi3+0xcc>
2000435c:	18e87463          	bgeu	a6,a4,200044e4 <__udivdi3+0x250>
20004360:	fff60613          	addi	a2,a2,-1
20004364:	01079793          	slli	a5,a5,0x10
20004368:	00c7e7b3          	or	a5,a5,a2
2000436c:	00078513          	mv	a0,a5
20004370:	00088593          	mv	a1,a7
20004374:	00008067          	ret
20004378:	01000e37          	lui	t3,0x1000
2000437c:	01800693          	li	a3,24
20004380:	f5c674e3          	bgeu	a2,t3,200042c8 <__udivdi3+0x34>
20004384:	01000693          	li	a3,16
20004388:	f41ff06f          	j	200042c8 <__udivdi3+0x34>
2000438c:	ffe78793          	addi	a5,a5,-2
20004390:	00e686b3          	add	a3,a3,a4
20004394:	f9dff06f          	j	20004330 <__udivdi3+0x9c>
20004398:	00000693          	li	a3,0
2000439c:	00060c63          	beqz	a2,200043b4 <__udivdi3+0x120>
200043a0:	000106b7          	lui	a3,0x10
200043a4:	06d67863          	bgeu	a2,a3,20004414 <__udivdi3+0x180>
200043a8:	10063693          	sltiu	a3,a2,256
200043ac:	0016b693          	seqz	a3,a3
200043b0:	00369693          	slli	a3,a3,0x3
200043b4:	00d658b3          	srl	a7,a2,a3
200043b8:	011787b3          	add	a5,a5,a7
200043bc:	0007c783          	lbu	a5,0(a5)
200043c0:	00d787b3          	add	a5,a5,a3
200043c4:	02000693          	li	a3,32
200043c8:	06d79063          	bne	a5,a3,20004428 <__udivdi3+0x194>
200043cc:	40c58633          	sub	a2,a1,a2
200043d0:	00100893          	li	a7,1
200043d4:	01075513          	srli	a0,a4,0x10
200043d8:	02a657b3          	divu	a5,a2,a0
200043dc:	01071593          	slli	a1,a4,0x10
200043e0:	0105d593          	srli	a1,a1,0x10
200043e4:	01085693          	srli	a3,a6,0x10
200043e8:	02a67633          	remu	a2,a2,a0
200043ec:	02f58333          	mul	t1,a1,a5
200043f0:	01061613          	slli	a2,a2,0x10
200043f4:	00c6e6b3          	or	a3,a3,a2
200043f8:	0066fa63          	bgeu	a3,t1,2000440c <__udivdi3+0x178>
200043fc:	00d706b3          	add	a3,a4,a3
20004400:	0066f463          	bgeu	a3,t1,20004408 <__udivdi3+0x174>
20004404:	0ce6fa63          	bgeu	a3,a4,200044d8 <__udivdi3+0x244>
20004408:	fff78793          	addi	a5,a5,-1
2000440c:	406686b3          	sub	a3,a3,t1
20004410:	f25ff06f          	j	20004334 <__udivdi3+0xa0>
20004414:	010008b7          	lui	a7,0x1000
20004418:	01800693          	li	a3,24
2000441c:	f9167ce3          	bgeu	a2,a7,200043b4 <__udivdi3+0x120>
20004420:	01000693          	li	a3,16
20004424:	f91ff06f          	j	200043b4 <__udivdi3+0x120>
20004428:	40f68833          	sub	a6,a3,a5
2000442c:	01061733          	sll	a4,a2,a6
20004430:	00f5d6b3          	srl	a3,a1,a5
20004434:	010595b3          	sll	a1,a1,a6
20004438:	00f557b3          	srl	a5,a0,a5
2000443c:	01051833          	sll	a6,a0,a6
20004440:	01075513          	srli	a0,a4,0x10
20004444:	02a6d8b3          	divu	a7,a3,a0
20004448:	01071613          	slli	a2,a4,0x10
2000444c:	01065613          	srli	a2,a2,0x10
20004450:	00b7e7b3          	or	a5,a5,a1
20004454:	02a6f6b3          	remu	a3,a3,a0
20004458:	03160333          	mul	t1,a2,a7
2000445c:	01069593          	slli	a1,a3,0x10
20004460:	0107d693          	srli	a3,a5,0x10
20004464:	00b6e6b3          	or	a3,a3,a1
20004468:	0066fa63          	bgeu	a3,t1,2000447c <__udivdi3+0x1e8>
2000446c:	00d706b3          	add	a3,a4,a3
20004470:	0066f463          	bgeu	a3,t1,20004478 <__udivdi3+0x1e4>
20004474:	04e6f663          	bgeu	a3,a4,200044c0 <__udivdi3+0x22c>
20004478:	fff88893          	addi	a7,a7,-1 # ffffff <_start-0x1f000001>
2000447c:	406686b3          	sub	a3,a3,t1
20004480:	02a6d5b3          	divu	a1,a3,a0
20004484:	01079793          	slli	a5,a5,0x10
20004488:	0107d793          	srli	a5,a5,0x10
2000448c:	02a6f6b3          	remu	a3,a3,a0
20004490:	02b60633          	mul	a2,a2,a1
20004494:	01069693          	slli	a3,a3,0x10
20004498:	00d7e7b3          	or	a5,a5,a3
2000449c:	00c7fa63          	bgeu	a5,a2,200044b0 <__udivdi3+0x21c>
200044a0:	00f707b3          	add	a5,a4,a5
200044a4:	00c7f463          	bgeu	a5,a2,200044ac <__udivdi3+0x218>
200044a8:	02e7f263          	bgeu	a5,a4,200044cc <__udivdi3+0x238>
200044ac:	fff58593          	addi	a1,a1,-1
200044b0:	01089893          	slli	a7,a7,0x10
200044b4:	40c78633          	sub	a2,a5,a2
200044b8:	00b8e8b3          	or	a7,a7,a1
200044bc:	f19ff06f          	j	200043d4 <__udivdi3+0x140>
200044c0:	ffe88893          	addi	a7,a7,-2
200044c4:	00e686b3          	add	a3,a3,a4
200044c8:	fb5ff06f          	j	2000447c <__udivdi3+0x1e8>
200044cc:	ffe58593          	addi	a1,a1,-2
200044d0:	00e787b3          	add	a5,a5,a4
200044d4:	fddff06f          	j	200044b0 <__udivdi3+0x21c>
200044d8:	ffe78793          	addi	a5,a5,-2
200044dc:	00e686b3          	add	a3,a3,a4
200044e0:	f2dff06f          	j	2000440c <__udivdi3+0x178>
200044e4:	ffe60613          	addi	a2,a2,-2
200044e8:	e7dff06f          	j	20004364 <__udivdi3+0xd0>
200044ec:	18d5e463          	bltu	a1,a3,20004674 <__udivdi3+0x3e0>
200044f0:	000107b7          	lui	a5,0x10
200044f4:	04f6f463          	bgeu	a3,a5,2000453c <__udivdi3+0x2a8>
200044f8:	1006b793          	sltiu	a5,a3,256
200044fc:	0017b793          	seqz	a5,a5
20004500:	00379793          	slli	a5,a5,0x3
20004504:	20009737          	lui	a4,0x20009
20004508:	00f6d833          	srl	a6,a3,a5
2000450c:	f8870713          	addi	a4,a4,-120 # 20008f88 <__clz_tab>
20004510:	01070733          	add	a4,a4,a6
20004514:	00074703          	lbu	a4,0(a4)
20004518:	02000813          	li	a6,32
2000451c:	00f70733          	add	a4,a4,a5
20004520:	03071863          	bne	a4,a6,20004550 <__udivdi3+0x2bc>
20004524:	00c537b3          	sltu	a5,a0,a2
20004528:	0017b793          	seqz	a5,a5
2000452c:	00b6b6b3          	sltu	a3,a3,a1
20004530:	00d7e7b3          	or	a5,a5,a3
20004534:	00000893          	li	a7,0
20004538:	e35ff06f          	j	2000436c <__udivdi3+0xd8>
2000453c:	01000737          	lui	a4,0x1000
20004540:	01800793          	li	a5,24
20004544:	fce6f0e3          	bgeu	a3,a4,20004504 <__udivdi3+0x270>
20004548:	01000793          	li	a5,16
2000454c:	fb9ff06f          	j	20004504 <__udivdi3+0x270>
20004550:	40e80833          	sub	a6,a6,a4
20004554:	00e658b3          	srl	a7,a2,a4
20004558:	010696b3          	sll	a3,a3,a6
2000455c:	00d8e8b3          	or	a7,a7,a3
20004560:	0108de13          	srli	t3,a7,0x10
20004564:	00e5d6b3          	srl	a3,a1,a4
20004568:	03c6d7b3          	divu	a5,a3,t3
2000456c:	01089313          	slli	t1,a7,0x10
20004570:	01035313          	srli	t1,t1,0x10
20004574:	010595b3          	sll	a1,a1,a6
20004578:	00e55733          	srl	a4,a0,a4
2000457c:	00b76733          	or	a4,a4,a1
20004580:	01061633          	sll	a2,a2,a6
20004584:	03c6f6b3          	remu	a3,a3,t3
20004588:	02f30eb3          	mul	t4,t1,a5
2000458c:	01069593          	slli	a1,a3,0x10
20004590:	01075693          	srli	a3,a4,0x10
20004594:	00b6e6b3          	or	a3,a3,a1
20004598:	01d6fa63          	bgeu	a3,t4,200045ac <__udivdi3+0x318>
2000459c:	00d886b3          	add	a3,a7,a3
200045a0:	01d6f463          	bgeu	a3,t4,200045a8 <__udivdi3+0x314>
200045a4:	0b16fc63          	bgeu	a3,a7,2000465c <__udivdi3+0x3c8>
200045a8:	fff78793          	addi	a5,a5,-1 # ffff <_start-0x1fff0001>
200045ac:	41d686b3          	sub	a3,a3,t4
200045b0:	03c6d5b3          	divu	a1,a3,t3
200045b4:	01071713          	slli	a4,a4,0x10
200045b8:	01075713          	srli	a4,a4,0x10
200045bc:	03c6f6b3          	remu	a3,a3,t3
200045c0:	02b30333          	mul	t1,t1,a1
200045c4:	01069693          	slli	a3,a3,0x10
200045c8:	00d76733          	or	a4,a4,a3
200045cc:	00677a63          	bgeu	a4,t1,200045e0 <__udivdi3+0x34c>
200045d0:	00e88733          	add	a4,a7,a4
200045d4:	00677463          	bgeu	a4,t1,200045dc <__udivdi3+0x348>
200045d8:	09177863          	bgeu	a4,a7,20004668 <__udivdi3+0x3d4>
200045dc:	fff58593          	addi	a1,a1,-1
200045e0:	01079793          	slli	a5,a5,0x10
200045e4:	00b7e7b3          	or	a5,a5,a1
200045e8:	40670733          	sub	a4,a4,t1
200045ec:	01059593          	slli	a1,a1,0x10
200045f0:	01061313          	slli	t1,a2,0x10
200045f4:	0105d593          	srli	a1,a1,0x10
200045f8:	0107d893          	srli	a7,a5,0x10
200045fc:	01035313          	srli	t1,t1,0x10
20004600:	01065613          	srli	a2,a2,0x10
20004604:	02658e33          	mul	t3,a1,t1
20004608:	02688333          	mul	t1,a7,t1
2000460c:	010e5693          	srli	a3,t3,0x10
20004610:	02c585b3          	mul	a1,a1,a2
20004614:	006585b3          	add	a1,a1,t1
20004618:	00b686b3          	add	a3,a3,a1
2000461c:	02c888b3          	mul	a7,a7,a2
20004620:	0066f663          	bgeu	a3,t1,2000462c <__udivdi3+0x398>
20004624:	00010637          	lui	a2,0x10
20004628:	00c888b3          	add	a7,a7,a2
2000462c:	0106d613          	srli	a2,a3,0x10
20004630:	01160633          	add	a2,a2,a7
20004634:	02c76063          	bltu	a4,a2,20004654 <__udivdi3+0x3c0>
20004638:	010e1e13          	slli	t3,t3,0x10
2000463c:	01069693          	slli	a3,a3,0x10
20004640:	010e5e13          	srli	t3,t3,0x10
20004644:	01051533          	sll	a0,a0,a6
20004648:	01c686b3          	add	a3,a3,t3
2000464c:	eed574e3          	bgeu	a0,a3,20004534 <__udivdi3+0x2a0>
20004650:	eec712e3          	bne	a4,a2,20004534 <__udivdi3+0x2a0>
20004654:	fff78793          	addi	a5,a5,-1
20004658:	eddff06f          	j	20004534 <__udivdi3+0x2a0>
2000465c:	ffe78793          	addi	a5,a5,-2
20004660:	011686b3          	add	a3,a3,a7
20004664:	f49ff06f          	j	200045ac <__udivdi3+0x318>
20004668:	ffe58593          	addi	a1,a1,-2
2000466c:	01170733          	add	a4,a4,a7
20004670:	f71ff06f          	j	200045e0 <__udivdi3+0x34c>
20004674:	00000893          	li	a7,0
20004678:	00000793          	li	a5,0
2000467c:	cf1ff06f          	j	2000436c <__udivdi3+0xd8>

20004680 <__umoddi3>:
20004680:	00060813          	mv	a6,a2
20004684:	00050793          	mv	a5,a0
20004688:	00058713          	mv	a4,a1
2000468c:	24069463          	bnez	a3,200048d4 <__umoddi3+0x254>
20004690:	200096b7          	lui	a3,0x20009
20004694:	f8868693          	addi	a3,a3,-120 # 20008f88 <__clz_tab>
20004698:	0ec5f863          	bgeu	a1,a2,20004788 <__umoddi3+0x108>
2000469c:	000108b7          	lui	a7,0x10
200046a0:	0d167a63          	bgeu	a2,a7,20004774 <__umoddi3+0xf4>
200046a4:	10063893          	sltiu	a7,a2,256
200046a8:	0018b893          	seqz	a7,a7
200046ac:	00389893          	slli	a7,a7,0x3
200046b0:	01165333          	srl	t1,a2,a7
200046b4:	006686b3          	add	a3,a3,t1
200046b8:	0006c683          	lbu	a3,0(a3)
200046bc:	02000313          	li	t1,32
200046c0:	011686b3          	add	a3,a3,a7
200046c4:	40d308b3          	sub	a7,t1,a3
200046c8:	00668c63          	beq	a3,t1,200046e0 <__umoddi3+0x60>
200046cc:	01159733          	sll	a4,a1,a7
200046d0:	00d556b3          	srl	a3,a0,a3
200046d4:	01161833          	sll	a6,a2,a7
200046d8:	00e6e733          	or	a4,a3,a4
200046dc:	011517b3          	sll	a5,a0,a7
200046e0:	01085513          	srli	a0,a6,0x10
200046e4:	02a756b3          	divu	a3,a4,a0
200046e8:	01081313          	slli	t1,a6,0x10
200046ec:	01035313          	srli	t1,t1,0x10
200046f0:	02a77733          	remu	a4,a4,a0
200046f4:	026686b3          	mul	a3,a3,t1
200046f8:	01071593          	slli	a1,a4,0x10
200046fc:	0107d713          	srli	a4,a5,0x10
20004700:	00b76733          	or	a4,a4,a1
20004704:	02d77063          	bgeu	a4,a3,20004724 <__umoddi3+0xa4>
20004708:	00e80733          	add	a4,a6,a4
2000470c:	010735b3          	sltu	a1,a4,a6
20004710:	00d73633          	sltu	a2,a4,a3
20004714:	0015b593          	seqz	a1,a1
20004718:	00b67633          	and	a2,a2,a1
2000471c:	03060633          	mul	a2,a2,a6
20004720:	00e60733          	add	a4,a2,a4
20004724:	40d70733          	sub	a4,a4,a3
20004728:	02a756b3          	divu	a3,a4,a0
2000472c:	02a77733          	remu	a4,a4,a0
20004730:	026686b3          	mul	a3,a3,t1
20004734:	01079513          	slli	a0,a5,0x10
20004738:	01071713          	slli	a4,a4,0x10
2000473c:	01055513          	srli	a0,a0,0x10
20004740:	00e56533          	or	a0,a0,a4
20004744:	02d57063          	bgeu	a0,a3,20004764 <__umoddi3+0xe4>
20004748:	00a80533          	add	a0,a6,a0
2000474c:	01053733          	sltu	a4,a0,a6
20004750:	00d537b3          	sltu	a5,a0,a3
20004754:	00173713          	seqz	a4,a4
20004758:	00e7f7b3          	and	a5,a5,a4
2000475c:	030787b3          	mul	a5,a5,a6
20004760:	00a78533          	add	a0,a5,a0
20004764:	40d50533          	sub	a0,a0,a3
20004768:	01155533          	srl	a0,a0,a7
2000476c:	00000593          	li	a1,0
20004770:	00008067          	ret
20004774:	01000337          	lui	t1,0x1000
20004778:	01800893          	li	a7,24
2000477c:	f2667ae3          	bgeu	a2,t1,200046b0 <__umoddi3+0x30>
20004780:	01000893          	li	a7,16
20004784:	f2dff06f          	j	200046b0 <__umoddi3+0x30>
20004788:	00000713          	li	a4,0
2000478c:	00060c63          	beqz	a2,200047a4 <__umoddi3+0x124>
20004790:	00010737          	lui	a4,0x10
20004794:	08e67463          	bgeu	a2,a4,2000481c <__umoddi3+0x19c>
20004798:	10063713          	sltiu	a4,a2,256
2000479c:	00173713          	seqz	a4,a4
200047a0:	00371713          	slli	a4,a4,0x3
200047a4:	00e658b3          	srl	a7,a2,a4
200047a8:	011686b3          	add	a3,a3,a7
200047ac:	0006c683          	lbu	a3,0(a3)
200047b0:	00e686b3          	add	a3,a3,a4
200047b4:	02000713          	li	a4,32
200047b8:	40d708b3          	sub	a7,a4,a3
200047bc:	06e69a63          	bne	a3,a4,20004830 <__umoddi3+0x1b0>
200047c0:	40c586b3          	sub	a3,a1,a2
200047c4:	01085593          	srli	a1,a6,0x10
200047c8:	02b6d633          	divu	a2,a3,a1
200047cc:	01081313          	slli	t1,a6,0x10
200047d0:	01035313          	srli	t1,t1,0x10
200047d4:	0107d713          	srli	a4,a5,0x10
200047d8:	02b6f6b3          	remu	a3,a3,a1
200047dc:	02660633          	mul	a2,a2,t1
200047e0:	01069693          	slli	a3,a3,0x10
200047e4:	00d76733          	or	a4,a4,a3
200047e8:	02c77063          	bgeu	a4,a2,20004808 <__umoddi3+0x188>
200047ec:	00e80733          	add	a4,a6,a4
200047f0:	01073533          	sltu	a0,a4,a6
200047f4:	00c736b3          	sltu	a3,a4,a2
200047f8:	00153513          	seqz	a0,a0
200047fc:	00a6f6b3          	and	a3,a3,a0
20004800:	030686b3          	mul	a3,a3,a6
20004804:	00e68733          	add	a4,a3,a4
20004808:	40c70733          	sub	a4,a4,a2
2000480c:	02b756b3          	divu	a3,a4,a1
20004810:	02b77733          	remu	a4,a4,a1
20004814:	026686b3          	mul	a3,a3,t1
20004818:	f1dff06f          	j	20004734 <__umoddi3+0xb4>
2000481c:	010008b7          	lui	a7,0x1000
20004820:	01800713          	li	a4,24
20004824:	f91670e3          	bgeu	a2,a7,200047a4 <__umoddi3+0x124>
20004828:	01000713          	li	a4,16
2000482c:	f79ff06f          	j	200047a4 <__umoddi3+0x124>
20004830:	01161833          	sll	a6,a2,a7
20004834:	00d5d733          	srl	a4,a1,a3
20004838:	011517b3          	sll	a5,a0,a7
2000483c:	011595b3          	sll	a1,a1,a7
20004840:	00d556b3          	srl	a3,a0,a3
20004844:	01085513          	srli	a0,a6,0x10
20004848:	00b6e6b3          	or	a3,a3,a1
2000484c:	02a755b3          	divu	a1,a4,a0
20004850:	01081e13          	slli	t3,a6,0x10
20004854:	010e5e13          	srli	t3,t3,0x10
20004858:	02a77733          	remu	a4,a4,a0
2000485c:	03c585b3          	mul	a1,a1,t3
20004860:	01071613          	slli	a2,a4,0x10
20004864:	0106d713          	srli	a4,a3,0x10
20004868:	00c76733          	or	a4,a4,a2
2000486c:	02b77063          	bgeu	a4,a1,2000488c <__umoddi3+0x20c>
20004870:	00e80733          	add	a4,a6,a4
20004874:	01073333          	sltu	t1,a4,a6
20004878:	00b73633          	sltu	a2,a4,a1
2000487c:	00133313          	seqz	t1,t1
20004880:	00667633          	and	a2,a2,t1
20004884:	03060633          	mul	a2,a2,a6
20004888:	00e60733          	add	a4,a2,a4
2000488c:	40b70733          	sub	a4,a4,a1
20004890:	02a75633          	divu	a2,a4,a0
20004894:	01069693          	slli	a3,a3,0x10
20004898:	0106d693          	srli	a3,a3,0x10
2000489c:	02a77733          	remu	a4,a4,a0
200048a0:	03c60633          	mul	a2,a2,t3
200048a4:	01071713          	slli	a4,a4,0x10
200048a8:	00e6e6b3          	or	a3,a3,a4
200048ac:	02c6f063          	bgeu	a3,a2,200048cc <__umoddi3+0x24c>
200048b0:	00d806b3          	add	a3,a6,a3
200048b4:	0106b5b3          	sltu	a1,a3,a6
200048b8:	00c6b733          	sltu	a4,a3,a2
200048bc:	0015b593          	seqz	a1,a1
200048c0:	00b77733          	and	a4,a4,a1
200048c4:	03070733          	mul	a4,a4,a6
200048c8:	00d706b3          	add	a3,a4,a3
200048cc:	40c686b3          	sub	a3,a3,a2
200048d0:	ef5ff06f          	j	200047c4 <__umoddi3+0x144>
200048d4:	1ad5e663          	bltu	a1,a3,20004a80 <__umoddi3+0x400>
200048d8:	00010837          	lui	a6,0x10
200048dc:	0506fc63          	bgeu	a3,a6,20004934 <__umoddi3+0x2b4>
200048e0:	1006b893          	sltiu	a7,a3,256
200048e4:	0018b893          	seqz	a7,a7
200048e8:	00389893          	slli	a7,a7,0x3
200048ec:	20009837          	lui	a6,0x20009
200048f0:	0116d333          	srl	t1,a3,a7
200048f4:	f8880813          	addi	a6,a6,-120 # 20008f88 <__clz_tab>
200048f8:	00680833          	add	a6,a6,t1
200048fc:	00084803          	lbu	a6,0(a6)
20004900:	01180833          	add	a6,a6,a7
20004904:	02000893          	li	a7,32
20004908:	05181063          	bne	a6,a7,20004948 <__umoddi3+0x2c8>
2000490c:	00c57463          	bgeu	a0,a2,20004914 <__umoddi3+0x294>
20004910:	00b6fc63          	bgeu	a3,a1,20004928 <__umoddi3+0x2a8>
20004914:	40c50733          	sub	a4,a0,a2
20004918:	00070793          	mv	a5,a4
2000491c:	40d586b3          	sub	a3,a1,a3
20004920:	00e53733          	sltu	a4,a0,a4
20004924:	40e68733          	sub	a4,a3,a4
20004928:	00078513          	mv	a0,a5
2000492c:	00070593          	mv	a1,a4
20004930:	00008067          	ret
20004934:	01000837          	lui	a6,0x1000
20004938:	01800893          	li	a7,24
2000493c:	fb06f8e3          	bgeu	a3,a6,200048ec <__umoddi3+0x26c>
20004940:	01000893          	li	a7,16
20004944:	fa9ff06f          	j	200048ec <__umoddi3+0x26c>
20004948:	410888b3          	sub	a7,a7,a6
2000494c:	011696b3          	sll	a3,a3,a7
20004950:	01065333          	srl	t1,a2,a6
20004954:	00d36333          	or	t1,t1,a3
20004958:	0105d733          	srl	a4,a1,a6
2000495c:	01035e93          	srli	t4,t1,0x10
20004960:	03d756b3          	divu	a3,a4,t4
20004964:	01031e13          	slli	t3,t1,0x10
20004968:	010e5e13          	srli	t3,t3,0x10
2000496c:	011597b3          	sll	a5,a1,a7
20004970:	010555b3          	srl	a1,a0,a6
20004974:	00f5e5b3          	or	a1,a1,a5
20004978:	0105d793          	srli	a5,a1,0x10
2000497c:	01161633          	sll	a2,a2,a7
20004980:	01151533          	sll	a0,a0,a7
20004984:	03d77733          	remu	a4,a4,t4
20004988:	02de0f33          	mul	t5,t3,a3
2000498c:	01071713          	slli	a4,a4,0x10
20004990:	00e7e7b3          	or	a5,a5,a4
20004994:	01e7fa63          	bgeu	a5,t5,200049a8 <__umoddi3+0x328>
20004998:	00f307b3          	add	a5,t1,a5
2000499c:	01e7f463          	bgeu	a5,t5,200049a4 <__umoddi3+0x324>
200049a0:	0e67f263          	bgeu	a5,t1,20004a84 <__umoddi3+0x404>
200049a4:	fff68693          	addi	a3,a3,-1
200049a8:	41e787b3          	sub	a5,a5,t5
200049ac:	03d7d733          	divu	a4,a5,t4
200049b0:	01059593          	slli	a1,a1,0x10
200049b4:	0105d593          	srli	a1,a1,0x10
200049b8:	03d7f7b3          	remu	a5,a5,t4
200049bc:	02ee0e33          	mul	t3,t3,a4
200049c0:	01079793          	slli	a5,a5,0x10
200049c4:	00f5e5b3          	or	a1,a1,a5
200049c8:	01c5fa63          	bgeu	a1,t3,200049dc <__umoddi3+0x35c>
200049cc:	00b305b3          	add	a1,t1,a1
200049d0:	01c5f463          	bgeu	a1,t3,200049d8 <__umoddi3+0x358>
200049d4:	0a65fe63          	bgeu	a1,t1,20004a90 <__umoddi3+0x410>
200049d8:	fff70713          	addi	a4,a4,-1 # ffff <_start-0x1fff0001>
200049dc:	01069693          	slli	a3,a3,0x10
200049e0:	00e6e6b3          	or	a3,a3,a4
200049e4:	41c585b3          	sub	a1,a1,t3
200049e8:	01071713          	slli	a4,a4,0x10
200049ec:	01061e13          	slli	t3,a2,0x10
200049f0:	01065793          	srli	a5,a2,0x10
200049f4:	01075713          	srli	a4,a4,0x10
200049f8:	0106d693          	srli	a3,a3,0x10
200049fc:	010e5e13          	srli	t3,t3,0x10
20004a00:	03c70eb3          	mul	t4,a4,t3
20004a04:	03c68e33          	mul	t3,a3,t3
20004a08:	02f70733          	mul	a4,a4,a5
20004a0c:	02f686b3          	mul	a3,a3,a5
20004a10:	01c707b3          	add	a5,a4,t3
20004a14:	010ed713          	srli	a4,t4,0x10
20004a18:	00f70733          	add	a4,a4,a5
20004a1c:	01c77663          	bgeu	a4,t3,20004a28 <__umoddi3+0x3a8>
20004a20:	000107b7          	lui	a5,0x10
20004a24:	00f686b3          	add	a3,a3,a5
20004a28:	01075793          	srli	a5,a4,0x10
20004a2c:	010e9e93          	slli	t4,t4,0x10
20004a30:	01071713          	slli	a4,a4,0x10
20004a34:	010ede93          	srli	t4,t4,0x10
20004a38:	00d787b3          	add	a5,a5,a3
20004a3c:	01d70733          	add	a4,a4,t4
20004a40:	00f5e663          	bltu	a1,a5,20004a4c <__umoddi3+0x3cc>
20004a44:	00e57e63          	bgeu	a0,a4,20004a60 <__umoddi3+0x3e0>
20004a48:	00f59c63          	bne	a1,a5,20004a60 <__umoddi3+0x3e0>
20004a4c:	40c70633          	sub	a2,a4,a2
20004a50:	00c736b3          	sltu	a3,a4,a2
20004a54:	006686b3          	add	a3,a3,t1
20004a58:	00060713          	mv	a4,a2
20004a5c:	40d787b3          	sub	a5,a5,a3
20004a60:	40e50733          	sub	a4,a0,a4
20004a64:	00e53533          	sltu	a0,a0,a4
20004a68:	40f585b3          	sub	a1,a1,a5
20004a6c:	40a585b3          	sub	a1,a1,a0
20004a70:	01059833          	sll	a6,a1,a6
20004a74:	01175733          	srl	a4,a4,a7
20004a78:	00e86533          	or	a0,a6,a4
20004a7c:	0115d5b3          	srl	a1,a1,a7
20004a80:	00008067          	ret
20004a84:	ffe68693          	addi	a3,a3,-2
20004a88:	006787b3          	add	a5,a5,t1
20004a8c:	f1dff06f          	j	200049a8 <__umoddi3+0x328>
20004a90:	ffe70713          	addi	a4,a4,-2
20004a94:	006585b3          	add	a1,a1,t1
20004a98:	f45ff06f          	j	200049dc <__umoddi3+0x35c>

20004a9c <__adddf3>:
20004a9c:	fe010113          	addi	sp,sp,-32
20004aa0:	00112e23          	sw	ra,28(sp)
20004aa4:	00812c23          	sw	s0,24(sp)
20004aa8:	00912a23          	sw	s1,20(sp)
20004aac:	01212823          	sw	s2,16(sp)
20004ab0:	01312623          	sw	s3,12(sp)
20004ab4:	01412423          	sw	s4,8(sp)
20004ab8:	00202973          	frrm	s2
20004abc:	00100737          	lui	a4,0x100
20004ac0:	fff70713          	addi	a4,a4,-1 # fffff <_start-0x1ff00001>
20004ac4:	00b777b3          	and	a5,a4,a1
20004ac8:	0145d993          	srli	s3,a1,0x14
20004acc:	00d77733          	and	a4,a4,a3
20004ad0:	0146d893          	srli	a7,a3,0x14
20004ad4:	01f5d493          	srli	s1,a1,0x1f
20004ad8:	00379793          	slli	a5,a5,0x3
20004adc:	01d55593          	srli	a1,a0,0x1d
20004ae0:	00371713          	slli	a4,a4,0x3
20004ae4:	7ff9f993          	andi	s3,s3,2047
20004ae8:	00f5e7b3          	or	a5,a1,a5
20004aec:	7ff8f893          	andi	a7,a7,2047
20004af0:	01d65593          	srli	a1,a2,0x1d
20004af4:	01f6d693          	srli	a3,a3,0x1f
20004af8:	00e5e5b3          	or	a1,a1,a4
20004afc:	00351513          	slli	a0,a0,0x3
20004b00:	00361613          	slli	a2,a2,0x3
20004b04:	41198733          	sub	a4,s3,a7
20004b08:	7ff00813          	li	a6,2047
20004b0c:	46d49863          	bne	s1,a3,20004f7c <__adddf3+0x4e0>
20004b10:	14e05c63          	blez	a4,20004c68 <__adddf3+0x1cc>
20004b14:	06089063          	bnez	a7,20004b74 <__adddf3+0xd8>
20004b18:	00c5e6b3          	or	a3,a1,a2
20004b1c:	00069a63          	bnez	a3,20004b30 <__adddf3+0x94>
20004b20:	00050613          	mv	a2,a0
20004b24:	03070863          	beq	a4,a6,20004b54 <__adddf3+0xb8>
20004b28:	00000993          	li	s3,0
20004b2c:	28c0006f          	j	20004db8 <__adddf3+0x31c>
20004b30:	fff70693          	addi	a3,a4,-1
20004b34:	00069e63          	bnez	a3,20004b50 <__adddf3+0xb4>
20004b38:	00c50633          	add	a2,a0,a2
20004b3c:	00b785b3          	add	a1,a5,a1
20004b40:	00a63533          	sltu	a0,a2,a0
20004b44:	00a587b3          	add	a5,a1,a0
20004b48:	00100713          	li	a4,1
20004b4c:	0a40006f          	j	20004bf0 <__adddf3+0x154>
20004b50:	05071c63          	bne	a4,a6,20004ba8 <__adddf3+0x10c>
20004b54:	00a7e633          	or	a2,a5,a0
20004b58:	040606e3          	beqz	a2,200053a4 <__adddf3+0x908>
20004b5c:	0167d993          	srli	s3,a5,0x16
20004b60:	0019f993          	andi	s3,s3,1
20004b64:	0019c993          	xori	s3,s3,1
20004b68:	00499993          	slli	s3,s3,0x4
20004b6c:	00050613          	mv	a2,a0
20004b70:	2480006f          	j	20004db8 <__adddf3+0x31c>
20004b74:	03099463          	bne	s3,a6,20004b9c <__adddf3+0x100>
20004b78:	00a7e633          	or	a2,a5,a0
20004b7c:	180604e3          	beqz	a2,20005504 <__adddf3+0xa68>
20004b80:	0167d693          	srli	a3,a5,0x16
20004b84:	0016f693          	andi	a3,a3,1
20004b88:	0016c693          	xori	a3,a3,1
20004b8c:	00098713          	mv	a4,s3
20004b90:	00050613          	mv	a2,a0
20004b94:	00469993          	slli	s3,a3,0x4
20004b98:	2200006f          	j	20004db8 <__adddf3+0x31c>
20004b9c:	008006b7          	lui	a3,0x800
20004ba0:	00d5e5b3          	or	a1,a1,a3
20004ba4:	00070693          	mv	a3,a4
20004ba8:	03800713          	li	a4,56
20004bac:	0ad74863          	blt	a4,a3,20004c5c <__adddf3+0x1c0>
20004bb0:	01f00713          	li	a4,31
20004bb4:	02000893          	li	a7,32
20004bb8:	06d74a63          	blt	a4,a3,20004c2c <__adddf3+0x190>
20004bbc:	40d888b3          	sub	a7,a7,a3
20004bc0:	01159733          	sll	a4,a1,a7
20004bc4:	00d65833          	srl	a6,a2,a3
20004bc8:	011618b3          	sll	a7,a2,a7
20004bcc:	01076733          	or	a4,a4,a6
20004bd0:	011038b3          	snez	a7,a7
20004bd4:	01176733          	or	a4,a4,a7
20004bd8:	00d5d6b3          	srl	a3,a1,a3
20004bdc:	00a70633          	add	a2,a4,a0
20004be0:	00e63733          	sltu	a4,a2,a4
20004be4:	00f686b3          	add	a3,a3,a5
20004be8:	00e687b3          	add	a5,a3,a4
20004bec:	00098713          	mv	a4,s3
20004bf0:	00879693          	slli	a3,a5,0x8
20004bf4:	2a06dc63          	bgez	a3,20004eac <__adddf3+0x410>
20004bf8:	00170713          	addi	a4,a4,1
20004bfc:	7ff00693          	li	a3,2047
20004c00:	32d70c63          	beq	a4,a3,20004f38 <__adddf3+0x49c>
20004c04:	ff8006b7          	lui	a3,0xff800
20004c08:	fff68693          	addi	a3,a3,-1 # ff7fffff <__stack_top+0xdf7f5e3b>
20004c0c:	00d7f7b3          	and	a5,a5,a3
20004c10:	00165693          	srli	a3,a2,0x1
20004c14:	00167613          	andi	a2,a2,1
20004c18:	00c6e6b3          	or	a3,a3,a2
20004c1c:	01f79613          	slli	a2,a5,0x1f
20004c20:	00d66633          	or	a2,a2,a3
20004c24:	0017d793          	srli	a5,a5,0x1
20004c28:	2840006f          	j	20004eac <__adddf3+0x410>
20004c2c:	fe068713          	addi	a4,a3,-32
20004c30:	00e5d733          	srl	a4,a1,a4
20004c34:	00000813          	li	a6,0
20004c38:	01168863          	beq	a3,a7,20004c48 <__adddf3+0x1ac>
20004c3c:	04000813          	li	a6,64
20004c40:	40d80833          	sub	a6,a6,a3
20004c44:	01059833          	sll	a6,a1,a6
20004c48:	00c86833          	or	a6,a6,a2
20004c4c:	01003833          	snez	a6,a6
20004c50:	01076733          	or	a4,a4,a6
20004c54:	00000693          	li	a3,0
20004c58:	f85ff06f          	j	20004bdc <__adddf3+0x140>
20004c5c:	00c5e733          	or	a4,a1,a2
20004c60:	00e03733          	snez	a4,a4
20004c64:	ff1ff06f          	j	20004c54 <__adddf3+0x1b8>
20004c68:	10070463          	beqz	a4,20004d70 <__adddf3+0x2d4>
20004c6c:	41388733          	sub	a4,a7,s3
20004c70:	04099463          	bnez	s3,20004cb8 <__adddf3+0x21c>
20004c74:	00a7e6b3          	or	a3,a5,a0
20004c78:	02069663          	bnez	a3,20004ca4 <__adddf3+0x208>
20004c7c:	00058793          	mv	a5,a1
20004c80:	13071c63          	bne	a4,a6,20004db8 <__adddf3+0x31c>
20004c84:	00c5e7b3          	or	a5,a1,a2
20004c88:	52078863          	beqz	a5,200051b8 <__adddf3+0x71c>
20004c8c:	0165d993          	srli	s3,a1,0x16
20004c90:	0019f993          	andi	s3,s3,1
20004c94:	0019c993          	xori	s3,s3,1
20004c98:	00499993          	slli	s3,s3,0x4
20004c9c:	00058793          	mv	a5,a1
20004ca0:	1180006f          	j	20004db8 <__adddf3+0x31c>
20004ca4:	fff70693          	addi	a3,a4,-1
20004ca8:	e80688e3          	beqz	a3,20004b38 <__adddf3+0x9c>
20004cac:	03071e63          	bne	a4,a6,20004ce8 <__adddf3+0x24c>
20004cb0:	00c5e7b3          	or	a5,a1,a2
20004cb4:	fd5ff06f          	j	20004c88 <__adddf3+0x1ec>
20004cb8:	03089263          	bne	a7,a6,20004cdc <__adddf3+0x240>
20004cbc:	00c5e7b3          	or	a5,a1,a2
20004cc0:	04078ee3          	beqz	a5,2000551c <__adddf3+0xa80>
20004cc4:	0165d993          	srli	s3,a1,0x16
20004cc8:	0019f993          	andi	s3,s3,1
20004ccc:	0019c993          	xori	s3,s3,1
20004cd0:	00499993          	slli	s3,s3,0x4
20004cd4:	00058793          	mv	a5,a1
20004cd8:	1a80006f          	j	20004e80 <__adddf3+0x3e4>
20004cdc:	008006b7          	lui	a3,0x800
20004ce0:	00d7e7b3          	or	a5,a5,a3
20004ce4:	00070693          	mv	a3,a4
20004ce8:	03800713          	li	a4,56
20004cec:	06d74c63          	blt	a4,a3,20004d64 <__adddf3+0x2c8>
20004cf0:	01f00713          	li	a4,31
20004cf4:	02000313          	li	t1,32
20004cf8:	02d74e63          	blt	a4,a3,20004d34 <__adddf3+0x298>
20004cfc:	40d30333          	sub	t1,t1,a3
20004d00:	00679733          	sll	a4,a5,t1
20004d04:	00d55833          	srl	a6,a0,a3
20004d08:	00651333          	sll	t1,a0,t1
20004d0c:	01076733          	or	a4,a4,a6
20004d10:	00603333          	snez	t1,t1
20004d14:	00676733          	or	a4,a4,t1
20004d18:	00d7d6b3          	srl	a3,a5,a3
20004d1c:	00c70633          	add	a2,a4,a2
20004d20:	00e63733          	sltu	a4,a2,a4
20004d24:	00b686b3          	add	a3,a3,a1
20004d28:	00e687b3          	add	a5,a3,a4
20004d2c:	00088713          	mv	a4,a7
20004d30:	ec1ff06f          	j	20004bf0 <__adddf3+0x154>
20004d34:	fe068713          	addi	a4,a3,-32 # 7fffe0 <_start-0x1f800020>
20004d38:	00e7d733          	srl	a4,a5,a4
20004d3c:	00000813          	li	a6,0
20004d40:	00668863          	beq	a3,t1,20004d50 <__adddf3+0x2b4>
20004d44:	04000813          	li	a6,64
20004d48:	40d80833          	sub	a6,a6,a3
20004d4c:	01079833          	sll	a6,a5,a6
20004d50:	00a86833          	or	a6,a6,a0
20004d54:	01003833          	snez	a6,a6
20004d58:	01076733          	or	a4,a4,a6
20004d5c:	00000693          	li	a3,0
20004d60:	fbdff06f          	j	20004d1c <__adddf3+0x280>
20004d64:	00a7e733          	or	a4,a5,a0
20004d68:	00e03733          	snez	a4,a4
20004d6c:	ff1ff06f          	j	20004d5c <__adddf3+0x2c0>
20004d70:	00198713          	addi	a4,s3,1
20004d74:	7fe77693          	andi	a3,a4,2046
20004d78:	10069863          	bnez	a3,20004e88 <__adddf3+0x3ec>
20004d7c:	00a7e733          	or	a4,a5,a0
20004d80:	0a099863          	bnez	s3,20004e30 <__adddf3+0x394>
20004d84:	68070863          	beqz	a4,20005414 <__adddf3+0x978>
20004d88:	00c5e733          	or	a4,a1,a2
20004d8c:	68070c63          	beqz	a4,20005424 <__adddf3+0x988>
20004d90:	00c50633          	add	a2,a0,a2
20004d94:	00b785b3          	add	a1,a5,a1
20004d98:	00a63533          	sltu	a0,a2,a0
20004d9c:	00a587b3          	add	a5,a1,a0
20004da0:	00879713          	slli	a4,a5,0x8
20004da4:	56075a63          	bgez	a4,20005318 <__adddf3+0x87c>
20004da8:	ff800737          	lui	a4,0xff800
20004dac:	fff70713          	addi	a4,a4,-1 # ff7fffff <__stack_top+0xdf7f5e3b>
20004db0:	00e7f7b3          	and	a5,a5,a4
20004db4:	00100713          	li	a4,1
20004db8:	01d79693          	slli	a3,a5,0x1d
20004dbc:	00365613          	srli	a2,a2,0x3
20004dc0:	00c6e633          	or	a2,a3,a2
20004dc4:	7ff00693          	li	a3,2047
20004dc8:	0037d793          	srli	a5,a5,0x3
20004dcc:	00d71e63          	bne	a4,a3,20004de8 <__adddf3+0x34c>
20004dd0:	00f66633          	or	a2,a2,a5
20004dd4:	00000793          	li	a5,0
20004dd8:	00060863          	beqz	a2,20004de8 <__adddf3+0x34c>
20004ddc:	000807b7          	lui	a5,0x80
20004de0:	00000613          	li	a2,0
20004de4:	00000493          	li	s1,0
20004de8:	7ff77713          	andi	a4,a4,2047
20004dec:	00c79793          	slli	a5,a5,0xc
20004df0:	01471713          	slli	a4,a4,0x14
20004df4:	00c7d793          	srli	a5,a5,0xc
20004df8:	00f76733          	or	a4,a4,a5
20004dfc:	01f49493          	slli	s1,s1,0x1f
20004e00:	00060513          	mv	a0,a2
20004e04:	009765b3          	or	a1,a4,s1
20004e08:	00098463          	beqz	s3,20004e10 <__adddf3+0x374>
20004e0c:	0019a073          	csrs	fflags,s3
20004e10:	01c12083          	lw	ra,28(sp)
20004e14:	01812403          	lw	s0,24(sp)
20004e18:	01412483          	lw	s1,20(sp)
20004e1c:	01012903          	lw	s2,16(sp)
20004e20:	00c12983          	lw	s3,12(sp)
20004e24:	00812a03          	lw	s4,8(sp)
20004e28:	02010113          	addi	sp,sp,32
20004e2c:	00008067          	ret
20004e30:	03099a63          	bne	s3,a6,20004e64 <__adddf3+0x3c8>
20004e34:	02070863          	beqz	a4,20004e64 <__adddf3+0x3c8>
20004e38:	0167d993          	srli	s3,a5,0x16
20004e3c:	0019f993          	andi	s3,s3,1
20004e40:	0019c993          	xori	s3,s3,1
20004e44:	00499993          	slli	s3,s3,0x4
20004e48:	03089663          	bne	a7,a6,20004e74 <__adddf3+0x3d8>
20004e4c:	00c5e6b3          	or	a3,a1,a2
20004e50:	02068063          	beqz	a3,20004e70 <__adddf3+0x3d4>
20004e54:	00959693          	slli	a3,a1,0x9
20004e58:	0006cc63          	bltz	a3,20004e70 <__adddf3+0x3d4>
20004e5c:	01000993          	li	s3,16
20004e60:	0100006f          	j	20004e70 <__adddf3+0x3d4>
20004e64:	7ff00693          	li	a3,2047
20004e68:	00000993          	li	s3,0
20004e6c:	fed880e3          	beq	a7,a3,20004e4c <__adddf3+0x3b0>
20004e70:	e60702e3          	beqz	a4,20004cd4 <__adddf3+0x238>
20004e74:	00c5e5b3          	or	a1,a1,a2
20004e78:	40059063          	bnez	a1,20005278 <__adddf3+0x7dc>
20004e7c:	00050613          	mv	a2,a0
20004e80:	7ff00713          	li	a4,2047
20004e84:	f35ff06f          	j	20004db8 <__adddf3+0x31c>
20004e88:	03070863          	beq	a4,a6,20004eb8 <__adddf3+0x41c>
20004e8c:	00c50633          	add	a2,a0,a2
20004e90:	00b785b3          	add	a1,a5,a1
20004e94:	00a63533          	sltu	a0,a2,a0
20004e98:	00a585b3          	add	a1,a1,a0
20004e9c:	01f59793          	slli	a5,a1,0x1f
20004ea0:	00165613          	srli	a2,a2,0x1
20004ea4:	00c7e633          	or	a2,a5,a2
20004ea8:	0015d793          	srli	a5,a1,0x1
20004eac:	00000693          	li	a3,0
20004eb0:	00000993          	li	s3,0
20004eb4:	4c80006f          	j	2000537c <__adddf3+0x8e0>
20004eb8:	62090e63          	beqz	s2,200054f4 <__adddf3+0xa58>
20004ebc:	00300793          	li	a5,3
20004ec0:	08f91a63          	bne	s2,a5,20004f54 <__adddf3+0x4b8>
20004ec4:	62048863          	beqz	s1,200054f4 <__adddf3+0xa58>
20004ec8:	00000693          	li	a3,0
20004ecc:	fff00793          	li	a5,-1
20004ed0:	7fe00713          	li	a4,2046
20004ed4:	00078613          	mv	a2,a5
20004ed8:	00500993          	li	s3,5
20004edc:	00300593          	li	a1,3
20004ee0:	58b90863          	beq	s2,a1,20005470 <__adddf3+0x9d4>
20004ee4:	02091063          	bnez	s2,20004f04 <__adddf3+0x468>
20004ee8:	00f67593          	andi	a1,a2,15
20004eec:	00400513          	li	a0,4
20004ef0:	00a58a63          	beq	a1,a0,20004f04 <__adddf3+0x468>
20004ef4:	00a605b3          	add	a1,a2,a0
20004ef8:	00c5b533          	sltu	a0,a1,a2
20004efc:	00a787b3          	add	a5,a5,a0
20004f00:	00058613          	mv	a2,a1
20004f04:	00068863          	beqz	a3,20004f14 <__adddf3+0x478>
20004f08:	0019f693          	andi	a3,s3,1
20004f0c:	00169693          	slli	a3,a3,0x1
20004f10:	00d9e9b3          	or	s3,s3,a3
20004f14:	00879693          	slli	a3,a5,0x8
20004f18:	ea06d0e3          	bgez	a3,20004db8 <__adddf3+0x31c>
20004f1c:	00170713          	addi	a4,a4,1
20004f20:	7ff00693          	li	a3,2047
20004f24:	58d70a63          	beq	a4,a3,200054b8 <__adddf3+0xa1c>
20004f28:	ff8006b7          	lui	a3,0xff800
20004f2c:	fff68693          	addi	a3,a3,-1 # ff7fffff <__stack_top+0xdf7f5e3b>
20004f30:	00d7f7b3          	and	a5,a5,a3
20004f34:	e85ff06f          	j	20004db8 <__adddf3+0x31c>
20004f38:	5a090e63          	beqz	s2,200054f4 <__adddf3+0xa58>
20004f3c:	00300793          	li	a5,3
20004f40:	00f91a63          	bne	s2,a5,20004f54 <__adddf3+0x4b8>
20004f44:	5a048863          	beqz	s1,200054f4 <__adddf3+0xa58>
20004f48:	fff00793          	li	a5,-1
20004f4c:	00000693          	li	a3,0
20004f50:	f81ff06f          	j	20004ed0 <__adddf3+0x434>
20004f54:	00200793          	li	a5,2
20004f58:	54f91663          	bne	s2,a5,200054a4 <__adddf3+0xa08>
20004f5c:	58049c63          	bnez	s1,200054f4 <__adddf3+0xa58>
20004f60:	fff00793          	li	a5,-1
20004f64:	7fe00713          	li	a4,2046
20004f68:	00078613          	mv	a2,a5
20004f6c:	00500993          	li	s3,5
20004f70:	00048693          	mv	a3,s1
20004f74:	00000493          	li	s1,0
20004f78:	f8dff06f          	j	20004f04 <__adddf3+0x468>
20004f7c:	0ee05663          	blez	a4,20005068 <__adddf3+0x5cc>
20004f80:	08089c63          	bnez	a7,20005018 <__adddf3+0x57c>
20004f84:	00c5e6b3          	or	a3,a1,a2
20004f88:	b8068ce3          	beqz	a3,20004b20 <__adddf3+0x84>
20004f8c:	fff70693          	addi	a3,a4,-1
20004f90:	00069e63          	bnez	a3,20004fac <__adddf3+0x510>
20004f94:	40c50633          	sub	a2,a0,a2
20004f98:	40b785b3          	sub	a1,a5,a1
20004f9c:	00c53533          	sltu	a0,a0,a2
20004fa0:	40a587b3          	sub	a5,a1,a0
20004fa4:	00100713          	li	a4,1
20004fa8:	0500006f          	j	20004ff8 <__adddf3+0x55c>
20004fac:	bb0704e3          	beq	a4,a6,20004b54 <__adddf3+0xb8>
20004fb0:	03800713          	li	a4,56
20004fb4:	0ad74463          	blt	a4,a3,2000505c <__adddf3+0x5c0>
20004fb8:	01f00713          	li	a4,31
20004fbc:	02000893          	li	a7,32
20004fc0:	06d74663          	blt	a4,a3,2000502c <__adddf3+0x590>
20004fc4:	40d888b3          	sub	a7,a7,a3
20004fc8:	01159733          	sll	a4,a1,a7
20004fcc:	00d65833          	srl	a6,a2,a3
20004fd0:	011618b3          	sll	a7,a2,a7
20004fd4:	01076733          	or	a4,a4,a6
20004fd8:	011038b3          	snez	a7,a7
20004fdc:	01176733          	or	a4,a4,a7
20004fe0:	00d5d6b3          	srl	a3,a1,a3
20004fe4:	40e50633          	sub	a2,a0,a4
20004fe8:	40d786b3          	sub	a3,a5,a3
20004fec:	00c53533          	sltu	a0,a0,a2
20004ff0:	40a687b3          	sub	a5,a3,a0
20004ff4:	00098713          	mv	a4,s3
20004ff8:	00879693          	slli	a3,a5,0x8
20004ffc:	ea06d8e3          	bgez	a3,20004eac <__adddf3+0x410>
20005000:	00800437          	lui	s0,0x800
20005004:	fff40413          	addi	s0,s0,-1 # 7fffff <_start-0x1f800001>
20005008:	0087f433          	and	s0,a5,s0
2000500c:	00060a13          	mv	s4,a2
20005010:	00070993          	mv	s3,a4
20005014:	2a40006f          	j	200052b8 <__adddf3+0x81c>
20005018:	b70980e3          	beq	s3,a6,20004b78 <__adddf3+0xdc>
2000501c:	008006b7          	lui	a3,0x800
20005020:	00d5e5b3          	or	a1,a1,a3
20005024:	00070693          	mv	a3,a4
20005028:	f89ff06f          	j	20004fb0 <__adddf3+0x514>
2000502c:	fe068713          	addi	a4,a3,-32 # 7fffe0 <_start-0x1f800020>
20005030:	00e5d733          	srl	a4,a1,a4
20005034:	00000813          	li	a6,0
20005038:	01168863          	beq	a3,a7,20005048 <__adddf3+0x5ac>
2000503c:	04000813          	li	a6,64
20005040:	40d80833          	sub	a6,a6,a3
20005044:	01059833          	sll	a6,a1,a6
20005048:	00c86833          	or	a6,a6,a2
2000504c:	01003833          	snez	a6,a6
20005050:	01076733          	or	a4,a4,a6
20005054:	00000693          	li	a3,0
20005058:	f8dff06f          	j	20004fe4 <__adddf3+0x548>
2000505c:	00c5e733          	or	a4,a1,a2
20005060:	00e03733          	snez	a4,a4
20005064:	ff1ff06f          	j	20005054 <__adddf3+0x5b8>
20005068:	12070263          	beqz	a4,2000518c <__adddf3+0x6f0>
2000506c:	41388733          	sub	a4,a7,s3
20005070:	0a099663          	bnez	s3,2000511c <__adddf3+0x680>
20005074:	00a7e333          	or	t1,a5,a0
20005078:	02031463          	bnez	t1,200050a0 <__adddf3+0x604>
2000507c:	01071e63          	bne	a4,a6,20005098 <__adddf3+0x5fc>
20005080:	00c5e7b3          	or	a5,a1,a2
20005084:	48078663          	beqz	a5,20005510 <__adddf3+0xa74>
20005088:	0165d993          	srli	s3,a1,0x16
2000508c:	0019f993          	andi	s3,s3,1
20005090:	0019c993          	xori	s3,s3,1
20005094:	00499993          	slli	s3,s3,0x4
20005098:	00068493          	mv	s1,a3
2000509c:	c01ff06f          	j	20004c9c <__adddf3+0x200>
200050a0:	fff70313          	addi	t1,a4,-1
200050a4:	02031063          	bnez	t1,200050c4 <__adddf3+0x628>
200050a8:	40a60533          	sub	a0,a2,a0
200050ac:	00a63733          	sltu	a4,a2,a0
200050b0:	40f585b3          	sub	a1,a1,a5
200050b4:	00050613          	mv	a2,a0
200050b8:	40e587b3          	sub	a5,a1,a4
200050bc:	00068493          	mv	s1,a3
200050c0:	ee5ff06f          	j	20004fa4 <__adddf3+0x508>
200050c4:	fb070ee3          	beq	a4,a6,20005080 <__adddf3+0x5e4>
200050c8:	03800713          	li	a4,56
200050cc:	0a674a63          	blt	a4,t1,20005180 <__adddf3+0x6e4>
200050d0:	01f00713          	li	a4,31
200050d4:	02000e13          	li	t3,32
200050d8:	06674c63          	blt	a4,t1,20005150 <__adddf3+0x6b4>
200050dc:	406e0e33          	sub	t3,t3,t1
200050e0:	01c79733          	sll	a4,a5,t3
200050e4:	00655833          	srl	a6,a0,t1
200050e8:	01c51e33          	sll	t3,a0,t3
200050ec:	01076733          	or	a4,a4,a6
200050f0:	01c03e33          	snez	t3,t3
200050f4:	01c76733          	or	a4,a4,t3
200050f8:	0067d333          	srl	t1,a5,t1
200050fc:	40e60733          	sub	a4,a2,a4
20005100:	00e637b3          	sltu	a5,a2,a4
20005104:	40658333          	sub	t1,a1,t1
20005108:	00070613          	mv	a2,a4
2000510c:	40f307b3          	sub	a5,t1,a5
20005110:	00088713          	mv	a4,a7
20005114:	00068493          	mv	s1,a3
20005118:	ee1ff06f          	j	20004ff8 <__adddf3+0x55c>
2000511c:	03089263          	bne	a7,a6,20005140 <__adddf3+0x6a4>
20005120:	00c5e7b3          	or	a5,a1,a2
20005124:	3e078a63          	beqz	a5,20005518 <__adddf3+0xa7c>
20005128:	0165d993          	srli	s3,a1,0x16
2000512c:	0019f993          	andi	s3,s3,1
20005130:	0019c993          	xori	s3,s3,1
20005134:	00499993          	slli	s3,s3,0x4
20005138:	00068493          	mv	s1,a3
2000513c:	b99ff06f          	j	20004cd4 <__adddf3+0x238>
20005140:	00800837          	lui	a6,0x800
20005144:	0107e7b3          	or	a5,a5,a6
20005148:	00070313          	mv	t1,a4
2000514c:	f7dff06f          	j	200050c8 <__adddf3+0x62c>
20005150:	fe030713          	addi	a4,t1,-32 # ffffe0 <_start-0x1f000020>
20005154:	00e7d733          	srl	a4,a5,a4
20005158:	00000813          	li	a6,0
2000515c:	01c30863          	beq	t1,t3,2000516c <__adddf3+0x6d0>
20005160:	04000813          	li	a6,64
20005164:	40680833          	sub	a6,a6,t1
20005168:	01079833          	sll	a6,a5,a6
2000516c:	00a86833          	or	a6,a6,a0
20005170:	01003833          	snez	a6,a6
20005174:	01076733          	or	a4,a4,a6
20005178:	00000313          	li	t1,0
2000517c:	f81ff06f          	j	200050fc <__adddf3+0x660>
20005180:	00a7e733          	or	a4,a5,a0
20005184:	00e03733          	snez	a4,a4
20005188:	ff1ff06f          	j	20005178 <__adddf3+0x6dc>
2000518c:	00198313          	addi	t1,s3,1
20005190:	7fe37313          	andi	t1,t1,2046
20005194:	0e031a63          	bnez	t1,20005288 <__adddf3+0x7ec>
20005198:	00a7ee33          	or	t3,a5,a0
2000519c:	00c5e333          	or	t1,a1,a2
200051a0:	06099863          	bnez	s3,20005210 <__adddf3+0x774>
200051a4:	000e1e63          	bnez	t3,200051c0 <__adddf3+0x724>
200051a8:	26031a63          	bnez	t1,2000541c <__adddf3+0x980>
200051ac:	ffe90793          	addi	a5,s2,-2
200051b0:	0017b493          	seqz	s1,a5
200051b4:	00000793          	li	a5,0
200051b8:	00000613          	li	a2,0
200051bc:	bfdff06f          	j	20004db8 <__adddf3+0x31c>
200051c0:	26030263          	beqz	t1,20005424 <__adddf3+0x988>
200051c4:	40c508b3          	sub	a7,a0,a2
200051c8:	01153333          	sltu	t1,a0,a7
200051cc:	40b78833          	sub	a6,a5,a1
200051d0:	40680833          	sub	a6,a6,t1
200051d4:	00881313          	slli	t1,a6,0x8
200051d8:	02035063          	bgez	t1,200051f8 <__adddf3+0x75c>
200051dc:	40a60533          	sub	a0,a2,a0
200051e0:	00a63733          	sltu	a4,a2,a0
200051e4:	40f585b3          	sub	a1,a1,a5
200051e8:	00050613          	mv	a2,a0
200051ec:	40e587b3          	sub	a5,a1,a4
200051f0:	00068493          	mv	s1,a3
200051f4:	1240006f          	j	20005318 <__adddf3+0x87c>
200051f8:	0108e633          	or	a2,a7,a6
200051fc:	22061863          	bnez	a2,2000542c <__adddf3+0x990>
20005200:	ffe90793          	addi	a5,s2,-2
20005204:	0017b493          	seqz	s1,a5
20005208:	00000793          	li	a5,0
2000520c:	badff06f          	j	20004db8 <__adddf3+0x31c>
20005210:	03099a63          	bne	s3,a6,20005244 <__adddf3+0x7a8>
20005214:	320e0063          	beqz	t3,20005534 <__adddf3+0xa98>
20005218:	0167d993          	srli	s3,a5,0x16
2000521c:	0019f993          	andi	s3,s3,1
20005220:	0019c993          	xori	s3,s3,1
20005224:	00499993          	slli	s3,s3,0x4
20005228:	05089663          	bne	a7,a6,20005274 <__adddf3+0x7d8>
2000522c:	02030063          	beqz	t1,2000524c <__adddf3+0x7b0>
20005230:	00959713          	slli	a4,a1,0x9
20005234:	00074c63          	bltz	a4,2000524c <__adddf3+0x7b0>
20005238:	01000993          	li	s3,16
2000523c:	ee0e0ee3          	beqz	t3,20005138 <__adddf3+0x69c>
20005240:	0380006f          	j	20005278 <__adddf3+0x7dc>
20005244:	00000993          	li	s3,0
20005248:	ff0882e3          	beq	a7,a6,2000522c <__adddf3+0x790>
2000524c:	020e1463          	bnez	t3,20005274 <__adddf3+0x7d8>
20005250:	ee0314e3          	bnez	t1,20005138 <__adddf3+0x69c>
20005254:	00000493          	li	s1,0
20005258:	00000613          	li	a2,0
2000525c:	004007b7          	lui	a5,0x400
20005260:	7ff00713          	li	a4,2047
20005264:	01000993          	li	s3,16
20005268:	b51ff06f          	j	20004db8 <__adddf3+0x31c>
2000526c:	00000993          	li	s3,0
20005270:	fbdff06f          	j	2000522c <__adddf3+0x790>
20005274:	c00304e3          	beqz	t1,20004e7c <__adddf3+0x3e0>
20005278:	00000493          	li	s1,0
2000527c:	004007b7          	lui	a5,0x400
20005280:	00000613          	li	a2,0
20005284:	bfdff06f          	j	20004e80 <__adddf3+0x3e4>
20005288:	40c50833          	sub	a6,a0,a2
2000528c:	010538b3          	sltu	a7,a0,a6
20005290:	40b78433          	sub	s0,a5,a1
20005294:	41140433          	sub	s0,s0,a7
20005298:	00841893          	slli	a7,s0,0x8
2000529c:	00080a13          	mv	s4,a6
200052a0:	0e08da63          	bgez	a7,20005394 <__adddf3+0x8f8>
200052a4:	40a60a33          	sub	s4,a2,a0
200052a8:	40f58433          	sub	s0,a1,a5
200052ac:	01463633          	sltu	a2,a2,s4
200052b0:	40c40433          	sub	s0,s0,a2
200052b4:	00068493          	mv	s1,a3
200052b8:	0e040a63          	beqz	s0,200053ac <__adddf3+0x910>
200052bc:	00040513          	mv	a0,s0
200052c0:	055010ef          	jal	20006b14 <__clzsi2>
200052c4:	ff850713          	addi	a4,a0,-8 # 40012ff8 <__stack_top+0x20008e34>
200052c8:	02000793          	li	a5,32
200052cc:	40e787b3          	sub	a5,a5,a4
200052d0:	00e41433          	sll	s0,s0,a4
200052d4:	00fa57b3          	srl	a5,s4,a5
200052d8:	0087e7b3          	or	a5,a5,s0
200052dc:	00ea1433          	sll	s0,s4,a4
200052e0:	11374e63          	blt	a4,s3,200053fc <__adddf3+0x960>
200052e4:	41370733          	sub	a4,a4,s3
200052e8:	00170593          	addi	a1,a4,1
200052ec:	01f00613          	li	a2,31
200052f0:	02000693          	li	a3,32
200052f4:	0cb64c63          	blt	a2,a1,200053cc <__adddf3+0x930>
200052f8:	40b686b3          	sub	a3,a3,a1
200052fc:	00d79633          	sll	a2,a5,a3
20005300:	00b45733          	srl	a4,s0,a1
20005304:	00d416b3          	sll	a3,s0,a3
20005308:	00e66633          	or	a2,a2,a4
2000530c:	00d036b3          	snez	a3,a3
20005310:	00d66633          	or	a2,a2,a3
20005314:	00b7d7b3          	srl	a5,a5,a1
20005318:	00c7e733          	or	a4,a5,a2
2000531c:	20070663          	beqz	a4,20005528 <__adddf3+0xa8c>
20005320:	01f65713          	srli	a4,a2,0x1f
20005324:	00179693          	slli	a3,a5,0x1
20005328:	00e686b3          	add	a3,a3,a4
2000532c:	00161713          	slli	a4,a2,0x1
20005330:	00777593          	andi	a1,a4,7
20005334:	00000993          	li	s3,0
20005338:	02058a63          	beqz	a1,2000536c <__adddf3+0x8d0>
2000533c:	00200593          	li	a1,2
20005340:	10b90a63          	beq	s2,a1,20005454 <__adddf3+0x9b8>
20005344:	00300593          	li	a1,3
20005348:	0eb90863          	beq	s2,a1,20005438 <__adddf3+0x99c>
2000534c:	00100993          	li	s3,1
20005350:	00091e63          	bnez	s2,2000536c <__adddf3+0x8d0>
20005354:	00f77593          	andi	a1,a4,15
20005358:	00400513          	li	a0,4
2000535c:	00a58863          	beq	a1,a0,2000536c <__adddf3+0x8d0>
20005360:	ffc73713          	sltiu	a4,a4,-4
20005364:	00173713          	seqz	a4,a4
20005368:	00e686b3          	add	a3,a3,a4
2000536c:	0186d693          	srli	a3,a3,0x18
20005370:	0016f693          	andi	a3,a3,1
20005374:	0016c693          	xori	a3,a3,1
20005378:	00000713          	li	a4,0
2000537c:	00767593          	andi	a1,a2,7
20005380:	b80582e3          	beqz	a1,20004f04 <__adddf3+0x468>
20005384:	00200593          	li	a1,2
20005388:	0eb90a63          	beq	s2,a1,2000547c <__adddf3+0x9e0>
2000538c:	00100993          	li	s3,1
20005390:	b4dff06f          	j	20004edc <__adddf3+0x440>
20005394:	00886633          	or	a2,a6,s0
20005398:	f20610e3          	bnez	a2,200052b8 <__adddf3+0x81c>
2000539c:	ffe90793          	addi	a5,s2,-2
200053a0:	0017b493          	seqz	s1,a5
200053a4:	00000793          	li	a5,0
200053a8:	f80ff06f          	j	20004b28 <__adddf3+0x8c>
200053ac:	000a0513          	mv	a0,s4
200053b0:	764010ef          	jal	20006b14 <__clzsi2>
200053b4:	01850713          	addi	a4,a0,24
200053b8:	01f00793          	li	a5,31
200053bc:	f0e7d6e3          	bge	a5,a4,200052c8 <__adddf3+0x82c>
200053c0:	ff850793          	addi	a5,a0,-8
200053c4:	00fa17b3          	sll	a5,s4,a5
200053c8:	f19ff06f          	j	200052e0 <__adddf3+0x844>
200053cc:	fe170713          	addi	a4,a4,-31
200053d0:	00e7d733          	srl	a4,a5,a4
200053d4:	00000613          	li	a2,0
200053d8:	00d58863          	beq	a1,a3,200053e8 <__adddf3+0x94c>
200053dc:	04000613          	li	a2,64
200053e0:	40b60633          	sub	a2,a2,a1
200053e4:	00c79633          	sll	a2,a5,a2
200053e8:	00c46633          	or	a2,s0,a2
200053ec:	00c03633          	snez	a2,a2
200053f0:	00c76633          	or	a2,a4,a2
200053f4:	00000793          	li	a5,0
200053f8:	f21ff06f          	j	20005318 <__adddf3+0x87c>
200053fc:	ff8006b7          	lui	a3,0xff800
20005400:	fff68693          	addi	a3,a3,-1 # ff7fffff <__stack_top+0xdf7f5e3b>
20005404:	40e98733          	sub	a4,s3,a4
20005408:	00d7f7b3          	and	a5,a5,a3
2000540c:	00040613          	mv	a2,s0
20005410:	a9dff06f          	j	20004eac <__adddf3+0x410>
20005414:	00058793          	mv	a5,a1
20005418:	f01ff06f          	j	20005318 <__adddf3+0x87c>
2000541c:	00058793          	mv	a5,a1
20005420:	dd1ff06f          	j	200051f0 <__adddf3+0x754>
20005424:	00050613          	mv	a2,a0
20005428:	ef1ff06f          	j	20005318 <__adddf3+0x87c>
2000542c:	00080793          	mv	a5,a6
20005430:	00088613          	mv	a2,a7
20005434:	ee5ff06f          	j	20005318 <__adddf3+0x87c>
20005438:	00048993          	mv	s3,s1
2000543c:	f20498e3          	bnez	s1,2000536c <__adddf3+0x8d0>
20005440:	ff873713          	sltiu	a4,a4,-8
20005444:	00173713          	seqz	a4,a4
20005448:	00e686b3          	add	a3,a3,a4
2000544c:	00100993          	li	s3,1
20005450:	f1dff06f          	j	2000536c <__adddf3+0x8d0>
20005454:	00100993          	li	s3,1
20005458:	f0048ae3          	beqz	s1,2000536c <__adddf3+0x8d0>
2000545c:	ff873713          	sltiu	a4,a4,-8
20005460:	00173713          	seqz	a4,a4
20005464:	00e686b3          	add	a3,a3,a4
20005468:	00048993          	mv	s3,s1
2000546c:	f01ff06f          	j	2000536c <__adddf3+0x8d0>
20005470:	a8049ae3          	bnez	s1,20004f04 <__adddf3+0x468>
20005474:	00860593          	addi	a1,a2,8 # 10008 <_start-0x1ffefff8>
20005478:	a81ff06f          	j	20004ef8 <__adddf3+0x45c>
2000547c:	00048593          	mv	a1,s1
20005480:	00100993          	li	s3,1
20005484:	00068493          	mv	s1,a3
20005488:	ae0584e3          	beqz	a1,20004f70 <__adddf3+0x4d4>
2000548c:	00860513          	addi	a0,a2,8
20005490:	00c53833          	sltu	a6,a0,a2
20005494:	010787b3          	add	a5,a5,a6
20005498:	00050613          	mv	a2,a0
2000549c:	00058493          	mv	s1,a1
200054a0:	a65ff06f          	j	20004f04 <__adddf3+0x468>
200054a4:	fff00793          	li	a5,-1
200054a8:	7fe00713          	li	a4,2046
200054ac:	00078613          	mv	a2,a5
200054b0:	00500993          	li	s3,5
200054b4:	a61ff06f          	j	20004f14 <__adddf3+0x478>
200054b8:	00000613          	li	a2,0
200054bc:	02090663          	beqz	s2,200054e8 <__adddf3+0xa4c>
200054c0:	00300793          	li	a5,3
200054c4:	00f91a63          	bne	s2,a5,200054d8 <__adddf3+0xa3c>
200054c8:	02048063          	beqz	s1,200054e8 <__adddf3+0xa4c>
200054cc:	fff00613          	li	a2,-1
200054d0:	7fe00713          	li	a4,2046
200054d4:	0140006f          	j	200054e8 <__adddf3+0xa4c>
200054d8:	ffe90793          	addi	a5,s2,-2
200054dc:	fe0798e3          	bnez	a5,200054cc <__adddf3+0xa30>
200054e0:	0014f793          	andi	a5,s1,1
200054e4:	fe0784e3          	beqz	a5,200054cc <__adddf3+0xa30>
200054e8:	0059e993          	ori	s3,s3,5
200054ec:	00060793          	mv	a5,a2
200054f0:	8c9ff06f          	j	20004db8 <__adddf3+0x31c>
200054f4:	00000793          	li	a5,0
200054f8:	00000613          	li	a2,0
200054fc:	00500993          	li	s3,5
20005500:	8b9ff06f          	j	20004db8 <__adddf3+0x31c>
20005504:	00000793          	li	a5,0
20005508:	00098713          	mv	a4,s3
2000550c:	e1cff06f          	j	20004b28 <__adddf3+0x8c>
20005510:	00068493          	mv	s1,a3
20005514:	ca5ff06f          	j	200051b8 <__adddf3+0x71c>
20005518:	00068493          	mv	s1,a3
2000551c:	00000613          	li	a2,0
20005520:	00088713          	mv	a4,a7
20005524:	e04ff06f          	j	20004b28 <__adddf3+0x8c>
20005528:	00000793          	li	a5,0
2000552c:	00000613          	li	a2,0
20005530:	df8ff06f          	j	20004b28 <__adddf3+0x8c>
20005534:	d3388ce3          	beq	a7,s3,2000526c <__adddf3+0x7d0>
20005538:	00000993          	li	s3,0
2000553c:	d15ff06f          	j	20005250 <__adddf3+0x7b4>

20005540 <__muldf3>:
20005540:	fd010113          	addi	sp,sp,-48
20005544:	02812423          	sw	s0,40(sp)
20005548:	01512a23          	sw	s5,20(sp)
2000554c:	01812423          	sw	s8,8(sp)
20005550:	02112623          	sw	ra,44(sp)
20005554:	02912223          	sw	s1,36(sp)
20005558:	03212023          	sw	s2,32(sp)
2000555c:	01312e23          	sw	s3,28(sp)
20005560:	01412c23          	sw	s4,24(sp)
20005564:	01612823          	sw	s6,16(sp)
20005568:	01712623          	sw	s7,12(sp)
2000556c:	01912223          	sw	s9,4(sp)
20005570:	00050413          	mv	s0,a0
20005574:	00060c13          	mv	s8,a2
20005578:	00068a93          	mv	s5,a3
2000557c:	002024f3          	frrm	s1
20005580:	0145db93          	srli	s7,a1,0x14
20005584:	00c59913          	slli	s2,a1,0xc
20005588:	7ffbfb93          	andi	s7,s7,2047
2000558c:	00c95913          	srli	s2,s2,0xc
20005590:	01f5db13          	srli	s6,a1,0x1f
20005594:	020b8a63          	beqz	s7,200055c8 <__muldf3+0x88>
20005598:	7ff00793          	li	a5,2047
2000559c:	08fb8c63          	beq	s7,a5,20005634 <__muldf3+0xf4>
200055a0:	00391913          	slli	s2,s2,0x3
200055a4:	01d55793          	srli	a5,a0,0x1d
200055a8:	0127e7b3          	or	a5,a5,s2
200055ac:	00800937          	lui	s2,0x800
200055b0:	0127e933          	or	s2,a5,s2
200055b4:	00351a13          	slli	s4,a0,0x3
200055b8:	c01b8b93          	addi	s7,s7,-1023
200055bc:	00000c93          	li	s9,0
200055c0:	00000993          	li	s3,0
200055c4:	08c0006f          	j	20005650 <__muldf3+0x110>
200055c8:	00a96a33          	or	s4,s2,a0
200055cc:	120a0063          	beqz	s4,200056ec <__muldf3+0x1ac>
200055d0:	04090263          	beqz	s2,20005614 <__muldf3+0xd4>
200055d4:	00090513          	mv	a0,s2
200055d8:	53c010ef          	jal	20006b14 <__clzsi2>
200055dc:	00050713          	mv	a4,a0
200055e0:	ff550693          	addi	a3,a0,-11
200055e4:	01d00793          	li	a5,29
200055e8:	ff870613          	addi	a2,a4,-8
200055ec:	40d787b3          	sub	a5,a5,a3
200055f0:	00c91933          	sll	s2,s2,a2
200055f4:	00f457b3          	srl	a5,s0,a5
200055f8:	0127e7b3          	or	a5,a5,s2
200055fc:	00c41933          	sll	s2,s0,a2
20005600:	c0d00b93          	li	s7,-1011
20005604:	00090a13          	mv	s4,s2
20005608:	40eb8bb3          	sub	s7,s7,a4
2000560c:	00078913          	mv	s2,a5
20005610:	fadff06f          	j	200055bc <__muldf3+0x7c>
20005614:	500010ef          	jal	20006b14 <__clzsi2>
20005618:	01550693          	addi	a3,a0,21
2000561c:	01c00793          	li	a5,28
20005620:	02050713          	addi	a4,a0,32
20005624:	fcd7d0e3          	bge	a5,a3,200055e4 <__muldf3+0xa4>
20005628:	ff850793          	addi	a5,a0,-8
2000562c:	00f417b3          	sll	a5,s0,a5
20005630:	fd1ff06f          	j	20005600 <__muldf3+0xc0>
20005634:	00a96a33          	or	s4,s2,a0
20005638:	0c0a0263          	beqz	s4,200056fc <__muldf3+0x1bc>
2000563c:	000809b7          	lui	s3,0x80
20005640:	013939b3          	sltu	s3,s2,s3
20005644:	00499993          	slli	s3,s3,0x4
20005648:	00050a13          	mv	s4,a0
2000564c:	00300c93          	li	s9,3
20005650:	014ad713          	srli	a4,s5,0x14
20005654:	00ca9413          	slli	s0,s5,0xc
20005658:	7ff77713          	andi	a4,a4,2047
2000565c:	000c0793          	mv	a5,s8
20005660:	00c45413          	srli	s0,s0,0xc
20005664:	01fada93          	srli	s5,s5,0x1f
20005668:	0a070063          	beqz	a4,20005708 <__muldf3+0x1c8>
2000566c:	7ff00693          	li	a3,2047
20005670:	10d70463          	beq	a4,a3,20005778 <__muldf3+0x238>
20005674:	00341413          	slli	s0,s0,0x3
20005678:	01dc5793          	srli	a5,s8,0x1d
2000567c:	0087e7b3          	or	a5,a5,s0
20005680:	00800437          	lui	s0,0x800
20005684:	0087e433          	or	s0,a5,s0
20005688:	c0170713          	addi	a4,a4,-1023
2000568c:	003c1793          	slli	a5,s8,0x3
20005690:	00000693          	li	a3,0
20005694:	00eb8bb3          	add	s7,s7,a4
20005698:	002c9713          	slli	a4,s9,0x2
2000569c:	00d76733          	or	a4,a4,a3
200056a0:	00a00613          	li	a2,10
200056a4:	001b8813          	addi	a6,s7,1
200056a8:	12e64c63          	blt	a2,a4,200057e0 <__muldf3+0x2a0>
200056ac:	00200513          	li	a0,2
200056b0:	015b45b3          	xor	a1,s6,s5
200056b4:	00100613          	li	a2,1
200056b8:	10e54263          	blt	a0,a4,200057bc <__muldf3+0x27c>
200056bc:	fff70713          	addi	a4,a4,-1
200056c0:	14e66063          	bltu	a2,a4,20005800 <__muldf3+0x2c0>
200056c4:	00068c93          	mv	s9,a3
200056c8:	00200713          	li	a4,2
200056cc:	5eec8463          	beq	s9,a4,20005cb4 <__muldf3+0x774>
200056d0:	00300713          	li	a4,3
200056d4:	5eec8863          	beq	s9,a4,20005cc4 <__muldf3+0x784>
200056d8:	00100713          	li	a4,1
200056dc:	2cec9e63          	bne	s9,a4,200059b8 <__muldf3+0x478>
200056e0:	00000713          	li	a4,0
200056e4:	00000513          	li	a0,0
200056e8:	5980006f          	j	20005c80 <__muldf3+0x740>
200056ec:	00000913          	li	s2,0
200056f0:	00000b93          	li	s7,0
200056f4:	00100c93          	li	s9,1
200056f8:	ec9ff06f          	j	200055c0 <__muldf3+0x80>
200056fc:	00000913          	li	s2,0
20005700:	00200c93          	li	s9,2
20005704:	ebdff06f          	j	200055c0 <__muldf3+0x80>
20005708:	018467b3          	or	a5,s0,s8
2000570c:	08078263          	beqz	a5,20005790 <__muldf3+0x250>
20005710:	04040263          	beqz	s0,20005754 <__muldf3+0x214>
20005714:	00040513          	mv	a0,s0
20005718:	3fc010ef          	jal	20006b14 <__clzsi2>
2000571c:	00050793          	mv	a5,a0
20005720:	ff550713          	addi	a4,a0,-11
20005724:	01d00693          	li	a3,29
20005728:	ff878613          	addi	a2,a5,-8 # 3ffff8 <_start-0x1fc00008>
2000572c:	40e686b3          	sub	a3,a3,a4
20005730:	00c41433          	sll	s0,s0,a2
20005734:	00dc56b3          	srl	a3,s8,a3
20005738:	0086e6b3          	or	a3,a3,s0
2000573c:	00cc1433          	sll	s0,s8,a2
20005740:	c0d00713          	li	a4,-1011
20005744:	40f70733          	sub	a4,a4,a5
20005748:	00040793          	mv	a5,s0
2000574c:	00068413          	mv	s0,a3
20005750:	f41ff06f          	j	20005690 <__muldf3+0x150>
20005754:	000c0513          	mv	a0,s8
20005758:	3bc010ef          	jal	20006b14 <__clzsi2>
2000575c:	01550713          	addi	a4,a0,21
20005760:	01c00693          	li	a3,28
20005764:	02050793          	addi	a5,a0,32
20005768:	fae6dee3          	bge	a3,a4,20005724 <__muldf3+0x1e4>
2000576c:	ff850693          	addi	a3,a0,-8
20005770:	00dc16b3          	sll	a3,s8,a3
20005774:	fcdff06f          	j	20005740 <__muldf3+0x200>
20005778:	01846c33          	or	s8,s0,s8
2000577c:	020c0263          	beqz	s8,200057a0 <__muldf3+0x260>
20005780:	000806b7          	lui	a3,0x80
20005784:	02d46663          	bltu	s0,a3,200057b0 <__muldf3+0x270>
20005788:	00300693          	li	a3,3
2000578c:	f09ff06f          	j	20005694 <__muldf3+0x154>
20005790:	00000413          	li	s0,0
20005794:	00000713          	li	a4,0
20005798:	00100693          	li	a3,1
2000579c:	ef9ff06f          	j	20005694 <__muldf3+0x154>
200057a0:	00000413          	li	s0,0
200057a4:	00000793          	li	a5,0
200057a8:	00200693          	li	a3,2
200057ac:	ee9ff06f          	j	20005694 <__muldf3+0x154>
200057b0:	00300693          	li	a3,3
200057b4:	01000993          	li	s3,16
200057b8:	eddff06f          	j	20005694 <__muldf3+0x154>
200057bc:	00e61733          	sll	a4,a2,a4
200057c0:	53077513          	andi	a0,a4,1328
200057c4:	02051863          	bnez	a0,200057f4 <__muldf3+0x2b4>
200057c8:	24077613          	andi	a2,a4,576
200057cc:	4c061a63          	bnez	a2,20005ca0 <__muldf3+0x760>
200057d0:	08877713          	andi	a4,a4,136
200057d4:	02070663          	beqz	a4,20005800 <__muldf3+0x2c0>
200057d8:	000a8593          	mv	a1,s5
200057dc:	ee9ff06f          	j	200056c4 <__muldf3+0x184>
200057e0:	00f00613          	li	a2,15
200057e4:	4ec70063          	beq	a4,a2,20005cc4 <__muldf3+0x784>
200057e8:	00b00613          	li	a2,11
200057ec:	000b0593          	mv	a1,s6
200057f0:	fec704e3          	beq	a4,a2,200057d8 <__muldf3+0x298>
200057f4:	00090413          	mv	s0,s2
200057f8:	000a0793          	mv	a5,s4
200057fc:	ecdff06f          	j	200056c8 <__muldf3+0x188>
20005800:	010a5313          	srli	t1,s4,0x10
20005804:	0107d893          	srli	a7,a5,0x10
20005808:	010a1a13          	slli	s4,s4,0x10
2000580c:	01079793          	slli	a5,a5,0x10
20005810:	010a5a13          	srli	s4,s4,0x10
20005814:	0107d793          	srli	a5,a5,0x10
20005818:	03478633          	mul	a2,a5,s4
2000581c:	02f306b3          	mul	a3,t1,a5
20005820:	01065513          	srli	a0,a2,0x10
20005824:	03488733          	mul	a4,a7,s4
20005828:	00d70733          	add	a4,a4,a3
2000582c:	00e50533          	add	a0,a0,a4
20005830:	03130fb3          	mul	t6,t1,a7
20005834:	00d57663          	bgeu	a0,a3,20005840 <__muldf3+0x300>
20005838:	00010737          	lui	a4,0x10
2000583c:	00ef8fb3          	add	t6,t6,a4
20005840:	01061613          	slli	a2,a2,0x10
20005844:	01065613          	srli	a2,a2,0x10
20005848:	01055713          	srli	a4,a0,0x10
2000584c:	01051513          	slli	a0,a0,0x10
20005850:	00c50533          	add	a0,a0,a2
20005854:	01045613          	srli	a2,s0,0x10
20005858:	01041413          	slli	s0,s0,0x10
2000585c:	01045413          	srli	s0,s0,0x10
20005860:	028a0e33          	mul	t3,s4,s0
20005864:	02830eb3          	mul	t4,t1,s0
20005868:	010e5693          	srli	a3,t3,0x10
2000586c:	03460a33          	mul	s4,a2,s4
20005870:	01da0a33          	add	s4,s4,t4
20005874:	014686b3          	add	a3,a3,s4
20005878:	02c30333          	mul	t1,t1,a2
2000587c:	01d6f663          	bgeu	a3,t4,20005888 <__muldf3+0x348>
20005880:	00010eb7          	lui	t4,0x10
20005884:	01d30333          	add	t1,t1,t4
20005888:	0106df13          	srli	t5,a3,0x10
2000588c:	006f0f33          	add	t5,t5,t1
20005890:	01095313          	srli	t1,s2,0x10
20005894:	01091913          	slli	s2,s2,0x10
20005898:	01095913          	srli	s2,s2,0x10
2000589c:	010e1e13          	slli	t3,t3,0x10
200058a0:	03278eb3          	mul	t4,a5,s2
200058a4:	010e5e13          	srli	t3,t3,0x10
200058a8:	01069693          	slli	a3,a3,0x10
200058ac:	01c686b3          	add	a3,a3,t3
200058b0:	00d70733          	add	a4,a4,a3
200058b4:	02f307b3          	mul	a5,t1,a5
200058b8:	010ede13          	srli	t3,t4,0x10
200058bc:	026882b3          	mul	t0,a7,t1
200058c0:	032888b3          	mul	a7,a7,s2
200058c4:	00f888b3          	add	a7,a7,a5
200058c8:	011e08b3          	add	a7,t3,a7
200058cc:	00f8f663          	bgeu	a7,a5,200058d8 <__muldf3+0x398>
200058d0:	000107b7          	lui	a5,0x10
200058d4:	00f282b3          	add	t0,t0,a5
200058d8:	032407b3          	mul	a5,s0,s2
200058dc:	010e9e93          	slli	t4,t4,0x10
200058e0:	0108de13          	srli	t3,a7,0x10
200058e4:	010ede93          	srli	t4,t4,0x10
200058e8:	01089893          	slli	a7,a7,0x10
200058ec:	01d888b3          	add	a7,a7,t4
200058f0:	005e0e33          	add	t3,t3,t0
200058f4:	02830433          	mul	s0,t1,s0
200058f8:	0107de93          	srli	t4,a5,0x10
200058fc:	02660333          	mul	t1,a2,t1
20005900:	03260633          	mul	a2,a2,s2
20005904:	00860633          	add	a2,a2,s0
20005908:	00ce8eb3          	add	t4,t4,a2
2000590c:	008ef663          	bgeu	t4,s0,20005918 <__muldf3+0x3d8>
20005910:	00010637          	lui	a2,0x10
20005914:	00c30333          	add	t1,t1,a2
20005918:	01079793          	slli	a5,a5,0x10
2000591c:	010e9613          	slli	a2,t4,0x10
20005920:	0107d793          	srli	a5,a5,0x10
20005924:	01f70733          	add	a4,a4,t6
20005928:	00f60633          	add	a2,a2,a5
2000592c:	01e60f33          	add	t5,a2,t5
20005930:	00d737b3          	sltu	a5,a4,a3
20005934:	00ff07b3          	add	a5,t5,a5
20005938:	011708b3          	add	a7,a4,a7
2000593c:	01c78e33          	add	t3,a5,t3
20005940:	00e8b6b3          	sltu	a3,a7,a4
20005944:	00de06b3          	add	a3,t3,a3
20005948:	00cf3633          	sltu	a2,t5,a2
2000594c:	01e7bf33          	sltu	t5,a5,t5
20005950:	00fe3733          	sltu	a4,t3,a5
20005954:	01e66633          	or	a2,a2,t5
20005958:	01c6be33          	sltu	t3,a3,t3
2000595c:	010ede93          	srli	t4,t4,0x10
20005960:	00989793          	slli	a5,a7,0x9
20005964:	01d60633          	add	a2,a2,t4
20005968:	01c76733          	or	a4,a4,t3
2000596c:	00c70733          	add	a4,a4,a2
20005970:	00a7e7b3          	or	a5,a5,a0
20005974:	00670733          	add	a4,a4,t1
20005978:	00f037b3          	snez	a5,a5
2000597c:	0178d893          	srli	a7,a7,0x17
20005980:	00971713          	slli	a4,a4,0x9
20005984:	0176d413          	srli	s0,a3,0x17
20005988:	0117e7b3          	or	a5,a5,a7
2000598c:	00969693          	slli	a3,a3,0x9
20005990:	00d7e7b3          	or	a5,a5,a3
20005994:	00771693          	slli	a3,a4,0x7
20005998:	00876433          	or	s0,a4,s0
2000599c:	0606d263          	bgez	a3,20005a00 <__muldf3+0x4c0>
200059a0:	0017d713          	srli	a4,a5,0x1
200059a4:	0017f793          	andi	a5,a5,1
200059a8:	00f76733          	or	a4,a4,a5
200059ac:	01f41793          	slli	a5,s0,0x1f
200059b0:	00f767b3          	or	a5,a4,a5
200059b4:	00145413          	srli	s0,s0,0x1
200059b8:	3ff80693          	addi	a3,a6,1023 # 8003ff <_start-0x1f7ffc01>
200059bc:	12d05263          	blez	a3,20005ae0 <__muldf3+0x5a0>
200059c0:	0077f713          	andi	a4,a5,7
200059c4:	04070a63          	beqz	a4,20005a18 <__muldf3+0x4d8>
200059c8:	00200713          	li	a4,2
200059cc:	0019e993          	ori	s3,s3,1
200059d0:	04e48263          	beq	s1,a4,20005a14 <__muldf3+0x4d4>
200059d4:	00300713          	li	a4,3
200059d8:	02e48863          	beq	s1,a4,20005a08 <__muldf3+0x4c8>
200059dc:	02049e63          	bnez	s1,20005a18 <__muldf3+0x4d8>
200059e0:	00f7f713          	andi	a4,a5,15
200059e4:	00400613          	li	a2,4
200059e8:	02c70863          	beq	a4,a2,20005a18 <__muldf3+0x4d8>
200059ec:	00c78733          	add	a4,a5,a2
200059f0:	00f73633          	sltu	a2,a4,a5
200059f4:	00c40433          	add	s0,s0,a2
200059f8:	00070793          	mv	a5,a4
200059fc:	01c0006f          	j	20005a18 <__muldf3+0x4d8>
20005a00:	000b8813          	mv	a6,s7
20005a04:	fb5ff06f          	j	200059b8 <__muldf3+0x478>
20005a08:	00059863          	bnez	a1,20005a18 <__muldf3+0x4d8>
20005a0c:	00878713          	addi	a4,a5,8 # 10008 <_start-0x1ffefff8>
20005a10:	fe1ff06f          	j	200059f0 <__muldf3+0x4b0>
20005a14:	fe059ce3          	bnez	a1,20005a0c <__muldf3+0x4cc>
20005a18:	00741713          	slli	a4,s0,0x7
20005a1c:	00075a63          	bgez	a4,20005a30 <__muldf3+0x4f0>
20005a20:	ff000737          	lui	a4,0xff000
20005a24:	fff70713          	addi	a4,a4,-1 # feffffff <__stack_top+0xdeff5e3b>
20005a28:	00e47433          	and	s0,s0,a4
20005a2c:	40080693          	addi	a3,a6,1024
20005a30:	7fe00713          	li	a4,2046
20005a34:	06d74663          	blt	a4,a3,20005aa0 <__muldf3+0x560>
20005a38:	0037d793          	srli	a5,a5,0x3
20005a3c:	01d41513          	slli	a0,s0,0x1d
20005a40:	00f56533          	or	a0,a0,a5
20005a44:	00345713          	srli	a4,s0,0x3
20005a48:	00c71713          	slli	a4,a4,0xc
20005a4c:	01469693          	slli	a3,a3,0x14
20005a50:	00c75713          	srli	a4,a4,0xc
20005a54:	01f59593          	slli	a1,a1,0x1f
20005a58:	00e6e6b3          	or	a3,a3,a4
20005a5c:	00b6e7b3          	or	a5,a3,a1
20005a60:	00078593          	mv	a1,a5
20005a64:	00098463          	beqz	s3,20005a6c <__muldf3+0x52c>
20005a68:	0019a073          	csrs	fflags,s3
20005a6c:	02c12083          	lw	ra,44(sp)
20005a70:	02812403          	lw	s0,40(sp)
20005a74:	02412483          	lw	s1,36(sp)
20005a78:	02012903          	lw	s2,32(sp)
20005a7c:	01c12983          	lw	s3,28(sp)
20005a80:	01812a03          	lw	s4,24(sp)
20005a84:	01412a83          	lw	s5,20(sp)
20005a88:	01012b03          	lw	s6,16(sp)
20005a8c:	00c12b83          	lw	s7,12(sp)
20005a90:	00812c03          	lw	s8,8(sp)
20005a94:	00412c83          	lw	s9,4(sp)
20005a98:	03010113          	addi	sp,sp,48
20005a9c:	00008067          	ret
20005aa0:	00200793          	li	a5,2
20005aa4:	02f48a63          	beq	s1,a5,20005ad8 <__muldf3+0x598>
20005aa8:	00300793          	li	a5,3
20005aac:	00f48a63          	beq	s1,a5,20005ac0 <__muldf3+0x580>
20005ab0:	00049a63          	bnez	s1,20005ac4 <__muldf3+0x584>
20005ab4:	00000513          	li	a0,0
20005ab8:	7ff00693          	li	a3,2047
20005abc:	0100006f          	j	20005acc <__muldf3+0x58c>
20005ac0:	fe058ae3          	beqz	a1,20005ab4 <__muldf3+0x574>
20005ac4:	fff00513          	li	a0,-1
20005ac8:	00070693          	mv	a3,a4
20005acc:	0059e993          	ori	s3,s3,5
20005ad0:	00050713          	mv	a4,a0
20005ad4:	f75ff06f          	j	20005a48 <__muldf3+0x508>
20005ad8:	fc059ee3          	bnez	a1,20005ab4 <__muldf3+0x574>
20005adc:	fe9ff06f          	j	20005ac4 <__muldf3+0x584>
20005ae0:	0c069263          	bnez	a3,20005ba4 <__muldf3+0x664>
20005ae4:	0077f693          	andi	a3,a5,7
20005ae8:	00040713          	mv	a4,s0
20005aec:	04068463          	beqz	a3,20005b34 <__muldf3+0x5f4>
20005af0:	00200693          	li	a3,2
20005af4:	0019e993          	ori	s3,s3,1
20005af8:	02d48c63          	beq	s1,a3,20005b30 <__muldf3+0x5f0>
20005afc:	00300693          	li	a3,3
20005b00:	02d48263          	beq	s1,a3,20005b24 <__muldf3+0x5e4>
20005b04:	02049863          	bnez	s1,20005b34 <__muldf3+0x5f4>
20005b08:	00f7f693          	andi	a3,a5,15
20005b0c:	00400613          	li	a2,4
20005b10:	02c68263          	beq	a3,a2,20005b34 <__muldf3+0x5f4>
20005b14:	ffc7b713          	sltiu	a4,a5,-4
20005b18:	00173713          	seqz	a4,a4
20005b1c:	00870733          	add	a4,a4,s0
20005b20:	0140006f          	j	20005b34 <__muldf3+0x5f4>
20005b24:	00059863          	bnez	a1,20005b34 <__muldf3+0x5f4>
20005b28:	ff87b713          	sltiu	a4,a5,-8
20005b2c:	fedff06f          	j	20005b18 <__muldf3+0x5d8>
20005b30:	fe059ce3          	bnez	a1,20005b28 <__muldf3+0x5e8>
20005b34:	01875613          	srli	a2,a4,0x18
20005b38:	00167613          	andi	a2,a2,1
20005b3c:	00164613          	xori	a2,a2,1
20005b40:	00100713          	li	a4,1
20005b44:	41e80813          	addi	a6,a6,1054
20005b48:	00e7d6b3          	srl	a3,a5,a4
20005b4c:	010797b3          	sll	a5,a5,a6
20005b50:	00f037b3          	snez	a5,a5
20005b54:	01041833          	sll	a6,s0,a6
20005b58:	0107e7b3          	or	a5,a5,a6
20005b5c:	00f6e7b3          	or	a5,a3,a5
20005b60:	00e45733          	srl	a4,s0,a4
20005b64:	0077f693          	andi	a3,a5,7
20005b68:	08068e63          	beqz	a3,20005c04 <__muldf3+0x6c4>
20005b6c:	00200693          	li	a3,2
20005b70:	0019e993          	ori	s3,s3,1
20005b74:	08d48663          	beq	s1,a3,20005c00 <__muldf3+0x6c0>
20005b78:	00300693          	li	a3,3
20005b7c:	06d48c63          	beq	s1,a3,20005bf4 <__muldf3+0x6b4>
20005b80:	08049263          	bnez	s1,20005c04 <__muldf3+0x6c4>
20005b84:	00f7f693          	andi	a3,a5,15
20005b88:	00400513          	li	a0,4
20005b8c:	06a68c63          	beq	a3,a0,20005c04 <__muldf3+0x6c4>
20005b90:	00a786b3          	add	a3,a5,a0
20005b94:	00f6b533          	sltu	a0,a3,a5
20005b98:	00a70733          	add	a4,a4,a0
20005b9c:	00068793          	mv	a5,a3
20005ba0:	0640006f          	j	20005c04 <__muldf3+0x6c4>
20005ba4:	fc900713          	li	a4,-55
20005ba8:	0ae6c063          	blt	a3,a4,20005c48 <__muldf3+0x708>
20005bac:	fe200713          	li	a4,-30
20005bb0:	00e6c863          	blt	a3,a4,20005bc0 <__muldf3+0x680>
20005bb4:	00100613          	li	a2,1
20005bb8:	40d60733          	sub	a4,a2,a3
20005bbc:	f89ff06f          	j	20005b44 <__muldf3+0x604>
20005bc0:	fe100513          	li	a0,-31
20005bc4:	40d50733          	sub	a4,a0,a3
20005bc8:	00e45733          	srl	a4,s0,a4
20005bcc:	00000613          	li	a2,0
20005bd0:	00a68663          	beq	a3,a0,20005bdc <__muldf3+0x69c>
20005bd4:	43e80813          	addi	a6,a6,1086
20005bd8:	01041633          	sll	a2,s0,a6
20005bdc:	00c7e633          	or	a2,a5,a2
20005be0:	00c03633          	snez	a2,a2
20005be4:	00c767b3          	or	a5,a4,a2
20005be8:	00100613          	li	a2,1
20005bec:	00000713          	li	a4,0
20005bf0:	f75ff06f          	j	20005b64 <__muldf3+0x624>
20005bf4:	00059863          	bnez	a1,20005c04 <__muldf3+0x6c4>
20005bf8:	00878693          	addi	a3,a5,8
20005bfc:	f99ff06f          	j	20005b94 <__muldf3+0x654>
20005c00:	fe059ce3          	bnez	a1,20005bf8 <__muldf3+0x6b8>
20005c04:	00871693          	slli	a3,a4,0x8
20005c08:	0206d463          	bgez	a3,20005c30 <__muldf3+0x6f0>
20005c0c:	0019e993          	ori	s3,s3,1
20005c10:	00000713          	li	a4,0
20005c14:	00000513          	li	a0,0
20005c18:	00100693          	li	a3,1
20005c1c:	e20606e3          	beqz	a2,20005a48 <__muldf3+0x508>
20005c20:	0019f793          	andi	a5,s3,1
20005c24:	00179793          	slli	a5,a5,0x1
20005c28:	00f9e9b3          	or	s3,s3,a5
20005c2c:	e1dff06f          	j	20005a48 <__muldf3+0x508>
20005c30:	01d71513          	slli	a0,a4,0x1d
20005c34:	0037d793          	srli	a5,a5,0x3
20005c38:	00f56533          	or	a0,a0,a5
20005c3c:	00375713          	srli	a4,a4,0x3
20005c40:	00000693          	li	a3,0
20005c44:	fd9ff06f          	j	20005c1c <__muldf3+0x6dc>
20005c48:	00f46533          	or	a0,s0,a5
20005c4c:	02050663          	beqz	a0,20005c78 <__muldf3+0x738>
20005c50:	00200793          	li	a5,2
20005c54:	0019e993          	ori	s3,s3,1
20005c58:	04f48063          	beq	s1,a5,20005c98 <__muldf3+0x758>
20005c5c:	00300793          	li	a5,3
20005c60:	02f48463          	beq	s1,a5,20005c88 <__muldf3+0x748>
20005c64:	009034b3          	snez	s1,s1
20005c68:	409004b3          	neg	s1,s1
20005c6c:	ffc4f493          	andi	s1,s1,-4
20005c70:	00548493          	addi	s1,s1,5
20005c74:	0034d513          	srli	a0,s1,0x3
20005c78:	0029e993          	ori	s3,s3,2
20005c7c:	00000713          	li	a4,0
20005c80:	00000693          	li	a3,0
20005c84:	dc5ff06f          	j	20005a48 <__muldf3+0x508>
20005c88:	fff58493          	addi	s1,a1,-1
20005c8c:	0084f493          	andi	s1,s1,8
20005c90:	00148493          	addi	s1,s1,1
20005c94:	fe1ff06f          	j	20005c74 <__muldf3+0x734>
20005c98:	00359493          	slli	s1,a1,0x3
20005c9c:	ff5ff06f          	j	20005c90 <__muldf3+0x750>
20005ca0:	00080737          	lui	a4,0x80
20005ca4:	7ff00693          	li	a3,2047
20005ca8:	00000593          	li	a1,0
20005cac:	01000993          	li	s3,16
20005cb0:	d99ff06f          	j	20005a48 <__muldf3+0x508>
20005cb4:	00000713          	li	a4,0
20005cb8:	00000513          	li	a0,0
20005cbc:	7ff00693          	li	a3,2047
20005cc0:	d89ff06f          	j	20005a48 <__muldf3+0x508>
20005cc4:	00080737          	lui	a4,0x80
20005cc8:	00000513          	li	a0,0
20005ccc:	7ff00693          	li	a3,2047
20005cd0:	00000593          	li	a1,0
20005cd4:	d75ff06f          	j	20005a48 <__muldf3+0x508>

20005cd8 <__subdf3>:
20005cd8:	fe010113          	addi	sp,sp,-32
20005cdc:	00112e23          	sw	ra,28(sp)
20005ce0:	00812c23          	sw	s0,24(sp)
20005ce4:	00912a23          	sw	s1,20(sp)
20005ce8:	01212823          	sw	s2,16(sp)
20005cec:	01312623          	sw	s3,12(sp)
20005cf0:	01412423          	sw	s4,8(sp)
20005cf4:	00202973          	frrm	s2
20005cf8:	00100737          	lui	a4,0x100
20005cfc:	fff70713          	addi	a4,a4,-1 # fffff <_start-0x1ff00001>
20005d00:	00b777b3          	and	a5,a4,a1
20005d04:	0145d993          	srli	s3,a1,0x14
20005d08:	00d77733          	and	a4,a4,a3
20005d0c:	01f5d493          	srli	s1,a1,0x1f
20005d10:	00379793          	slli	a5,a5,0x3
20005d14:	01d55593          	srli	a1,a0,0x1d
20005d18:	0146d893          	srli	a7,a3,0x14
20005d1c:	00371713          	slli	a4,a4,0x3
20005d20:	00f5e7b3          	or	a5,a1,a5
20005d24:	01d65593          	srli	a1,a2,0x1d
20005d28:	00e5e5b3          	or	a1,a1,a4
20005d2c:	7ff8f893          	andi	a7,a7,2047
20005d30:	7ff00713          	li	a4,2047
20005d34:	7ff9f993          	andi	s3,s3,2047
20005d38:	00351513          	slli	a0,a0,0x3
20005d3c:	01f6d693          	srli	a3,a3,0x1f
20005d40:	00361613          	slli	a2,a2,0x3
20005d44:	00e89663          	bne	a7,a4,20005d50 <__subdf3+0x78>
20005d48:	00c5e733          	or	a4,a1,a2
20005d4c:	00071463          	bnez	a4,20005d54 <__subdf3+0x7c>
20005d50:	0016c693          	xori	a3,a3,1
20005d54:	41198733          	sub	a4,s3,a7
20005d58:	7ff00813          	li	a6,2047
20005d5c:	46969863          	bne	a3,s1,200061cc <__subdf3+0x4f4>
20005d60:	14e05c63          	blez	a4,20005eb8 <__subdf3+0x1e0>
20005d64:	06089063          	bnez	a7,20005dc4 <__subdf3+0xec>
20005d68:	00c5e6b3          	or	a3,a1,a2
20005d6c:	00069a63          	bnez	a3,20005d80 <__subdf3+0xa8>
20005d70:	00050613          	mv	a2,a0
20005d74:	03070863          	beq	a4,a6,20005da4 <__subdf3+0xcc>
20005d78:	00000993          	li	s3,0
20005d7c:	28c0006f          	j	20006008 <__subdf3+0x330>
20005d80:	fff70693          	addi	a3,a4,-1
20005d84:	00069e63          	bnez	a3,20005da0 <__subdf3+0xc8>
20005d88:	00c50633          	add	a2,a0,a2
20005d8c:	00b785b3          	add	a1,a5,a1
20005d90:	00a63533          	sltu	a0,a2,a0
20005d94:	00a587b3          	add	a5,a1,a0
20005d98:	00100713          	li	a4,1
20005d9c:	0a40006f          	j	20005e40 <__subdf3+0x168>
20005da0:	05071c63          	bne	a4,a6,20005df8 <__subdf3+0x120>
20005da4:	00a7e633          	or	a2,a5,a0
20005da8:	040606e3          	beqz	a2,200065f4 <__subdf3+0x91c>
20005dac:	0167d993          	srli	s3,a5,0x16
20005db0:	0019f993          	andi	s3,s3,1
20005db4:	0019c993          	xori	s3,s3,1
20005db8:	00499993          	slli	s3,s3,0x4
20005dbc:	00050613          	mv	a2,a0
20005dc0:	2480006f          	j	20006008 <__subdf3+0x330>
20005dc4:	03099463          	bne	s3,a6,20005dec <__subdf3+0x114>
20005dc8:	00a7e633          	or	a2,a5,a0
20005dcc:	180604e3          	beqz	a2,20006754 <__subdf3+0xa7c>
20005dd0:	0167d693          	srli	a3,a5,0x16
20005dd4:	0016f693          	andi	a3,a3,1
20005dd8:	0016c693          	xori	a3,a3,1
20005ddc:	00098713          	mv	a4,s3
20005de0:	00050613          	mv	a2,a0
20005de4:	00469993          	slli	s3,a3,0x4
20005de8:	2200006f          	j	20006008 <__subdf3+0x330>
20005dec:	008006b7          	lui	a3,0x800
20005df0:	00d5e5b3          	or	a1,a1,a3
20005df4:	00070693          	mv	a3,a4
20005df8:	03800713          	li	a4,56
20005dfc:	0ad74863          	blt	a4,a3,20005eac <__subdf3+0x1d4>
20005e00:	01f00713          	li	a4,31
20005e04:	02000893          	li	a7,32
20005e08:	06d74a63          	blt	a4,a3,20005e7c <__subdf3+0x1a4>
20005e0c:	40d888b3          	sub	a7,a7,a3
20005e10:	01159733          	sll	a4,a1,a7
20005e14:	00d65833          	srl	a6,a2,a3
20005e18:	011618b3          	sll	a7,a2,a7
20005e1c:	01076733          	or	a4,a4,a6
20005e20:	011038b3          	snez	a7,a7
20005e24:	01176733          	or	a4,a4,a7
20005e28:	00d5d6b3          	srl	a3,a1,a3
20005e2c:	00a70633          	add	a2,a4,a0
20005e30:	00e63733          	sltu	a4,a2,a4
20005e34:	00f686b3          	add	a3,a3,a5
20005e38:	00e687b3          	add	a5,a3,a4
20005e3c:	00098713          	mv	a4,s3
20005e40:	00879693          	slli	a3,a5,0x8
20005e44:	2a06dc63          	bgez	a3,200060fc <__subdf3+0x424>
20005e48:	00170713          	addi	a4,a4,1
20005e4c:	7ff00693          	li	a3,2047
20005e50:	32d70c63          	beq	a4,a3,20006188 <__subdf3+0x4b0>
20005e54:	ff8006b7          	lui	a3,0xff800
20005e58:	fff68693          	addi	a3,a3,-1 # ff7fffff <__stack_top+0xdf7f5e3b>
20005e5c:	00d7f7b3          	and	a5,a5,a3
20005e60:	00165693          	srli	a3,a2,0x1
20005e64:	00167613          	andi	a2,a2,1
20005e68:	00c6e6b3          	or	a3,a3,a2
20005e6c:	01f79613          	slli	a2,a5,0x1f
20005e70:	00d66633          	or	a2,a2,a3
20005e74:	0017d793          	srli	a5,a5,0x1
20005e78:	2840006f          	j	200060fc <__subdf3+0x424>
20005e7c:	fe068713          	addi	a4,a3,-32
20005e80:	00e5d733          	srl	a4,a1,a4
20005e84:	00000813          	li	a6,0
20005e88:	01168863          	beq	a3,a7,20005e98 <__subdf3+0x1c0>
20005e8c:	04000813          	li	a6,64
20005e90:	40d80833          	sub	a6,a6,a3
20005e94:	01059833          	sll	a6,a1,a6
20005e98:	00c86833          	or	a6,a6,a2
20005e9c:	01003833          	snez	a6,a6
20005ea0:	01076733          	or	a4,a4,a6
20005ea4:	00000693          	li	a3,0
20005ea8:	f85ff06f          	j	20005e2c <__subdf3+0x154>
20005eac:	00c5e733          	or	a4,a1,a2
20005eb0:	00e03733          	snez	a4,a4
20005eb4:	ff1ff06f          	j	20005ea4 <__subdf3+0x1cc>
20005eb8:	10070463          	beqz	a4,20005fc0 <__subdf3+0x2e8>
20005ebc:	41388733          	sub	a4,a7,s3
20005ec0:	04099463          	bnez	s3,20005f08 <__subdf3+0x230>
20005ec4:	00a7e6b3          	or	a3,a5,a0
20005ec8:	02069663          	bnez	a3,20005ef4 <__subdf3+0x21c>
20005ecc:	00058793          	mv	a5,a1
20005ed0:	13071c63          	bne	a4,a6,20006008 <__subdf3+0x330>
20005ed4:	00c5e7b3          	or	a5,a1,a2
20005ed8:	52078863          	beqz	a5,20006408 <__subdf3+0x730>
20005edc:	0165d993          	srli	s3,a1,0x16
20005ee0:	0019f993          	andi	s3,s3,1
20005ee4:	0019c993          	xori	s3,s3,1
20005ee8:	00499993          	slli	s3,s3,0x4
20005eec:	00058793          	mv	a5,a1
20005ef0:	1180006f          	j	20006008 <__subdf3+0x330>
20005ef4:	fff70693          	addi	a3,a4,-1
20005ef8:	e80688e3          	beqz	a3,20005d88 <__subdf3+0xb0>
20005efc:	03071e63          	bne	a4,a6,20005f38 <__subdf3+0x260>
20005f00:	00c5e7b3          	or	a5,a1,a2
20005f04:	fd5ff06f          	j	20005ed8 <__subdf3+0x200>
20005f08:	03089263          	bne	a7,a6,20005f2c <__subdf3+0x254>
20005f0c:	00c5e7b3          	or	a5,a1,a2
20005f10:	04078ee3          	beqz	a5,2000676c <__subdf3+0xa94>
20005f14:	0165d993          	srli	s3,a1,0x16
20005f18:	0019f993          	andi	s3,s3,1
20005f1c:	0019c993          	xori	s3,s3,1
20005f20:	00499993          	slli	s3,s3,0x4
20005f24:	00058793          	mv	a5,a1
20005f28:	1a80006f          	j	200060d0 <__subdf3+0x3f8>
20005f2c:	008006b7          	lui	a3,0x800
20005f30:	00d7e7b3          	or	a5,a5,a3
20005f34:	00070693          	mv	a3,a4
20005f38:	03800713          	li	a4,56
20005f3c:	06d74c63          	blt	a4,a3,20005fb4 <__subdf3+0x2dc>
20005f40:	01f00713          	li	a4,31
20005f44:	02000313          	li	t1,32
20005f48:	02d74e63          	blt	a4,a3,20005f84 <__subdf3+0x2ac>
20005f4c:	40d30333          	sub	t1,t1,a3
20005f50:	00679733          	sll	a4,a5,t1
20005f54:	00d55833          	srl	a6,a0,a3
20005f58:	00651333          	sll	t1,a0,t1
20005f5c:	01076733          	or	a4,a4,a6
20005f60:	00603333          	snez	t1,t1
20005f64:	00676733          	or	a4,a4,t1
20005f68:	00d7d6b3          	srl	a3,a5,a3
20005f6c:	00c70633          	add	a2,a4,a2
20005f70:	00e63733          	sltu	a4,a2,a4
20005f74:	00b686b3          	add	a3,a3,a1
20005f78:	00e687b3          	add	a5,a3,a4
20005f7c:	00088713          	mv	a4,a7
20005f80:	ec1ff06f          	j	20005e40 <__subdf3+0x168>
20005f84:	fe068713          	addi	a4,a3,-32 # 7fffe0 <_start-0x1f800020>
20005f88:	00e7d733          	srl	a4,a5,a4
20005f8c:	00000813          	li	a6,0
20005f90:	00668863          	beq	a3,t1,20005fa0 <__subdf3+0x2c8>
20005f94:	04000813          	li	a6,64
20005f98:	40d80833          	sub	a6,a6,a3
20005f9c:	01079833          	sll	a6,a5,a6
20005fa0:	00a86833          	or	a6,a6,a0
20005fa4:	01003833          	snez	a6,a6
20005fa8:	01076733          	or	a4,a4,a6
20005fac:	00000693          	li	a3,0
20005fb0:	fbdff06f          	j	20005f6c <__subdf3+0x294>
20005fb4:	00a7e733          	or	a4,a5,a0
20005fb8:	00e03733          	snez	a4,a4
20005fbc:	ff1ff06f          	j	20005fac <__subdf3+0x2d4>
20005fc0:	00198713          	addi	a4,s3,1 # 80001 <_start-0x1ff7ffff>
20005fc4:	7fe77693          	andi	a3,a4,2046
20005fc8:	10069863          	bnez	a3,200060d8 <__subdf3+0x400>
20005fcc:	00a7e733          	or	a4,a5,a0
20005fd0:	0a099863          	bnez	s3,20006080 <__subdf3+0x3a8>
20005fd4:	68070863          	beqz	a4,20006664 <__subdf3+0x98c>
20005fd8:	00c5e733          	or	a4,a1,a2
20005fdc:	68070c63          	beqz	a4,20006674 <__subdf3+0x99c>
20005fe0:	00c50633          	add	a2,a0,a2
20005fe4:	00b785b3          	add	a1,a5,a1
20005fe8:	00a63533          	sltu	a0,a2,a0
20005fec:	00a587b3          	add	a5,a1,a0
20005ff0:	00879713          	slli	a4,a5,0x8
20005ff4:	56075a63          	bgez	a4,20006568 <__subdf3+0x890>
20005ff8:	ff800737          	lui	a4,0xff800
20005ffc:	fff70713          	addi	a4,a4,-1 # ff7fffff <__stack_top+0xdf7f5e3b>
20006000:	00e7f7b3          	and	a5,a5,a4
20006004:	00100713          	li	a4,1
20006008:	01d79693          	slli	a3,a5,0x1d
2000600c:	00365613          	srli	a2,a2,0x3
20006010:	00c6e633          	or	a2,a3,a2
20006014:	7ff00693          	li	a3,2047
20006018:	0037d793          	srli	a5,a5,0x3
2000601c:	00d71e63          	bne	a4,a3,20006038 <__subdf3+0x360>
20006020:	00f66633          	or	a2,a2,a5
20006024:	00000793          	li	a5,0
20006028:	00060863          	beqz	a2,20006038 <__subdf3+0x360>
2000602c:	000807b7          	lui	a5,0x80
20006030:	00000613          	li	a2,0
20006034:	00000493          	li	s1,0
20006038:	7ff77713          	andi	a4,a4,2047
2000603c:	00c79793          	slli	a5,a5,0xc
20006040:	01471713          	slli	a4,a4,0x14
20006044:	00c7d793          	srli	a5,a5,0xc
20006048:	00f76733          	or	a4,a4,a5
2000604c:	01f49493          	slli	s1,s1,0x1f
20006050:	00060513          	mv	a0,a2
20006054:	009765b3          	or	a1,a4,s1
20006058:	00098463          	beqz	s3,20006060 <__subdf3+0x388>
2000605c:	0019a073          	csrs	fflags,s3
20006060:	01c12083          	lw	ra,28(sp)
20006064:	01812403          	lw	s0,24(sp)
20006068:	01412483          	lw	s1,20(sp)
2000606c:	01012903          	lw	s2,16(sp)
20006070:	00c12983          	lw	s3,12(sp)
20006074:	00812a03          	lw	s4,8(sp)
20006078:	02010113          	addi	sp,sp,32
2000607c:	00008067          	ret
20006080:	03099a63          	bne	s3,a6,200060b4 <__subdf3+0x3dc>
20006084:	02070863          	beqz	a4,200060b4 <__subdf3+0x3dc>
20006088:	0167d993          	srli	s3,a5,0x16
2000608c:	0019f993          	andi	s3,s3,1
20006090:	0019c993          	xori	s3,s3,1
20006094:	00499993          	slli	s3,s3,0x4
20006098:	03089663          	bne	a7,a6,200060c4 <__subdf3+0x3ec>
2000609c:	00c5e6b3          	or	a3,a1,a2
200060a0:	02068063          	beqz	a3,200060c0 <__subdf3+0x3e8>
200060a4:	00959693          	slli	a3,a1,0x9
200060a8:	0006cc63          	bltz	a3,200060c0 <__subdf3+0x3e8>
200060ac:	01000993          	li	s3,16
200060b0:	0100006f          	j	200060c0 <__subdf3+0x3e8>
200060b4:	7ff00693          	li	a3,2047
200060b8:	00000993          	li	s3,0
200060bc:	fed880e3          	beq	a7,a3,2000609c <__subdf3+0x3c4>
200060c0:	e60702e3          	beqz	a4,20005f24 <__subdf3+0x24c>
200060c4:	00c5e5b3          	or	a1,a1,a2
200060c8:	40059063          	bnez	a1,200064c8 <__subdf3+0x7f0>
200060cc:	00050613          	mv	a2,a0
200060d0:	7ff00713          	li	a4,2047
200060d4:	f35ff06f          	j	20006008 <__subdf3+0x330>
200060d8:	03070863          	beq	a4,a6,20006108 <__subdf3+0x430>
200060dc:	00c50633          	add	a2,a0,a2
200060e0:	00b785b3          	add	a1,a5,a1
200060e4:	00a63533          	sltu	a0,a2,a0
200060e8:	00a585b3          	add	a1,a1,a0
200060ec:	01f59793          	slli	a5,a1,0x1f
200060f0:	00165613          	srli	a2,a2,0x1
200060f4:	00c7e633          	or	a2,a5,a2
200060f8:	0015d793          	srli	a5,a1,0x1
200060fc:	00000693          	li	a3,0
20006100:	00000993          	li	s3,0
20006104:	4c80006f          	j	200065cc <__subdf3+0x8f4>
20006108:	62090e63          	beqz	s2,20006744 <__subdf3+0xa6c>
2000610c:	00300793          	li	a5,3
20006110:	08f91a63          	bne	s2,a5,200061a4 <__subdf3+0x4cc>
20006114:	62048863          	beqz	s1,20006744 <__subdf3+0xa6c>
20006118:	00000693          	li	a3,0
2000611c:	fff00793          	li	a5,-1
20006120:	7fe00713          	li	a4,2046
20006124:	00078613          	mv	a2,a5
20006128:	00500993          	li	s3,5
2000612c:	00300593          	li	a1,3
20006130:	58b90863          	beq	s2,a1,200066c0 <__subdf3+0x9e8>
20006134:	02091063          	bnez	s2,20006154 <__subdf3+0x47c>
20006138:	00f67593          	andi	a1,a2,15
2000613c:	00400513          	li	a0,4
20006140:	00a58a63          	beq	a1,a0,20006154 <__subdf3+0x47c>
20006144:	00a605b3          	add	a1,a2,a0
20006148:	00c5b533          	sltu	a0,a1,a2
2000614c:	00a787b3          	add	a5,a5,a0
20006150:	00058613          	mv	a2,a1
20006154:	00068863          	beqz	a3,20006164 <__subdf3+0x48c>
20006158:	0019f693          	andi	a3,s3,1
2000615c:	00169693          	slli	a3,a3,0x1
20006160:	00d9e9b3          	or	s3,s3,a3
20006164:	00879693          	slli	a3,a5,0x8
20006168:	ea06d0e3          	bgez	a3,20006008 <__subdf3+0x330>
2000616c:	00170713          	addi	a4,a4,1
20006170:	7ff00693          	li	a3,2047
20006174:	58d70a63          	beq	a4,a3,20006708 <__subdf3+0xa30>
20006178:	ff8006b7          	lui	a3,0xff800
2000617c:	fff68693          	addi	a3,a3,-1 # ff7fffff <__stack_top+0xdf7f5e3b>
20006180:	00d7f7b3          	and	a5,a5,a3
20006184:	e85ff06f          	j	20006008 <__subdf3+0x330>
20006188:	5a090e63          	beqz	s2,20006744 <__subdf3+0xa6c>
2000618c:	00300793          	li	a5,3
20006190:	00f91a63          	bne	s2,a5,200061a4 <__subdf3+0x4cc>
20006194:	5a048863          	beqz	s1,20006744 <__subdf3+0xa6c>
20006198:	fff00793          	li	a5,-1
2000619c:	00000693          	li	a3,0
200061a0:	f81ff06f          	j	20006120 <__subdf3+0x448>
200061a4:	00200793          	li	a5,2
200061a8:	54f91663          	bne	s2,a5,200066f4 <__subdf3+0xa1c>
200061ac:	58049c63          	bnez	s1,20006744 <__subdf3+0xa6c>
200061b0:	fff00793          	li	a5,-1
200061b4:	7fe00713          	li	a4,2046
200061b8:	00078613          	mv	a2,a5
200061bc:	00500993          	li	s3,5
200061c0:	00048693          	mv	a3,s1
200061c4:	00000493          	li	s1,0
200061c8:	f8dff06f          	j	20006154 <__subdf3+0x47c>
200061cc:	0ee05663          	blez	a4,200062b8 <__subdf3+0x5e0>
200061d0:	08089c63          	bnez	a7,20006268 <__subdf3+0x590>
200061d4:	00c5e6b3          	or	a3,a1,a2
200061d8:	b8068ce3          	beqz	a3,20005d70 <__subdf3+0x98>
200061dc:	fff70693          	addi	a3,a4,-1
200061e0:	00069e63          	bnez	a3,200061fc <__subdf3+0x524>
200061e4:	40c50633          	sub	a2,a0,a2
200061e8:	40b785b3          	sub	a1,a5,a1
200061ec:	00c53533          	sltu	a0,a0,a2
200061f0:	40a587b3          	sub	a5,a1,a0
200061f4:	00100713          	li	a4,1
200061f8:	0500006f          	j	20006248 <__subdf3+0x570>
200061fc:	bb0704e3          	beq	a4,a6,20005da4 <__subdf3+0xcc>
20006200:	03800713          	li	a4,56
20006204:	0ad74463          	blt	a4,a3,200062ac <__subdf3+0x5d4>
20006208:	01f00713          	li	a4,31
2000620c:	02000893          	li	a7,32
20006210:	06d74663          	blt	a4,a3,2000627c <__subdf3+0x5a4>
20006214:	40d888b3          	sub	a7,a7,a3
20006218:	01159733          	sll	a4,a1,a7
2000621c:	00d65833          	srl	a6,a2,a3
20006220:	011618b3          	sll	a7,a2,a7
20006224:	01076733          	or	a4,a4,a6
20006228:	011038b3          	snez	a7,a7
2000622c:	01176733          	or	a4,a4,a7
20006230:	00d5d6b3          	srl	a3,a1,a3
20006234:	40e50633          	sub	a2,a0,a4
20006238:	40d786b3          	sub	a3,a5,a3
2000623c:	00c53533          	sltu	a0,a0,a2
20006240:	40a687b3          	sub	a5,a3,a0
20006244:	00098713          	mv	a4,s3
20006248:	00879693          	slli	a3,a5,0x8
2000624c:	ea06d8e3          	bgez	a3,200060fc <__subdf3+0x424>
20006250:	00800437          	lui	s0,0x800
20006254:	fff40413          	addi	s0,s0,-1 # 7fffff <_start-0x1f800001>
20006258:	0087f433          	and	s0,a5,s0
2000625c:	00060a13          	mv	s4,a2
20006260:	00070993          	mv	s3,a4
20006264:	2a40006f          	j	20006508 <__subdf3+0x830>
20006268:	b70980e3          	beq	s3,a6,20005dc8 <__subdf3+0xf0>
2000626c:	008006b7          	lui	a3,0x800
20006270:	00d5e5b3          	or	a1,a1,a3
20006274:	00070693          	mv	a3,a4
20006278:	f89ff06f          	j	20006200 <__subdf3+0x528>
2000627c:	fe068713          	addi	a4,a3,-32 # 7fffe0 <_start-0x1f800020>
20006280:	00e5d733          	srl	a4,a1,a4
20006284:	00000813          	li	a6,0
20006288:	01168863          	beq	a3,a7,20006298 <__subdf3+0x5c0>
2000628c:	04000813          	li	a6,64
20006290:	40d80833          	sub	a6,a6,a3
20006294:	01059833          	sll	a6,a1,a6
20006298:	00c86833          	or	a6,a6,a2
2000629c:	01003833          	snez	a6,a6
200062a0:	01076733          	or	a4,a4,a6
200062a4:	00000693          	li	a3,0
200062a8:	f8dff06f          	j	20006234 <__subdf3+0x55c>
200062ac:	00c5e733          	or	a4,a1,a2
200062b0:	00e03733          	snez	a4,a4
200062b4:	ff1ff06f          	j	200062a4 <__subdf3+0x5cc>
200062b8:	12070263          	beqz	a4,200063dc <__subdf3+0x704>
200062bc:	41388733          	sub	a4,a7,s3
200062c0:	0a099663          	bnez	s3,2000636c <__subdf3+0x694>
200062c4:	00a7e333          	or	t1,a5,a0
200062c8:	02031463          	bnez	t1,200062f0 <__subdf3+0x618>
200062cc:	01071e63          	bne	a4,a6,200062e8 <__subdf3+0x610>
200062d0:	00c5e7b3          	or	a5,a1,a2
200062d4:	48078663          	beqz	a5,20006760 <__subdf3+0xa88>
200062d8:	0165d993          	srli	s3,a1,0x16
200062dc:	0019f993          	andi	s3,s3,1
200062e0:	0019c993          	xori	s3,s3,1
200062e4:	00499993          	slli	s3,s3,0x4
200062e8:	00068493          	mv	s1,a3
200062ec:	c01ff06f          	j	20005eec <__subdf3+0x214>
200062f0:	fff70313          	addi	t1,a4,-1
200062f4:	02031063          	bnez	t1,20006314 <__subdf3+0x63c>
200062f8:	40a60533          	sub	a0,a2,a0
200062fc:	00a63733          	sltu	a4,a2,a0
20006300:	40f585b3          	sub	a1,a1,a5
20006304:	00050613          	mv	a2,a0
20006308:	40e587b3          	sub	a5,a1,a4
2000630c:	00068493          	mv	s1,a3
20006310:	ee5ff06f          	j	200061f4 <__subdf3+0x51c>
20006314:	fb070ee3          	beq	a4,a6,200062d0 <__subdf3+0x5f8>
20006318:	03800713          	li	a4,56
2000631c:	0a674a63          	blt	a4,t1,200063d0 <__subdf3+0x6f8>
20006320:	01f00713          	li	a4,31
20006324:	02000e13          	li	t3,32
20006328:	06674c63          	blt	a4,t1,200063a0 <__subdf3+0x6c8>
2000632c:	406e0e33          	sub	t3,t3,t1
20006330:	01c79733          	sll	a4,a5,t3
20006334:	00655833          	srl	a6,a0,t1
20006338:	01c51e33          	sll	t3,a0,t3
2000633c:	01076733          	or	a4,a4,a6
20006340:	01c03e33          	snez	t3,t3
20006344:	01c76733          	or	a4,a4,t3
20006348:	0067d333          	srl	t1,a5,t1
2000634c:	40e60733          	sub	a4,a2,a4
20006350:	00e637b3          	sltu	a5,a2,a4
20006354:	40658333          	sub	t1,a1,t1
20006358:	00070613          	mv	a2,a4
2000635c:	40f307b3          	sub	a5,t1,a5
20006360:	00088713          	mv	a4,a7
20006364:	00068493          	mv	s1,a3
20006368:	ee1ff06f          	j	20006248 <__subdf3+0x570>
2000636c:	03089263          	bne	a7,a6,20006390 <__subdf3+0x6b8>
20006370:	00c5e7b3          	or	a5,a1,a2
20006374:	3e078a63          	beqz	a5,20006768 <__subdf3+0xa90>
20006378:	0165d993          	srli	s3,a1,0x16
2000637c:	0019f993          	andi	s3,s3,1
20006380:	0019c993          	xori	s3,s3,1
20006384:	00499993          	slli	s3,s3,0x4
20006388:	00068493          	mv	s1,a3
2000638c:	b99ff06f          	j	20005f24 <__subdf3+0x24c>
20006390:	00800837          	lui	a6,0x800
20006394:	0107e7b3          	or	a5,a5,a6
20006398:	00070313          	mv	t1,a4
2000639c:	f7dff06f          	j	20006318 <__subdf3+0x640>
200063a0:	fe030713          	addi	a4,t1,-32
200063a4:	00e7d733          	srl	a4,a5,a4
200063a8:	00000813          	li	a6,0
200063ac:	01c30863          	beq	t1,t3,200063bc <__subdf3+0x6e4>
200063b0:	04000813          	li	a6,64
200063b4:	40680833          	sub	a6,a6,t1
200063b8:	01079833          	sll	a6,a5,a6
200063bc:	00a86833          	or	a6,a6,a0
200063c0:	01003833          	snez	a6,a6
200063c4:	01076733          	or	a4,a4,a6
200063c8:	00000313          	li	t1,0
200063cc:	f81ff06f          	j	2000634c <__subdf3+0x674>
200063d0:	00a7e733          	or	a4,a5,a0
200063d4:	00e03733          	snez	a4,a4
200063d8:	ff1ff06f          	j	200063c8 <__subdf3+0x6f0>
200063dc:	00198313          	addi	t1,s3,1
200063e0:	7fe37313          	andi	t1,t1,2046
200063e4:	0e031a63          	bnez	t1,200064d8 <__subdf3+0x800>
200063e8:	00c5e333          	or	t1,a1,a2
200063ec:	00a7ee33          	or	t3,a5,a0
200063f0:	06099863          	bnez	s3,20006460 <__subdf3+0x788>
200063f4:	000e1e63          	bnez	t3,20006410 <__subdf3+0x738>
200063f8:	26031a63          	bnez	t1,2000666c <__subdf3+0x994>
200063fc:	ffe90793          	addi	a5,s2,-2 # 7ffffe <_start-0x1f800002>
20006400:	0017b493          	seqz	s1,a5
20006404:	00000793          	li	a5,0
20006408:	00000613          	li	a2,0
2000640c:	bfdff06f          	j	20006008 <__subdf3+0x330>
20006410:	26030263          	beqz	t1,20006674 <__subdf3+0x99c>
20006414:	40c508b3          	sub	a7,a0,a2
20006418:	01153333          	sltu	t1,a0,a7
2000641c:	40b78833          	sub	a6,a5,a1
20006420:	40680833          	sub	a6,a6,t1
20006424:	00881313          	slli	t1,a6,0x8
20006428:	02035063          	bgez	t1,20006448 <__subdf3+0x770>
2000642c:	40a60533          	sub	a0,a2,a0
20006430:	00a63733          	sltu	a4,a2,a0
20006434:	40f585b3          	sub	a1,a1,a5
20006438:	00050613          	mv	a2,a0
2000643c:	40e587b3          	sub	a5,a1,a4
20006440:	00068493          	mv	s1,a3
20006444:	1240006f          	j	20006568 <__subdf3+0x890>
20006448:	0108e633          	or	a2,a7,a6
2000644c:	22061863          	bnez	a2,2000667c <__subdf3+0x9a4>
20006450:	ffe90793          	addi	a5,s2,-2
20006454:	0017b493          	seqz	s1,a5
20006458:	00000793          	li	a5,0
2000645c:	badff06f          	j	20006008 <__subdf3+0x330>
20006460:	03099a63          	bne	s3,a6,20006494 <__subdf3+0x7bc>
20006464:	320e0063          	beqz	t3,20006784 <__subdf3+0xaac>
20006468:	0167d993          	srli	s3,a5,0x16
2000646c:	0019f993          	andi	s3,s3,1
20006470:	0019c993          	xori	s3,s3,1
20006474:	00499993          	slli	s3,s3,0x4
20006478:	05089663          	bne	a7,a6,200064c4 <__subdf3+0x7ec>
2000647c:	02030063          	beqz	t1,2000649c <__subdf3+0x7c4>
20006480:	00959713          	slli	a4,a1,0x9
20006484:	00074c63          	bltz	a4,2000649c <__subdf3+0x7c4>
20006488:	01000993          	li	s3,16
2000648c:	ee0e0ee3          	beqz	t3,20006388 <__subdf3+0x6b0>
20006490:	0380006f          	j	200064c8 <__subdf3+0x7f0>
20006494:	00000993          	li	s3,0
20006498:	ff0882e3          	beq	a7,a6,2000647c <__subdf3+0x7a4>
2000649c:	020e1463          	bnez	t3,200064c4 <__subdf3+0x7ec>
200064a0:	ee0314e3          	bnez	t1,20006388 <__subdf3+0x6b0>
200064a4:	00000493          	li	s1,0
200064a8:	00000613          	li	a2,0
200064ac:	004007b7          	lui	a5,0x400
200064b0:	7ff00713          	li	a4,2047
200064b4:	01000993          	li	s3,16
200064b8:	b51ff06f          	j	20006008 <__subdf3+0x330>
200064bc:	00000993          	li	s3,0
200064c0:	fbdff06f          	j	2000647c <__subdf3+0x7a4>
200064c4:	c00304e3          	beqz	t1,200060cc <__subdf3+0x3f4>
200064c8:	00000493          	li	s1,0
200064cc:	004007b7          	lui	a5,0x400
200064d0:	00000613          	li	a2,0
200064d4:	bfdff06f          	j	200060d0 <__subdf3+0x3f8>
200064d8:	40c50833          	sub	a6,a0,a2
200064dc:	010538b3          	sltu	a7,a0,a6
200064e0:	40b78433          	sub	s0,a5,a1
200064e4:	41140433          	sub	s0,s0,a7
200064e8:	00841893          	slli	a7,s0,0x8
200064ec:	00080a13          	mv	s4,a6
200064f0:	0e08da63          	bgez	a7,200065e4 <__subdf3+0x90c>
200064f4:	40a60a33          	sub	s4,a2,a0
200064f8:	40f58433          	sub	s0,a1,a5
200064fc:	01463633          	sltu	a2,a2,s4
20006500:	40c40433          	sub	s0,s0,a2
20006504:	00068493          	mv	s1,a3
20006508:	0e040a63          	beqz	s0,200065fc <__subdf3+0x924>
2000650c:	00040513          	mv	a0,s0
20006510:	604000ef          	jal	20006b14 <__clzsi2>
20006514:	ff850713          	addi	a4,a0,-8
20006518:	02000793          	li	a5,32
2000651c:	40e787b3          	sub	a5,a5,a4
20006520:	00e41433          	sll	s0,s0,a4
20006524:	00fa57b3          	srl	a5,s4,a5
20006528:	0087e7b3          	or	a5,a5,s0
2000652c:	00ea1433          	sll	s0,s4,a4
20006530:	11374e63          	blt	a4,s3,2000664c <__subdf3+0x974>
20006534:	41370733          	sub	a4,a4,s3
20006538:	00170593          	addi	a1,a4,1
2000653c:	01f00613          	li	a2,31
20006540:	02000693          	li	a3,32
20006544:	0cb64c63          	blt	a2,a1,2000661c <__subdf3+0x944>
20006548:	40b686b3          	sub	a3,a3,a1
2000654c:	00d79633          	sll	a2,a5,a3
20006550:	00b45733          	srl	a4,s0,a1
20006554:	00d416b3          	sll	a3,s0,a3
20006558:	00e66633          	or	a2,a2,a4
2000655c:	00d036b3          	snez	a3,a3
20006560:	00d66633          	or	a2,a2,a3
20006564:	00b7d7b3          	srl	a5,a5,a1
20006568:	00c7e733          	or	a4,a5,a2
2000656c:	20070663          	beqz	a4,20006778 <__subdf3+0xaa0>
20006570:	01f65713          	srli	a4,a2,0x1f
20006574:	00179693          	slli	a3,a5,0x1
20006578:	00e686b3          	add	a3,a3,a4
2000657c:	00161713          	slli	a4,a2,0x1
20006580:	00777593          	andi	a1,a4,7
20006584:	00000993          	li	s3,0
20006588:	02058a63          	beqz	a1,200065bc <__subdf3+0x8e4>
2000658c:	00200593          	li	a1,2
20006590:	10b90a63          	beq	s2,a1,200066a4 <__subdf3+0x9cc>
20006594:	00300593          	li	a1,3
20006598:	0eb90863          	beq	s2,a1,20006688 <__subdf3+0x9b0>
2000659c:	00100993          	li	s3,1
200065a0:	00091e63          	bnez	s2,200065bc <__subdf3+0x8e4>
200065a4:	00f77593          	andi	a1,a4,15
200065a8:	00400513          	li	a0,4
200065ac:	00a58863          	beq	a1,a0,200065bc <__subdf3+0x8e4>
200065b0:	ffc73713          	sltiu	a4,a4,-4
200065b4:	00173713          	seqz	a4,a4
200065b8:	00e686b3          	add	a3,a3,a4
200065bc:	0186d693          	srli	a3,a3,0x18
200065c0:	0016f693          	andi	a3,a3,1
200065c4:	0016c693          	xori	a3,a3,1
200065c8:	00000713          	li	a4,0
200065cc:	00767593          	andi	a1,a2,7
200065d0:	b80582e3          	beqz	a1,20006154 <__subdf3+0x47c>
200065d4:	00200593          	li	a1,2
200065d8:	0eb90a63          	beq	s2,a1,200066cc <__subdf3+0x9f4>
200065dc:	00100993          	li	s3,1
200065e0:	b4dff06f          	j	2000612c <__subdf3+0x454>
200065e4:	00886633          	or	a2,a6,s0
200065e8:	f20610e3          	bnez	a2,20006508 <__subdf3+0x830>
200065ec:	ffe90793          	addi	a5,s2,-2
200065f0:	0017b493          	seqz	s1,a5
200065f4:	00000793          	li	a5,0
200065f8:	f80ff06f          	j	20005d78 <__subdf3+0xa0>
200065fc:	000a0513          	mv	a0,s4
20006600:	514000ef          	jal	20006b14 <__clzsi2>
20006604:	01850713          	addi	a4,a0,24
20006608:	01f00793          	li	a5,31
2000660c:	f0e7d6e3          	bge	a5,a4,20006518 <__subdf3+0x840>
20006610:	ff850793          	addi	a5,a0,-8
20006614:	00fa17b3          	sll	a5,s4,a5
20006618:	f19ff06f          	j	20006530 <__subdf3+0x858>
2000661c:	fe170713          	addi	a4,a4,-31
20006620:	00e7d733          	srl	a4,a5,a4
20006624:	00000613          	li	a2,0
20006628:	00d58863          	beq	a1,a3,20006638 <__subdf3+0x960>
2000662c:	04000613          	li	a2,64
20006630:	40b60633          	sub	a2,a2,a1
20006634:	00c79633          	sll	a2,a5,a2
20006638:	00c46633          	or	a2,s0,a2
2000663c:	00c03633          	snez	a2,a2
20006640:	00c76633          	or	a2,a4,a2
20006644:	00000793          	li	a5,0
20006648:	f21ff06f          	j	20006568 <__subdf3+0x890>
2000664c:	ff8006b7          	lui	a3,0xff800
20006650:	fff68693          	addi	a3,a3,-1 # ff7fffff <__stack_top+0xdf7f5e3b>
20006654:	40e98733          	sub	a4,s3,a4
20006658:	00d7f7b3          	and	a5,a5,a3
2000665c:	00040613          	mv	a2,s0
20006660:	a9dff06f          	j	200060fc <__subdf3+0x424>
20006664:	00058793          	mv	a5,a1
20006668:	f01ff06f          	j	20006568 <__subdf3+0x890>
2000666c:	00058793          	mv	a5,a1
20006670:	dd1ff06f          	j	20006440 <__subdf3+0x768>
20006674:	00050613          	mv	a2,a0
20006678:	ef1ff06f          	j	20006568 <__subdf3+0x890>
2000667c:	00080793          	mv	a5,a6
20006680:	00088613          	mv	a2,a7
20006684:	ee5ff06f          	j	20006568 <__subdf3+0x890>
20006688:	00048993          	mv	s3,s1
2000668c:	f20498e3          	bnez	s1,200065bc <__subdf3+0x8e4>
20006690:	ff873713          	sltiu	a4,a4,-8
20006694:	00173713          	seqz	a4,a4
20006698:	00e686b3          	add	a3,a3,a4
2000669c:	00100993          	li	s3,1
200066a0:	f1dff06f          	j	200065bc <__subdf3+0x8e4>
200066a4:	00100993          	li	s3,1
200066a8:	f0048ae3          	beqz	s1,200065bc <__subdf3+0x8e4>
200066ac:	ff873713          	sltiu	a4,a4,-8
200066b0:	00173713          	seqz	a4,a4
200066b4:	00e686b3          	add	a3,a3,a4
200066b8:	00048993          	mv	s3,s1
200066bc:	f01ff06f          	j	200065bc <__subdf3+0x8e4>
200066c0:	a8049ae3          	bnez	s1,20006154 <__subdf3+0x47c>
200066c4:	00860593          	addi	a1,a2,8 # 10008 <_start-0x1ffefff8>
200066c8:	a81ff06f          	j	20006148 <__subdf3+0x470>
200066cc:	00048593          	mv	a1,s1
200066d0:	00100993          	li	s3,1
200066d4:	00068493          	mv	s1,a3
200066d8:	ae0584e3          	beqz	a1,200061c0 <__subdf3+0x4e8>
200066dc:	00860513          	addi	a0,a2,8
200066e0:	00c53833          	sltu	a6,a0,a2
200066e4:	010787b3          	add	a5,a5,a6
200066e8:	00050613          	mv	a2,a0
200066ec:	00058493          	mv	s1,a1
200066f0:	a65ff06f          	j	20006154 <__subdf3+0x47c>
200066f4:	fff00793          	li	a5,-1
200066f8:	7fe00713          	li	a4,2046
200066fc:	00078613          	mv	a2,a5
20006700:	00500993          	li	s3,5
20006704:	a61ff06f          	j	20006164 <__subdf3+0x48c>
20006708:	00000613          	li	a2,0
2000670c:	02090663          	beqz	s2,20006738 <__subdf3+0xa60>
20006710:	00300793          	li	a5,3
20006714:	00f91a63          	bne	s2,a5,20006728 <__subdf3+0xa50>
20006718:	02048063          	beqz	s1,20006738 <__subdf3+0xa60>
2000671c:	fff00613          	li	a2,-1
20006720:	7fe00713          	li	a4,2046
20006724:	0140006f          	j	20006738 <__subdf3+0xa60>
20006728:	ffe90793          	addi	a5,s2,-2
2000672c:	fe0798e3          	bnez	a5,2000671c <__subdf3+0xa44>
20006730:	0014f793          	andi	a5,s1,1
20006734:	fe0784e3          	beqz	a5,2000671c <__subdf3+0xa44>
20006738:	0059e993          	ori	s3,s3,5
2000673c:	00060793          	mv	a5,a2
20006740:	8c9ff06f          	j	20006008 <__subdf3+0x330>
20006744:	00000793          	li	a5,0
20006748:	00000613          	li	a2,0
2000674c:	00500993          	li	s3,5
20006750:	8b9ff06f          	j	20006008 <__subdf3+0x330>
20006754:	00000793          	li	a5,0
20006758:	00098713          	mv	a4,s3
2000675c:	e1cff06f          	j	20005d78 <__subdf3+0xa0>
20006760:	00068493          	mv	s1,a3
20006764:	ca5ff06f          	j	20006408 <__subdf3+0x730>
20006768:	00068493          	mv	s1,a3
2000676c:	00000613          	li	a2,0
20006770:	00088713          	mv	a4,a7
20006774:	e04ff06f          	j	20005d78 <__subdf3+0xa0>
20006778:	00000793          	li	a5,0
2000677c:	00000613          	li	a2,0
20006780:	df8ff06f          	j	20005d78 <__subdf3+0xa0>
20006784:	d3388ce3          	beq	a7,s3,200064bc <__subdf3+0x7e4>
20006788:	00000993          	li	s3,0
2000678c:	d15ff06f          	j	200064a0 <__subdf3+0x7c8>

20006790 <__floatsidf>:
20006790:	ff010113          	addi	sp,sp,-16
20006794:	00112623          	sw	ra,12(sp)
20006798:	00812423          	sw	s0,8(sp)
2000679c:	00912223          	sw	s1,4(sp)
200067a0:	00050793          	mv	a5,a0
200067a4:	08050063          	beqz	a0,20006824 <__floatsidf+0x94>
200067a8:	41f55713          	srai	a4,a0,0x1f
200067ac:	00a74433          	xor	s0,a4,a0
200067b0:	40e40433          	sub	s0,s0,a4
200067b4:	01f55493          	srli	s1,a0,0x1f
200067b8:	00040513          	mv	a0,s0
200067bc:	358000ef          	jal	20006b14 <__clzsi2>
200067c0:	41e00793          	li	a5,1054
200067c4:	00a00713          	li	a4,10
200067c8:	40a787b3          	sub	a5,a5,a0
200067cc:	04a74463          	blt	a4,a0,20006814 <__floatsidf+0x84>
200067d0:	00b00713          	li	a4,11
200067d4:	40a70733          	sub	a4,a4,a0
200067d8:	01550513          	addi	a0,a0,21
200067dc:	00e45733          	srl	a4,s0,a4
200067e0:	00a41433          	sll	s0,s0,a0
200067e4:	00c12083          	lw	ra,12(sp)
200067e8:	00040513          	mv	a0,s0
200067ec:	00c71713          	slli	a4,a4,0xc
200067f0:	00812403          	lw	s0,8(sp)
200067f4:	01479793          	slli	a5,a5,0x14
200067f8:	00c75713          	srli	a4,a4,0xc
200067fc:	01f49493          	slli	s1,s1,0x1f
20006800:	00e7e7b3          	or	a5,a5,a4
20006804:	0097e5b3          	or	a1,a5,s1
20006808:	00412483          	lw	s1,4(sp)
2000680c:	01010113          	addi	sp,sp,16
20006810:	00008067          	ret
20006814:	ff550513          	addi	a0,a0,-11
20006818:	00a41733          	sll	a4,s0,a0
2000681c:	00000413          	li	s0,0
20006820:	fc5ff06f          	j	200067e4 <__floatsidf+0x54>
20006824:	00000493          	li	s1,0
20006828:	00000713          	li	a4,0
2000682c:	ff1ff06f          	j	2000681c <__floatsidf+0x8c>

20006830 <__truncdfsf2>:
20006830:	00202873          	frrm	a6
20006834:	00c59713          	slli	a4,a1,0xc
20006838:	0145d313          	srli	t1,a1,0x14
2000683c:	00975793          	srli	a5,a4,0x9
20006840:	7ff37313          	andi	t1,t1,2047
20006844:	01d55713          	srli	a4,a0,0x1d
20006848:	00f76733          	or	a4,a4,a5
2000684c:	00130793          	addi	a5,t1,1
20006850:	7fe7f893          	andi	a7,a5,2046
20006854:	01f5d613          	srli	a2,a1,0x1f
20006858:	00351693          	slli	a3,a0,0x3
2000685c:	14088a63          	beqz	a7,200069b0 <__truncdfsf2+0x180>
20006860:	c8030e13          	addi	t3,t1,-896
20006864:	0fe00593          	li	a1,254
20006868:	07c5dc63          	bge	a1,t3,200068e0 <__truncdfsf2+0xb0>
2000686c:	28080c63          	beqz	a6,20006b04 <__truncdfsf2+0x2d4>
20006870:	00300793          	li	a5,3
20006874:	02f81c63          	bne	a6,a5,200068ac <__truncdfsf2+0x7c>
20006878:	28060663          	beqz	a2,20006b04 <__truncdfsf2+0x2d4>
2000687c:	fff00793          	li	a5,-1
20006880:	00000713          	li	a4,0
20006884:	00058e13          	mv	t3,a1
20006888:	00500893          	li	a7,5
2000688c:	00300693          	li	a3,3
20006890:	20d80263          	beq	a6,a3,20006a94 <__truncdfsf2+0x264>
20006894:	18081463          	bnez	a6,20006a1c <__truncdfsf2+0x1ec>
20006898:	00f7f693          	andi	a3,a5,15
2000689c:	00400593          	li	a1,4
200068a0:	16b68e63          	beq	a3,a1,20006a1c <__truncdfsf2+0x1ec>
200068a4:	00b787b3          	add	a5,a5,a1
200068a8:	1740006f          	j	20006a1c <__truncdfsf2+0x1ec>
200068ac:	ffe80793          	addi	a5,a6,-2 # 7ffffe <_start-0x1f800002>
200068b0:	00079463          	bnez	a5,200068b8 <__truncdfsf2+0x88>
200068b4:	24061863          	bnez	a2,20006b04 <__truncdfsf2+0x2d4>
200068b8:	fff00793          	li	a5,-1
200068bc:	00000713          	li	a4,0
200068c0:	00500893          	li	a7,5
200068c4:	0fe00e13          	li	t3,254
200068c8:	00200693          	li	a3,2
200068cc:	0018e893          	ori	a7,a7,1
200068d0:	fad81ee3          	bne	a6,a3,2000688c <__truncdfsf2+0x5c>
200068d4:	00361693          	slli	a3,a2,0x3
200068d8:	00d787b3          	add	a5,a5,a3
200068dc:	1400006f          	j	20006a1c <__truncdfsf2+0x1ec>
200068e0:	0bc04663          	bgtz	t3,2000698c <__truncdfsf2+0x15c>
200068e4:	fe900593          	li	a1,-23
200068e8:	00100793          	li	a5,1
200068ec:	02be4c63          	blt	t3,a1,20006924 <__truncdfsf2+0xf4>
200068f0:	008007b7          	lui	a5,0x800
200068f4:	00f76733          	or	a4,a4,a5
200068f8:	fff00793          	li	a5,-1
200068fc:	06fe4263          	blt	t3,a5,20006960 <__truncdfsf2+0x130>
20006900:	01e00793          	li	a5,30
20006904:	c8230593          	addi	a1,t1,-894
20006908:	41c787b3          	sub	a5,a5,t3
2000690c:	00f6d7b3          	srl	a5,a3,a5
20006910:	00b696b3          	sll	a3,a3,a1
20006914:	00d036b3          	snez	a3,a3
20006918:	00b71733          	sll	a4,a4,a1
2000691c:	00e6e6b3          	or	a3,a3,a4
20006920:	00d7e7b3          	or	a5,a5,a3
20006924:	00179713          	slli	a4,a5,0x1
20006928:	00777693          	andi	a3,a4,7
2000692c:	14068663          	beqz	a3,20006a78 <__truncdfsf2+0x248>
20006930:	00200693          	li	a3,2
20006934:	12d80863          	beq	a6,a3,20006a64 <__truncdfsf2+0x234>
20006938:	00300693          	li	a3,3
2000693c:	0ad80e63          	beq	a6,a3,200069f8 <__truncdfsf2+0x1c8>
20006940:	12081463          	bnez	a6,20006a68 <__truncdfsf2+0x238>
20006944:	00f77693          	andi	a3,a4,15
20006948:	00400593          	li	a1,4
2000694c:	00b70733          	add	a4,a4,a1
20006950:	0ab69863          	bne	a3,a1,20006a00 <__truncdfsf2+0x1d0>
20006954:	00000e13          	li	t3,0
20006958:	00100713          	li	a4,1
2000695c:	0b40006f          	j	20006a10 <__truncdfsf2+0x1e0>
20006960:	ffe00593          	li	a1,-2
20006964:	41c587b3          	sub	a5,a1,t3
20006968:	00f757b3          	srl	a5,a4,a5
2000696c:	00000513          	li	a0,0
20006970:	00be0663          	beq	t3,a1,2000697c <__truncdfsf2+0x14c>
20006974:	ca230513          	addi	a0,t1,-862
20006978:	00a71533          	sll	a0,a4,a0
2000697c:	00d56533          	or	a0,a0,a3
20006980:	00a03533          	snez	a0,a0
20006984:	00a7e7b3          	or	a5,a5,a0
20006988:	f9dff06f          	j	20006924 <__truncdfsf2+0xf4>
2000698c:	00651793          	slli	a5,a0,0x6
20006990:	00371713          	slli	a4,a4,0x3
20006994:	00f037b3          	snez	a5,a5
20006998:	00e7e7b3          	or	a5,a5,a4
2000699c:	01d6d693          	srli	a3,a3,0x1d
200069a0:	00d7e7b3          	or	a5,a5,a3
200069a4:	00000713          	li	a4,0
200069a8:	00000893          	li	a7,0
200069ac:	0680006f          	j	20006a14 <__truncdfsf2+0x1e4>
200069b0:	00d767b3          	or	a5,a4,a3
200069b4:	00031863          	bnez	t1,200069c4 <__truncdfsf2+0x194>
200069b8:	08078263          	beqz	a5,20006a3c <__truncdfsf2+0x20c>
200069bc:	00100793          	li	a5,1
200069c0:	f65ff06f          	j	20006924 <__truncdfsf2+0xf4>
200069c4:	14078463          	beqz	a5,20006b0c <__truncdfsf2+0x2dc>
200069c8:	7ff00793          	li	a5,2047
200069cc:	00f31863          	bne	t1,a5,200069dc <__truncdfsf2+0x1ac>
200069d0:	01675793          	srli	a5,a4,0x16
200069d4:	0017c793          	xori	a5,a5,1
200069d8:	00479893          	slli	a7,a5,0x4
200069dc:	004007b7          	lui	a5,0x400
200069e0:	00f767b3          	or	a5,a4,a5
200069e4:	12078463          	beqz	a5,20006b0c <__truncdfsf2+0x2dc>
200069e8:	00000613          	li	a2,0
200069ec:	0ff00313          	li	t1,255
200069f0:	004007b7          	lui	a5,0x400
200069f4:	0480006f          	j	20006a3c <__truncdfsf2+0x20c>
200069f8:	08061663          	bnez	a2,20006a84 <__truncdfsf2+0x254>
200069fc:	00870713          	addi	a4,a4,8
20006a00:	01b75713          	srli	a4,a4,0x1b
20006a04:	00177713          	andi	a4,a4,1
20006a08:	00174713          	xori	a4,a4,1
20006a0c:	00000e13          	li	t3,0
20006a10:	00100893          	li	a7,1
20006a14:	0077f693          	andi	a3,a5,7
20006a18:	ea0698e3          	bnez	a3,200068c8 <__truncdfsf2+0x98>
20006a1c:	00070863          	beqz	a4,20006a2c <__truncdfsf2+0x1fc>
20006a20:	0018f713          	andi	a4,a7,1
20006a24:	00171713          	slli	a4,a4,0x1
20006a28:	00e8e8b3          	or	a7,a7,a4
20006a2c:	00579713          	slli	a4,a5,0x5
20006a30:	06074863          	bltz	a4,20006aa0 <__truncdfsf2+0x270>
20006a34:	0037d793          	srli	a5,a5,0x3
20006a38:	000e0313          	mv	t1,t3
20006a3c:	00979793          	slli	a5,a5,0x9
20006a40:	0097d793          	srli	a5,a5,0x9
20006a44:	01731593          	slli	a1,t1,0x17
20006a48:	00f5e5b3          	or	a1,a1,a5
20006a4c:	01f61793          	slli	a5,a2,0x1f
20006a50:	00f5e5b3          	or	a1,a1,a5
20006a54:	00088463          	beqz	a7,20006a5c <__truncdfsf2+0x22c>
20006a58:	0018a073          	csrs	fflags,a7
20006a5c:	f0058553          	fmv.w.x	fa0,a1
20006a60:	00008067          	ret
20006a64:	f8061ce3          	bnez	a2,200069fc <__truncdfsf2+0x1cc>
20006a68:	00100713          	li	a4,1
20006a6c:	00000e13          	li	t3,0
20006a70:	00070893          	mv	a7,a4
20006a74:	fa1ff06f          	j	20006a14 <__truncdfsf2+0x1e4>
20006a78:	00000e13          	li	t3,0
20006a7c:	00100713          	li	a4,1
20006a80:	f29ff06f          	j	200069a8 <__truncdfsf2+0x178>
20006a84:	00060713          	mv	a4,a2
20006a88:	00060893          	mv	a7,a2
20006a8c:	00000e13          	li	t3,0
20006a90:	f85ff06f          	j	20006a14 <__truncdfsf2+0x1e4>
20006a94:	f80614e3          	bnez	a2,20006a1c <__truncdfsf2+0x1ec>
20006a98:	00878793          	addi	a5,a5,8 # 400008 <_start-0x1fbffff8>
20006a9c:	f81ff06f          	j	20006a1c <__truncdfsf2+0x1ec>
20006aa0:	001e0313          	addi	t1,t3,1 # 1000001 <_start-0x1effffff>
20006aa4:	0ff00713          	li	a4,255
20006aa8:	00e30c63          	beq	t1,a4,20006ac0 <__truncdfsf2+0x290>
20006aac:	1f800737          	lui	a4,0x1f800
20006ab0:	0037d793          	srli	a5,a5,0x3
20006ab4:	fff70713          	addi	a4,a4,-1 # 1f7fffff <_start-0x800001>
20006ab8:	00e7f7b3          	and	a5,a5,a4
20006abc:	f81ff06f          	j	20006a3c <__truncdfsf2+0x20c>
20006ac0:	00000793          	li	a5,0
20006ac4:	02080463          	beqz	a6,20006aec <__truncdfsf2+0x2bc>
20006ac8:	00300713          	li	a4,3
20006acc:	00e81a63          	bne	a6,a4,20006ae0 <__truncdfsf2+0x2b0>
20006ad0:	00060e63          	beqz	a2,20006aec <__truncdfsf2+0x2bc>
20006ad4:	fff00793          	li	a5,-1
20006ad8:	0fe00313          	li	t1,254
20006adc:	0100006f          	j	20006aec <__truncdfsf2+0x2bc>
20006ae0:	ffe80713          	addi	a4,a6,-2
20006ae4:	fe0718e3          	bnez	a4,20006ad4 <__truncdfsf2+0x2a4>
20006ae8:	fe0606e3          	beqz	a2,20006ad4 <__truncdfsf2+0x2a4>
20006aec:	0ff00713          	li	a4,255
20006af0:	0058e893          	ori	a7,a7,5
20006af4:	0037d793          	srli	a5,a5,0x3
20006af8:	eee306e3          	beq	t1,a4,200069e4 <__truncdfsf2+0x1b4>
20006afc:	0fe00313          	li	t1,254
20006b00:	f3dff06f          	j	20006a3c <__truncdfsf2+0x20c>
20006b04:	00000793          	li	a5,0
20006b08:	00500893          	li	a7,5
20006b0c:	0ff00313          	li	t1,255
20006b10:	f2dff06f          	j	20006a3c <__truncdfsf2+0x20c>

20006b14 <__clzsi2>:
20006b14:	000107b7          	lui	a5,0x10
20006b18:	02f57a63          	bgeu	a0,a5,20006b4c <__clzsi2+0x38>
20006b1c:	10053793          	sltiu	a5,a0,256
20006b20:	0017b793          	seqz	a5,a5
20006b24:	00379793          	slli	a5,a5,0x3
20006b28:	20009737          	lui	a4,0x20009
20006b2c:	00f55533          	srl	a0,a0,a5
20006b30:	f8870713          	addi	a4,a4,-120 # 20008f88 <__clz_tab>
20006b34:	00a70733          	add	a4,a4,a0
20006b38:	00074503          	lbu	a0,0(a4)
20006b3c:	02000693          	li	a3,32
20006b40:	40f686b3          	sub	a3,a3,a5
20006b44:	40a68533          	sub	a0,a3,a0
20006b48:	00008067          	ret
20006b4c:	01000737          	lui	a4,0x1000
20006b50:	01800793          	li	a5,24
20006b54:	fce57ae3          	bgeu	a0,a4,20006b28 <__clzsi2+0x14>
20006b58:	01000793          	li	a5,16
20006b5c:	fcdff06f          	j	20006b28 <__clzsi2+0x14>

20006b60 <_iprintf_r>:
20006b60:	fc010113          	addi	sp,sp,-64
20006b64:	02c12423          	sw	a2,40(sp)
20006b68:	02d12623          	sw	a3,44(sp)
20006b6c:	02e12823          	sw	a4,48(sp)
20006b70:	02f12a23          	sw	a5,52(sp)
20006b74:	03012c23          	sw	a6,56(sp)
20006b78:	03112e23          	sw	a7,60(sp)
20006b7c:	00058613          	mv	a2,a1
20006b80:	00852583          	lw	a1,8(a0)
20006b84:	02810693          	addi	a3,sp,40
20006b88:	00112e23          	sw	ra,28(sp)
20006b8c:	00d12623          	sw	a3,12(sp)
20006b90:	6b8000ef          	jal	20007248 <_vfiprintf_r>
20006b94:	01c12083          	lw	ra,28(sp)
20006b98:	04010113          	addi	sp,sp,64
20006b9c:	00008067          	ret

20006ba0 <iprintf>:
20006ba0:	fc010113          	addi	sp,sp,-64
20006ba4:	02f12a23          	sw	a5,52(sp)
20006ba8:	200097b7          	lui	a5,0x20009
20006bac:	4347a783          	lw	a5,1076(a5) # 20009434 <_impure_ptr>
20006bb0:	02c12423          	sw	a2,40(sp)
20006bb4:	02d12623          	sw	a3,44(sp)
20006bb8:	02b12223          	sw	a1,36(sp)
20006bbc:	02e12823          	sw	a4,48(sp)
20006bc0:	03012c23          	sw	a6,56(sp)
20006bc4:	03112e23          	sw	a7,60(sp)
20006bc8:	0087a583          	lw	a1,8(a5)
20006bcc:	02410693          	addi	a3,sp,36
20006bd0:	00050613          	mv	a2,a0
20006bd4:	00078513          	mv	a0,a5
20006bd8:	00112e23          	sw	ra,28(sp)
20006bdc:	00d12623          	sw	a3,12(sp)
20006be0:	668000ef          	jal	20007248 <_vfiprintf_r>
20006be4:	01c12083          	lw	ra,28(sp)
20006be8:	04010113          	addi	sp,sp,64
20006bec:	00008067          	ret

20006bf0 <setvbuf>:
20006bf0:	fd010113          	addi	sp,sp,-48
20006bf4:	200097b7          	lui	a5,0x20009
20006bf8:	01312e23          	sw	s3,28(sp)
20006bfc:	4347a983          	lw	s3,1076(a5) # 20009434 <_impure_ptr>
20006c00:	02812423          	sw	s0,40(sp)
20006c04:	02912223          	sw	s1,36(sp)
20006c08:	03212023          	sw	s2,32(sp)
20006c0c:	01412c23          	sw	s4,24(sp)
20006c10:	02112623          	sw	ra,44(sp)
20006c14:	01512a23          	sw	s5,20(sp)
20006c18:	00050413          	mv	s0,a0
20006c1c:	00058913          	mv	s2,a1
20006c20:	00060a13          	mv	s4,a2
20006c24:	00068493          	mv	s1,a3
20006c28:	00098a63          	beqz	s3,20006c3c <setvbuf+0x4c>
20006c2c:	0209a783          	lw	a5,32(s3)
20006c30:	00079663          	bnez	a5,20006c3c <setvbuf+0x4c>
20006c34:	00098513          	mv	a0,s3
20006c38:	3d0010ef          	jal	20008008 <__sinit>
20006c3c:	00200793          	li	a5,2
20006c40:	00fa0863          	beq	s4,a5,20006c50 <setvbuf+0x60>
20006c44:	002a3793          	sltiu	a5,s4,2
20006c48:	18078a63          	beqz	a5,20006ddc <setvbuf+0x1ec>
20006c4c:	1804c863          	bltz	s1,20006ddc <setvbuf+0x1ec>
20006c50:	00040593          	mv	a1,s0
20006c54:	00098513          	mv	a0,s3
20006c58:	08c010ef          	jal	20007ce4 <_fflush_r>
20006c5c:	03442583          	lw	a1,52(s0)
20006c60:	00058c63          	beqz	a1,20006c78 <setvbuf+0x88>
20006c64:	04440793          	addi	a5,s0,68
20006c68:	00f58663          	beq	a1,a5,20006c74 <setvbuf+0x84>
20006c6c:	00098513          	mv	a0,s3
20006c70:	180000ef          	jal	20006df0 <_free_r>
20006c74:	02042a23          	sw	zero,52(s0)
20006c78:	00c45783          	lhu	a5,12(s0)
20006c7c:	00042c23          	sw	zero,24(s0)
20006c80:	00042223          	sw	zero,4(s0)
20006c84:	0807f793          	andi	a5,a5,128
20006c88:	00078863          	beqz	a5,20006c98 <setvbuf+0xa8>
20006c8c:	01042583          	lw	a1,16(s0)
20006c90:	00098513          	mv	a0,s3
20006c94:	15c000ef          	jal	20006df0 <_free_r>
20006c98:	00c45783          	lhu	a5,12(s0)
20006c9c:	fffff737          	lui	a4,0xfffff
20006ca0:	35c70713          	addi	a4,a4,860 # fffff35c <__stack_top+0xdfff5198>
20006ca4:	00e7f7b3          	and	a5,a5,a4
20006ca8:	00f41623          	sh	a5,12(s0)
20006cac:	00200793          	li	a5,2
20006cb0:	10fa0a63          	beq	s4,a5,20006dc4 <setvbuf+0x1d4>
20006cb4:	00c10693          	addi	a3,sp,12
20006cb8:	00810613          	addi	a2,sp,8
20006cbc:	00040593          	mv	a1,s0
20006cc0:	00098513          	mv	a0,s3
20006cc4:	0ad010ef          	jal	20008570 <__swhatbuf_r>
20006cc8:	00c45783          	lhu	a5,12(s0)
20006ccc:	00a7e7b3          	or	a5,a5,a0
20006cd0:	00f41623          	sh	a5,12(s0)
20006cd4:	06049863          	bnez	s1,20006d44 <setvbuf+0x154>
20006cd8:	00812483          	lw	s1,8(sp)
20006cdc:	00048513          	mv	a0,s1
20006ce0:	20c000ef          	jal	20006eec <malloc>
20006ce4:	00050913          	mv	s2,a0
20006ce8:	00048a93          	mv	s5,s1
20006cec:	0c051263          	bnez	a0,20006db0 <setvbuf+0x1c0>
20006cf0:	00812a83          	lw	s5,8(sp)
20006cf4:	0a9a9663          	bne	s5,s1,20006da0 <setvbuf+0x1b0>
20006cf8:	fff00513          	li	a0,-1
20006cfc:	00c45783          	lhu	a5,12(s0)
20006d00:	00042423          	sw	zero,8(s0)
20006d04:	0027e793          	ori	a5,a5,2
20006d08:	00f41623          	sh	a5,12(s0)
20006d0c:	04740793          	addi	a5,s0,71
20006d10:	00f42023          	sw	a5,0(s0)
20006d14:	00f42823          	sw	a5,16(s0)
20006d18:	00100793          	li	a5,1
20006d1c:	00f42a23          	sw	a5,20(s0)
20006d20:	02c12083          	lw	ra,44(sp)
20006d24:	02812403          	lw	s0,40(sp)
20006d28:	02412483          	lw	s1,36(sp)
20006d2c:	02012903          	lw	s2,32(sp)
20006d30:	01c12983          	lw	s3,28(sp)
20006d34:	01812a03          	lw	s4,24(sp)
20006d38:	01412a83          	lw	s5,20(sp)
20006d3c:	03010113          	addi	sp,sp,48
20006d40:	00008067          	ret
20006d44:	f8090ce3          	beqz	s2,20006cdc <setvbuf+0xec>
20006d48:	0209a783          	lw	a5,32(s3)
20006d4c:	00079663          	bnez	a5,20006d58 <setvbuf+0x168>
20006d50:	00098513          	mv	a0,s3
20006d54:	2b4010ef          	jal	20008008 <__sinit>
20006d58:	00100793          	li	a5,1
20006d5c:	00fa1863          	bne	s4,a5,20006d6c <setvbuf+0x17c>
20006d60:	00c45783          	lhu	a5,12(s0)
20006d64:	0147e7b3          	or	a5,a5,s4
20006d68:	00f41623          	sh	a5,12(s0)
20006d6c:	00c41783          	lh	a5,12(s0)
20006d70:	01242023          	sw	s2,0(s0)
20006d74:	01242823          	sw	s2,16(s0)
20006d78:	00942a23          	sw	s1,20(s0)
20006d7c:	0087f713          	andi	a4,a5,8
20006d80:	04070a63          	beqz	a4,20006dd4 <setvbuf+0x1e4>
20006d84:	0017f793          	andi	a5,a5,1
20006d88:	04078263          	beqz	a5,20006dcc <setvbuf+0x1dc>
20006d8c:	409004b3          	neg	s1,s1
20006d90:	00042423          	sw	zero,8(s0)
20006d94:	00942c23          	sw	s1,24(s0)
20006d98:	00000513          	li	a0,0
20006d9c:	f85ff06f          	j	20006d20 <setvbuf+0x130>
20006da0:	000a8513          	mv	a0,s5
20006da4:	148000ef          	jal	20006eec <malloc>
20006da8:	00050913          	mv	s2,a0
20006dac:	f40506e3          	beqz	a0,20006cf8 <setvbuf+0x108>
20006db0:	00c45783          	lhu	a5,12(s0)
20006db4:	000a8493          	mv	s1,s5
20006db8:	0807e793          	ori	a5,a5,128
20006dbc:	00f41623          	sh	a5,12(s0)
20006dc0:	f89ff06f          	j	20006d48 <setvbuf+0x158>
20006dc4:	00000513          	li	a0,0
20006dc8:	f35ff06f          	j	20006cfc <setvbuf+0x10c>
20006dcc:	00942423          	sw	s1,8(s0)
20006dd0:	fc9ff06f          	j	20006d98 <setvbuf+0x1a8>
20006dd4:	00042423          	sw	zero,8(s0)
20006dd8:	fc1ff06f          	j	20006d98 <setvbuf+0x1a8>
20006ddc:	fff00513          	li	a0,-1
20006de0:	f41ff06f          	j	20006d20 <setvbuf+0x130>

20006de4 <__errno>:
20006de4:	200097b7          	lui	a5,0x20009
20006de8:	4347a503          	lw	a0,1076(a5) # 20009434 <_impure_ptr>
20006dec:	00008067          	ret

20006df0 <_free_r>:
20006df0:	0e058c63          	beqz	a1,20006ee8 <_free_r+0xf8>
20006df4:	ffc5a783          	lw	a5,-4(a1)
20006df8:	fe010113          	addi	sp,sp,-32
20006dfc:	00812c23          	sw	s0,24(sp)
20006e00:	00112e23          	sw	ra,28(sp)
20006e04:	ffc58413          	addi	s0,a1,-4
20006e08:	0007d463          	bgez	a5,20006e10 <_free_r+0x20>
20006e0c:	00f40433          	add	s0,s0,a5
20006e10:	00a12623          	sw	a0,12(sp)
20006e14:	340000ef          	jal	20007154 <__malloc_lock>
20006e18:	20009737          	lui	a4,0x20009
20006e1c:	5b872783          	lw	a5,1464(a4) # 200095b8 <__malloc_free_list>
20006e20:	00c12503          	lw	a0,12(sp)
20006e24:	00079e63          	bnez	a5,20006e40 <_free_r+0x50>
20006e28:	00042223          	sw	zero,4(s0)
20006e2c:	5a872c23          	sw	s0,1464(a4)
20006e30:	01812403          	lw	s0,24(sp)
20006e34:	01c12083          	lw	ra,28(sp)
20006e38:	02010113          	addi	sp,sp,32
20006e3c:	31c0006f          	j	20007158 <__malloc_unlock>
20006e40:	02f47463          	bgeu	s0,a5,20006e68 <_free_r+0x78>
20006e44:	00042603          	lw	a2,0(s0)
20006e48:	00c406b3          	add	a3,s0,a2
20006e4c:	00d79a63          	bne	a5,a3,20006e60 <_free_r+0x70>
20006e50:	0007a683          	lw	a3,0(a5)
20006e54:	0047a783          	lw	a5,4(a5)
20006e58:	00c686b3          	add	a3,a3,a2
20006e5c:	00d42023          	sw	a3,0(s0)
20006e60:	00f42223          	sw	a5,4(s0)
20006e64:	fc9ff06f          	j	20006e2c <_free_r+0x3c>
20006e68:	00078713          	mv	a4,a5
20006e6c:	0047a783          	lw	a5,4(a5)
20006e70:	00078463          	beqz	a5,20006e78 <_free_r+0x88>
20006e74:	fef47ae3          	bgeu	s0,a5,20006e68 <_free_r+0x78>
20006e78:	00072683          	lw	a3,0(a4)
20006e7c:	00d70633          	add	a2,a4,a3
20006e80:	02861863          	bne	a2,s0,20006eb0 <_free_r+0xc0>
20006e84:	00042603          	lw	a2,0(s0)
20006e88:	00c686b3          	add	a3,a3,a2
20006e8c:	00d72023          	sw	a3,0(a4)
20006e90:	00d70633          	add	a2,a4,a3
20006e94:	f8c79ee3          	bne	a5,a2,20006e30 <_free_r+0x40>
20006e98:	0007a603          	lw	a2,0(a5)
20006e9c:	0047a783          	lw	a5,4(a5)
20006ea0:	00d606b3          	add	a3,a2,a3
20006ea4:	00d72023          	sw	a3,0(a4)
20006ea8:	00f72223          	sw	a5,4(a4)
20006eac:	f85ff06f          	j	20006e30 <_free_r+0x40>
20006eb0:	00c47863          	bgeu	s0,a2,20006ec0 <_free_r+0xd0>
20006eb4:	00c00793          	li	a5,12
20006eb8:	00f52023          	sw	a5,0(a0)
20006ebc:	f75ff06f          	j	20006e30 <_free_r+0x40>
20006ec0:	00042603          	lw	a2,0(s0)
20006ec4:	00c406b3          	add	a3,s0,a2
20006ec8:	00d79a63          	bne	a5,a3,20006edc <_free_r+0xec>
20006ecc:	0007a683          	lw	a3,0(a5)
20006ed0:	0047a783          	lw	a5,4(a5)
20006ed4:	00c686b3          	add	a3,a3,a2
20006ed8:	00d42023          	sw	a3,0(s0)
20006edc:	00f42223          	sw	a5,4(s0)
20006ee0:	00872223          	sw	s0,4(a4)
20006ee4:	f4dff06f          	j	20006e30 <_free_r+0x40>
20006ee8:	00008067          	ret

20006eec <malloc>:
20006eec:	200097b7          	lui	a5,0x20009
20006ef0:	00050593          	mv	a1,a0
20006ef4:	4347a503          	lw	a0,1076(a5) # 20009434 <_impure_ptr>
20006ef8:	09c0006f          	j	20006f94 <_malloc_r>

20006efc <free>:
20006efc:	200097b7          	lui	a5,0x20009
20006f00:	00050593          	mv	a1,a0
20006f04:	4347a503          	lw	a0,1076(a5) # 20009434 <_impure_ptr>
20006f08:	ee9ff06f          	j	20006df0 <_free_r>

20006f0c <sbrk_aligned>:
20006f0c:	ff010113          	addi	sp,sp,-16
20006f10:	00812423          	sw	s0,8(sp)
20006f14:	20009437          	lui	s0,0x20009
20006f18:	5b442783          	lw	a5,1460(s0) # 200095b4 <__malloc_sbrk_start>
20006f1c:	00912223          	sw	s1,4(sp)
20006f20:	01212023          	sw	s2,0(sp)
20006f24:	00112623          	sw	ra,12(sp)
20006f28:	00050913          	mv	s2,a0
20006f2c:	00058493          	mv	s1,a1
20006f30:	00079863          	bnez	a5,20006f40 <sbrk_aligned+0x34>
20006f34:	00000593          	li	a1,0
20006f38:	629010ef          	jal	20008d60 <_sbrk_r>
20006f3c:	5aa42a23          	sw	a0,1460(s0)
20006f40:	00048593          	mv	a1,s1
20006f44:	00090513          	mv	a0,s2
20006f48:	619010ef          	jal	20008d60 <_sbrk_r>
20006f4c:	fff00493          	li	s1,-1
20006f50:	02951263          	bne	a0,s1,20006f74 <sbrk_aligned+0x68>
20006f54:	fff00413          	li	s0,-1
20006f58:	00c12083          	lw	ra,12(sp)
20006f5c:	00040513          	mv	a0,s0
20006f60:	00812403          	lw	s0,8(sp)
20006f64:	00412483          	lw	s1,4(sp)
20006f68:	00012903          	lw	s2,0(sp)
20006f6c:	01010113          	addi	sp,sp,16
20006f70:	00008067          	ret
20006f74:	00350413          	addi	s0,a0,3
20006f78:	ffc47413          	andi	s0,s0,-4
20006f7c:	fc850ee3          	beq	a0,s0,20006f58 <sbrk_aligned+0x4c>
20006f80:	40a405b3          	sub	a1,s0,a0
20006f84:	00090513          	mv	a0,s2
20006f88:	5d9010ef          	jal	20008d60 <_sbrk_r>
20006f8c:	fc9516e3          	bne	a0,s1,20006f58 <sbrk_aligned+0x4c>
20006f90:	fc5ff06f          	j	20006f54 <sbrk_aligned+0x48>

20006f94 <_malloc_r>:
20006f94:	fe010113          	addi	sp,sp,-32
20006f98:	00912a23          	sw	s1,20(sp)
20006f9c:	00358493          	addi	s1,a1,3
20006fa0:	ffc4f493          	andi	s1,s1,-4
20006fa4:	00112e23          	sw	ra,28(sp)
20006fa8:	00812c23          	sw	s0,24(sp)
20006fac:	01212823          	sw	s2,16(sp)
20006fb0:	01312623          	sw	s3,12(sp)
20006fb4:	01412423          	sw	s4,8(sp)
20006fb8:	00848493          	addi	s1,s1,8
20006fbc:	00c00793          	li	a5,12
20006fc0:	00f4f463          	bgeu	s1,a5,20006fc8 <_malloc_r+0x34>
20006fc4:	00078493          	mv	s1,a5
20006fc8:	0004c463          	bltz	s1,20006fd0 <_malloc_r+0x3c>
20006fcc:	02b4f863          	bgeu	s1,a1,20006ffc <_malloc_r+0x68>
20006fd0:	00c00793          	li	a5,12
20006fd4:	00f52023          	sw	a5,0(a0)
20006fd8:	00000513          	li	a0,0
20006fdc:	01c12083          	lw	ra,28(sp)
20006fe0:	01812403          	lw	s0,24(sp)
20006fe4:	01412483          	lw	s1,20(sp)
20006fe8:	01012903          	lw	s2,16(sp)
20006fec:	00c12983          	lw	s3,12(sp)
20006ff0:	00812a03          	lw	s4,8(sp)
20006ff4:	02010113          	addi	sp,sp,32
20006ff8:	00008067          	ret
20006ffc:	00050913          	mv	s2,a0
20007000:	200099b7          	lui	s3,0x20009
20007004:	150000ef          	jal	20007154 <__malloc_lock>
20007008:	5b89a783          	lw	a5,1464(s3) # 200095b8 <__malloc_free_list>
2000700c:	00078413          	mv	s0,a5
20007010:	08041063          	bnez	s0,20007090 <_malloc_r+0xfc>
20007014:	00048593          	mv	a1,s1
20007018:	00090513          	mv	a0,s2
2000701c:	ef1ff0ef          	jal	20006f0c <sbrk_aligned>
20007020:	fff00793          	li	a5,-1
20007024:	00050413          	mv	s0,a0
20007028:	12f51263          	bne	a0,a5,2000714c <_malloc_r+0x1b8>
2000702c:	5b89a403          	lw	s0,1464(s3)
20007030:	00040793          	mv	a5,s0
20007034:	0e079263          	bnez	a5,20007118 <_malloc_r+0x184>
20007038:	10040063          	beqz	s0,20007138 <_malloc_r+0x1a4>
2000703c:	00042a03          	lw	s4,0(s0)
20007040:	00000593          	li	a1,0
20007044:	00090513          	mv	a0,s2
20007048:	01440a33          	add	s4,s0,s4
2000704c:	515010ef          	jal	20008d60 <_sbrk_r>
20007050:	0eaa1463          	bne	s4,a0,20007138 <_malloc_r+0x1a4>
20007054:	00042783          	lw	a5,0(s0)
20007058:	00090513          	mv	a0,s2
2000705c:	40f484b3          	sub	s1,s1,a5
20007060:	00048593          	mv	a1,s1
20007064:	ea9ff0ef          	jal	20006f0c <sbrk_aligned>
20007068:	fff00793          	li	a5,-1
2000706c:	0cf50663          	beq	a0,a5,20007138 <_malloc_r+0x1a4>
20007070:	00042783          	lw	a5,0(s0)
20007074:	009787b3          	add	a5,a5,s1
20007078:	00f42023          	sw	a5,0(s0)
2000707c:	5b89a783          	lw	a5,1464(s3)
20007080:	0047a703          	lw	a4,4(a5)
20007084:	0a071063          	bnez	a4,20007124 <_malloc_r+0x190>
20007088:	5a09ac23          	sw	zero,1464(s3)
2000708c:	0340006f          	j	200070c0 <_malloc_r+0x12c>
20007090:	00042683          	lw	a3,0(s0)
20007094:	409686b3          	sub	a3,a3,s1
20007098:	0606ca63          	bltz	a3,2000710c <_malloc_r+0x178>
2000709c:	00b00713          	li	a4,11
200070a0:	04d77a63          	bgeu	a4,a3,200070f4 <_malloc_r+0x160>
200070a4:	00942023          	sw	s1,0(s0)
200070a8:	00940733          	add	a4,s0,s1
200070ac:	04879063          	bne	a5,s0,200070ec <_malloc_r+0x158>
200070b0:	5ae9ac23          	sw	a4,1464(s3)
200070b4:	00442783          	lw	a5,4(s0)
200070b8:	00d72023          	sw	a3,0(a4)
200070bc:	00f72223          	sw	a5,4(a4)
200070c0:	00090513          	mv	a0,s2
200070c4:	094000ef          	jal	20007158 <__malloc_unlock>
200070c8:	00b40513          	addi	a0,s0,11
200070cc:	00440793          	addi	a5,s0,4
200070d0:	ff857513          	andi	a0,a0,-8
200070d4:	40f50733          	sub	a4,a0,a5
200070d8:	f0f502e3          	beq	a0,a5,20006fdc <_malloc_r+0x48>
200070dc:	00e40433          	add	s0,s0,a4
200070e0:	40a787b3          	sub	a5,a5,a0
200070e4:	00f42023          	sw	a5,0(s0)
200070e8:	ef5ff06f          	j	20006fdc <_malloc_r+0x48>
200070ec:	00e7a223          	sw	a4,4(a5)
200070f0:	fc5ff06f          	j	200070b4 <_malloc_r+0x120>
200070f4:	00442703          	lw	a4,4(s0)
200070f8:	00879663          	bne	a5,s0,20007104 <_malloc_r+0x170>
200070fc:	5ae9ac23          	sw	a4,1464(s3)
20007100:	fc1ff06f          	j	200070c0 <_malloc_r+0x12c>
20007104:	00e7a223          	sw	a4,4(a5)
20007108:	fb9ff06f          	j	200070c0 <_malloc_r+0x12c>
2000710c:	00040793          	mv	a5,s0
20007110:	00442403          	lw	s0,4(s0)
20007114:	efdff06f          	j	20007010 <_malloc_r+0x7c>
20007118:	00078413          	mv	s0,a5
2000711c:	0047a783          	lw	a5,4(a5)
20007120:	f15ff06f          	j	20007034 <_malloc_r+0xa0>
20007124:	00078713          	mv	a4,a5
20007128:	0047a783          	lw	a5,4(a5)
2000712c:	fe879ce3          	bne	a5,s0,20007124 <_malloc_r+0x190>
20007130:	00072223          	sw	zero,4(a4)
20007134:	f8dff06f          	j	200070c0 <_malloc_r+0x12c>
20007138:	00c00793          	li	a5,12
2000713c:	00f92023          	sw	a5,0(s2)
20007140:	00090513          	mv	a0,s2
20007144:	014000ef          	jal	20007158 <__malloc_unlock>
20007148:	e91ff06f          	j	20006fd8 <_malloc_r+0x44>
2000714c:	00952023          	sw	s1,0(a0)
20007150:	f71ff06f          	j	200070c0 <_malloc_r+0x12c>

20007154 <__malloc_lock>:
20007154:	00008067          	ret

20007158 <__malloc_unlock>:
20007158:	00008067          	ret

2000715c <__sfputc_r>:
2000715c:	00862783          	lw	a5,8(a2)
20007160:	fff78793          	addi	a5,a5,-1
20007164:	00f62423          	sw	a5,8(a2)
20007168:	0007dc63          	bgez	a5,20007180 <__sfputc_r+0x24>
2000716c:	01862703          	lw	a4,24(a2)
20007170:	00e7c663          	blt	a5,a4,2000717c <__sfputc_r+0x20>
20007174:	ff658793          	addi	a5,a1,-10
20007178:	00079463          	bnez	a5,20007180 <__sfputc_r+0x24>
2000717c:	6880106f          	j	20008804 <__swbuf_r>
20007180:	00062783          	lw	a5,0(a2)
20007184:	00058513          	mv	a0,a1
20007188:	00178713          	addi	a4,a5,1
2000718c:	00e62023          	sw	a4,0(a2)
20007190:	00b78023          	sb	a1,0(a5)
20007194:	00008067          	ret

20007198 <__sfputs_r>:
20007198:	fe010113          	addi	sp,sp,-32
2000719c:	00812c23          	sw	s0,24(sp)
200071a0:	00912a23          	sw	s1,20(sp)
200071a4:	01212823          	sw	s2,16(sp)
200071a8:	01312623          	sw	s3,12(sp)
200071ac:	01412423          	sw	s4,8(sp)
200071b0:	00112e23          	sw	ra,28(sp)
200071b4:	00050993          	mv	s3,a0
200071b8:	00058a13          	mv	s4,a1
200071bc:	00060413          	mv	s0,a2
200071c0:	00d604b3          	add	s1,a2,a3
200071c4:	fff00913          	li	s2,-1
200071c8:	00941663          	bne	s0,s1,200071d4 <__sfputs_r+0x3c>
200071cc:	00000513          	li	a0,0
200071d0:	01c0006f          	j	200071ec <__sfputs_r+0x54>
200071d4:	00044583          	lbu	a1,0(s0)
200071d8:	000a0613          	mv	a2,s4
200071dc:	00098513          	mv	a0,s3
200071e0:	f7dff0ef          	jal	2000715c <__sfputc_r>
200071e4:	00140413          	addi	s0,s0,1
200071e8:	ff2510e3          	bne	a0,s2,200071c8 <__sfputs_r+0x30>
200071ec:	01c12083          	lw	ra,28(sp)
200071f0:	01812403          	lw	s0,24(sp)
200071f4:	01412483          	lw	s1,20(sp)
200071f8:	01012903          	lw	s2,16(sp)
200071fc:	00c12983          	lw	s3,12(sp)
20007200:	00812a03          	lw	s4,8(sp)
20007204:	02010113          	addi	sp,sp,32
20007208:	00008067          	ret

2000720c <__sprint_r>:
2000720c:	00862783          	lw	a5,8(a2)
20007210:	ff010113          	addi	sp,sp,-16
20007214:	00812423          	sw	s0,8(sp)
20007218:	00112623          	sw	ra,12(sp)
2000721c:	00060413          	mv	s0,a2
20007220:	02078063          	beqz	a5,20007240 <__sprint_r+0x34>
20007224:	645000ef          	jal	20008068 <__sfvwrite_r>
20007228:	00042423          	sw	zero,8(s0)
2000722c:	00c12083          	lw	ra,12(sp)
20007230:	00042223          	sw	zero,4(s0)
20007234:	00812403          	lw	s0,8(sp)
20007238:	01010113          	addi	sp,sp,16
2000723c:	00008067          	ret
20007240:	00000513          	li	a0,0
20007244:	fe9ff06f          	j	2000722c <__sprint_r+0x20>

20007248 <_vfiprintf_r>:
20007248:	f5010113          	addi	sp,sp,-176
2000724c:	0a812423          	sw	s0,168(sp)
20007250:	0a912223          	sw	s1,164(sp)
20007254:	09312e23          	sw	s3,156(sp)
20007258:	09412c23          	sw	s4,152(sp)
2000725c:	0a112623          	sw	ra,172(sp)
20007260:	0b212023          	sw	s2,160(sp)
20007264:	09512a23          	sw	s5,148(sp)
20007268:	09612823          	sw	s6,144(sp)
2000726c:	09712623          	sw	s7,140(sp)
20007270:	09812423          	sw	s8,136(sp)
20007274:	09912223          	sw	s9,132(sp)
20007278:	00050993          	mv	s3,a0
2000727c:	00058493          	mv	s1,a1
20007280:	00060413          	mv	s0,a2
20007284:	00068a13          	mv	s4,a3
20007288:	00050863          	beqz	a0,20007298 <_vfiprintf_r+0x50>
2000728c:	02052783          	lw	a5,32(a0)
20007290:	00079463          	bnez	a5,20007298 <_vfiprintf_r+0x50>
20007294:	575000ef          	jal	20008008 <__sinit>
20007298:	00c4d783          	lhu	a5,12(s1)
2000729c:	0087f793          	andi	a5,a5,8
200072a0:	10078a63          	beqz	a5,200073b4 <_vfiprintf_r+0x16c>
200072a4:	0104a783          	lw	a5,16(s1)
200072a8:	10078663          	beqz	a5,200073b4 <_vfiprintf_r+0x16c>
200072ac:	02000793          	li	a5,32
200072b0:	02f10ca3          	sb	a5,57(sp)
200072b4:	01412e23          	sw	s4,28(sp)
200072b8:	03000793          	li	a5,48
200072bc:	20009a37          	lui	s4,0x20009
200072c0:	02012a23          	sw	zero,52(sp)
200072c4:	02f10d23          	sb	a5,58(sp)
200072c8:	fff00a93          	li	s5,-1
200072cc:	088a0a13          	addi	s4,s4,136 # 20009088 <__clz_tab+0x100>
200072d0:	00100b93          	li	s7,1
200072d4:	00a00b13          	li	s6,10
200072d8:	00040c13          	mv	s8,s0
200072dc:	000c4783          	lbu	a5,0(s8)
200072e0:	00f03cb3          	snez	s9,a5
200072e4:	fdb78793          	addi	a5,a5,-37
200072e8:	00f037b3          	snez	a5,a5
200072ec:	00fcfcb3          	and	s9,s9,a5
200072f0:	100c9663          	bnez	s9,200073fc <_vfiprintf_r+0x1b4>
200072f4:	408c06b3          	sub	a3,s8,s0
200072f8:	028c0663          	beq	s8,s0,20007324 <_vfiprintf_r+0xdc>
200072fc:	00040613          	mv	a2,s0
20007300:	00048593          	mv	a1,s1
20007304:	00098513          	mv	a0,s3
20007308:	00d12623          	sw	a3,12(sp)
2000730c:	e8dff0ef          	jal	20007198 <__sfputs_r>
20007310:	29550063          	beq	a0,s5,20007590 <_vfiprintf_r+0x348>
20007314:	03412783          	lw	a5,52(sp)
20007318:	00c12683          	lw	a3,12(sp)
2000731c:	00d787b3          	add	a5,a5,a3
20007320:	02f12a23          	sw	a5,52(sp)
20007324:	000c4783          	lbu	a5,0(s8)
20007328:	26078463          	beqz	a5,20007590 <_vfiprintf_r+0x348>
2000732c:	001c0413          	addi	s0,s8,1
20007330:	02012023          	sw	zero,32(sp)
20007334:	02012623          	sw	zero,44(sp)
20007338:	03512223          	sw	s5,36(sp)
2000733c:	02012423          	sw	zero,40(sp)
20007340:	060101a3          	sb	zero,99(sp)
20007344:	06012c23          	sw	zero,120(sp)
20007348:	00044583          	lbu	a1,0(s0)
2000734c:	00500613          	li	a2,5
20007350:	000a0513          	mv	a0,s4
20007354:	6dc010ef          	jal	20008a30 <memchr>
20007358:	02012783          	lw	a5,32(sp)
2000735c:	00140693          	addi	a3,s0,1
20007360:	0a051263          	bnez	a0,20007404 <_vfiprintf_r+0x1bc>
20007364:	0107f713          	andi	a4,a5,16
20007368:	00070663          	beqz	a4,20007374 <_vfiprintf_r+0x12c>
2000736c:	02000713          	li	a4,32
20007370:	06e101a3          	sb	a4,99(sp)
20007374:	0087f713          	andi	a4,a5,8
20007378:	00070663          	beqz	a4,20007384 <_vfiprintf_r+0x13c>
2000737c:	02b00713          	li	a4,43
20007380:	06e101a3          	sb	a4,99(sp)
20007384:	00044603          	lbu	a2,0(s0)
20007388:	02a00713          	li	a4,42
2000738c:	08e60863          	beq	a2,a4,2000741c <_vfiprintf_r+0x1d4>
20007390:	02c12783          	lw	a5,44(sp)
20007394:	00000693          	li	a3,0
20007398:	00900613          	li	a2,9
2000739c:	00044703          	lbu	a4,0(s0)
200073a0:	fd070713          	addi	a4,a4,-48
200073a4:	0ee67263          	bgeu	a2,a4,20007488 <_vfiprintf_r+0x240>
200073a8:	08068863          	beqz	a3,20007438 <_vfiprintf_r+0x1f0>
200073ac:	02f12623          	sw	a5,44(sp)
200073b0:	0880006f          	j	20007438 <_vfiprintf_r+0x1f0>
200073b4:	00048593          	mv	a1,s1
200073b8:	00098513          	mv	a0,s3
200073bc:	558010ef          	jal	20008914 <__swsetup_r>
200073c0:	ee0506e3          	beqz	a0,200072ac <_vfiprintf_r+0x64>
200073c4:	fff00513          	li	a0,-1
200073c8:	0ac12083          	lw	ra,172(sp)
200073cc:	0a812403          	lw	s0,168(sp)
200073d0:	0a412483          	lw	s1,164(sp)
200073d4:	0a012903          	lw	s2,160(sp)
200073d8:	09c12983          	lw	s3,156(sp)
200073dc:	09812a03          	lw	s4,152(sp)
200073e0:	09412a83          	lw	s5,148(sp)
200073e4:	09012b03          	lw	s6,144(sp)
200073e8:	08c12b83          	lw	s7,140(sp)
200073ec:	08812c03          	lw	s8,136(sp)
200073f0:	08412c83          	lw	s9,132(sp)
200073f4:	0b010113          	addi	sp,sp,176
200073f8:	00008067          	ret
200073fc:	001c0c13          	addi	s8,s8,1
20007400:	eddff06f          	j	200072dc <_vfiprintf_r+0x94>
20007404:	41450533          	sub	a0,a0,s4
20007408:	00ab9533          	sll	a0,s7,a0
2000740c:	00f56533          	or	a0,a0,a5
20007410:	02a12023          	sw	a0,32(sp)
20007414:	00068413          	mv	s0,a3
20007418:	f31ff06f          	j	20007348 <_vfiprintf_r+0x100>
2000741c:	01c12703          	lw	a4,28(sp)
20007420:	00470613          	addi	a2,a4,4
20007424:	00072703          	lw	a4,0(a4)
20007428:	00c12e23          	sw	a2,28(sp)
2000742c:	04074463          	bltz	a4,20007474 <_vfiprintf_r+0x22c>
20007430:	02e12623          	sw	a4,44(sp)
20007434:	00068413          	mv	s0,a3
20007438:	00044703          	lbu	a4,0(s0)
2000743c:	02e00793          	li	a5,46
20007440:	06f71e63          	bne	a4,a5,200074bc <_vfiprintf_r+0x274>
20007444:	00144703          	lbu	a4,1(s0)
20007448:	02a00793          	li	a5,42
2000744c:	04f71863          	bne	a4,a5,2000749c <_vfiprintf_r+0x254>
20007450:	01c12783          	lw	a5,28(sp)
20007454:	00240413          	addi	s0,s0,2
20007458:	00478713          	addi	a4,a5,4
2000745c:	0007a783          	lw	a5,0(a5)
20007460:	00e12e23          	sw	a4,28(sp)
20007464:	0007d463          	bgez	a5,2000746c <_vfiprintf_r+0x224>
20007468:	fff00793          	li	a5,-1
2000746c:	02f12223          	sw	a5,36(sp)
20007470:	04c0006f          	j	200074bc <_vfiprintf_r+0x274>
20007474:	40e00733          	neg	a4,a4
20007478:	0027e793          	ori	a5,a5,2
2000747c:	02e12623          	sw	a4,44(sp)
20007480:	02f12023          	sw	a5,32(sp)
20007484:	fb1ff06f          	j	20007434 <_vfiprintf_r+0x1ec>
20007488:	036787b3          	mul	a5,a5,s6
2000748c:	00140413          	addi	s0,s0,1
20007490:	00100693          	li	a3,1
20007494:	00e787b3          	add	a5,a5,a4
20007498:	f05ff06f          	j	2000739c <_vfiprintf_r+0x154>
2000749c:	00140413          	addi	s0,s0,1
200074a0:	02012223          	sw	zero,36(sp)
200074a4:	00000793          	li	a5,0
200074a8:	00900693          	li	a3,9
200074ac:	00044703          	lbu	a4,0(s0)
200074b0:	fd070713          	addi	a4,a4,-48
200074b4:	08e6f863          	bgeu	a3,a4,20007544 <_vfiprintf_r+0x2fc>
200074b8:	fa0c9ae3          	bnez	s9,2000746c <_vfiprintf_r+0x224>
200074bc:	00044583          	lbu	a1,0(s0)
200074c0:	20009c37          	lui	s8,0x20009
200074c4:	00300613          	li	a2,3
200074c8:	090c0513          	addi	a0,s8,144 # 20009090 <__clz_tab+0x108>
200074cc:	564010ef          	jal	20008a30 <memchr>
200074d0:	02050263          	beqz	a0,200074f4 <_vfiprintf_r+0x2ac>
200074d4:	02012783          	lw	a5,32(sp)
200074d8:	090c0c13          	addi	s8,s8,144
200074dc:	41850533          	sub	a0,a0,s8
200074e0:	04000713          	li	a4,64
200074e4:	00a71733          	sll	a4,a4,a0
200074e8:	00e7e7b3          	or	a5,a5,a4
200074ec:	00140413          	addi	s0,s0,1
200074f0:	02f12023          	sw	a5,32(sp)
200074f4:	00044583          	lbu	a1,0(s0)
200074f8:	20009537          	lui	a0,0x20009
200074fc:	00600613          	li	a2,6
20007500:	09450513          	addi	a0,a0,148 # 20009094 <__clz_tab+0x10c>
20007504:	02b10c23          	sb	a1,56(sp)
20007508:	528010ef          	jal	20008a30 <memchr>
2000750c:	08050c63          	beqz	a0,200075a4 <_vfiprintf_r+0x35c>
20007510:	00000793          	li	a5,0
20007514:	04079a63          	bnez	a5,20007568 <_vfiprintf_r+0x320>
20007518:	02012703          	lw	a4,32(sp)
2000751c:	01c12783          	lw	a5,28(sp)
20007520:	10077713          	andi	a4,a4,256
20007524:	02070a63          	beqz	a4,20007558 <_vfiprintf_r+0x310>
20007528:	00478793          	addi	a5,a5,4
2000752c:	00f12e23          	sw	a5,28(sp)
20007530:	03412783          	lw	a5,52(sp)
20007534:	00140413          	addi	s0,s0,1
20007538:	012787b3          	add	a5,a5,s2
2000753c:	02f12a23          	sw	a5,52(sp)
20007540:	d99ff06f          	j	200072d8 <_vfiprintf_r+0x90>
20007544:	036787b3          	mul	a5,a5,s6
20007548:	00140413          	addi	s0,s0,1
2000754c:	00100c93          	li	s9,1
20007550:	00e787b3          	add	a5,a5,a4
20007554:	f59ff06f          	j	200074ac <_vfiprintf_r+0x264>
20007558:	00778793          	addi	a5,a5,7
2000755c:	ff87f793          	andi	a5,a5,-8
20007560:	00878793          	addi	a5,a5,8
20007564:	fc9ff06f          	j	2000752c <_vfiprintf_r+0x2e4>
20007568:	200076b7          	lui	a3,0x20007
2000756c:	01c10713          	addi	a4,sp,28
20007570:	19868693          	addi	a3,a3,408 # 20007198 <__sfputs_r>
20007574:	00048613          	mv	a2,s1
20007578:	02010593          	addi	a1,sp,32
2000757c:	00098513          	mv	a0,s3
20007580:	00000097          	auipc	ra,0x0
20007584:	000000e7          	jalr	zero # 0 <_start-0x20000000>
20007588:	00050913          	mv	s2,a0
2000758c:	fb5512e3          	bne	a0,s5,20007530 <_vfiprintf_r+0x2e8>
20007590:	00c4d783          	lhu	a5,12(s1)
20007594:	0407f793          	andi	a5,a5,64
20007598:	e20796e3          	bnez	a5,200073c4 <_vfiprintf_r+0x17c>
2000759c:	03412503          	lw	a0,52(sp)
200075a0:	e29ff06f          	j	200073c8 <_vfiprintf_r+0x180>
200075a4:	200076b7          	lui	a3,0x20007
200075a8:	01c10713          	addi	a4,sp,28
200075ac:	19868693          	addi	a3,a3,408 # 20007198 <__sfputs_r>
200075b0:	00048613          	mv	a2,s1
200075b4:	02010593          	addi	a1,sp,32
200075b8:	00098513          	mv	a0,s3
200075bc:	1d4000ef          	jal	20007790 <_printf_i>
200075c0:	fc9ff06f          	j	20007588 <_vfiprintf_r+0x340>

200075c4 <vfiprintf>:
200075c4:	200097b7          	lui	a5,0x20009
200075c8:	00060693          	mv	a3,a2
200075cc:	00058613          	mv	a2,a1
200075d0:	00050593          	mv	a1,a0
200075d4:	4347a503          	lw	a0,1076(a5) # 20009434 <_impure_ptr>
200075d8:	c71ff06f          	j	20007248 <_vfiprintf_r>

200075dc <_printf_common>:
200075dc:	fd010113          	addi	sp,sp,-48
200075e0:	01312e23          	sw	s3,28(sp)
200075e4:	0105a783          	lw	a5,16(a1)
200075e8:	00070993          	mv	s3,a4
200075ec:	0085a703          	lw	a4,8(a1)
200075f0:	02812423          	sw	s0,40(sp)
200075f4:	03212023          	sw	s2,32(sp)
200075f8:	01612823          	sw	s6,16(sp)
200075fc:	01712623          	sw	s7,12(sp)
20007600:	02112623          	sw	ra,44(sp)
20007604:	02912223          	sw	s1,36(sp)
20007608:	01412c23          	sw	s4,24(sp)
2000760c:	01512a23          	sw	s5,20(sp)
20007610:	00050b13          	mv	s6,a0
20007614:	00058413          	mv	s0,a1
20007618:	00060913          	mv	s2,a2
2000761c:	00068b93          	mv	s7,a3
20007620:	00e7d463          	bge	a5,a4,20007628 <_printf_common+0x4c>
20007624:	00070793          	mv	a5,a4
20007628:	00f92023          	sw	a5,0(s2)
2000762c:	04344703          	lbu	a4,67(s0)
20007630:	00070663          	beqz	a4,2000763c <_printf_common+0x60>
20007634:	00178793          	addi	a5,a5,1
20007638:	00f92023          	sw	a5,0(s2)
2000763c:	00042783          	lw	a5,0(s0)
20007640:	0207f793          	andi	a5,a5,32
20007644:	00078863          	beqz	a5,20007654 <_printf_common+0x78>
20007648:	00092783          	lw	a5,0(s2)
2000764c:	00278793          	addi	a5,a5,2
20007650:	00f92023          	sw	a5,0(s2)
20007654:	00042483          	lw	s1,0(s0)
20007658:	0064f493          	andi	s1,s1,6
2000765c:	00049e63          	bnez	s1,20007678 <_printf_common+0x9c>
20007660:	01940a13          	addi	s4,s0,25
20007664:	fff00a93          	li	s5,-1
20007668:	00c42783          	lw	a5,12(s0)
2000766c:	00092703          	lw	a4,0(s2)
20007670:	40e787b3          	sub	a5,a5,a4
20007674:	08f4c463          	blt	s1,a5,200076fc <_printf_common+0x120>
20007678:	00042783          	lw	a5,0(s0)
2000767c:	04344683          	lbu	a3,67(s0)
20007680:	0207f793          	andi	a5,a5,32
20007684:	00d036b3          	snez	a3,a3
20007688:	0c079263          	bnez	a5,2000774c <_printf_common+0x170>
2000768c:	04340613          	addi	a2,s0,67
20007690:	000b8593          	mv	a1,s7
20007694:	000b0513          	mv	a0,s6
20007698:	000980e7          	jalr	s3
2000769c:	fff00793          	li	a5,-1
200076a0:	06f50a63          	beq	a0,a5,20007714 <_printf_common+0x138>
200076a4:	00042783          	lw	a5,0(s0)
200076a8:	00400713          	li	a4,4
200076ac:	00000493          	li	s1,0
200076b0:	0067f793          	andi	a5,a5,6
200076b4:	00e79e63          	bne	a5,a4,200076d0 <_printf_common+0xf4>
200076b8:	00092783          	lw	a5,0(s2)
200076bc:	00c42483          	lw	s1,12(s0)
200076c0:	40f484b3          	sub	s1,s1,a5
200076c4:	fff4c793          	not	a5,s1
200076c8:	41f7d793          	srai	a5,a5,0x1f
200076cc:	00f4f4b3          	and	s1,s1,a5
200076d0:	00842783          	lw	a5,8(s0)
200076d4:	01042703          	lw	a4,16(s0)
200076d8:	00f75663          	bge	a4,a5,200076e4 <_printf_common+0x108>
200076dc:	40e787b3          	sub	a5,a5,a4
200076e0:	00f484b3          	add	s1,s1,a5
200076e4:	00000913          	li	s2,0
200076e8:	01a40413          	addi	s0,s0,26
200076ec:	fff00a13          	li	s4,-1
200076f0:	09249063          	bne	s1,s2,20007770 <_printf_common+0x194>
200076f4:	00000513          	li	a0,0
200076f8:	0200006f          	j	20007718 <_printf_common+0x13c>
200076fc:	00100693          	li	a3,1
20007700:	000a0613          	mv	a2,s4
20007704:	000b8593          	mv	a1,s7
20007708:	000b0513          	mv	a0,s6
2000770c:	000980e7          	jalr	s3
20007710:	03551a63          	bne	a0,s5,20007744 <_printf_common+0x168>
20007714:	fff00513          	li	a0,-1
20007718:	02c12083          	lw	ra,44(sp)
2000771c:	02812403          	lw	s0,40(sp)
20007720:	02412483          	lw	s1,36(sp)
20007724:	02012903          	lw	s2,32(sp)
20007728:	01c12983          	lw	s3,28(sp)
2000772c:	01812a03          	lw	s4,24(sp)
20007730:	01412a83          	lw	s5,20(sp)
20007734:	01012b03          	lw	s6,16(sp)
20007738:	00c12b83          	lw	s7,12(sp)
2000773c:	03010113          	addi	sp,sp,48
20007740:	00008067          	ret
20007744:	00148493          	addi	s1,s1,1
20007748:	f21ff06f          	j	20007668 <_printf_common+0x8c>
2000774c:	00d40733          	add	a4,s0,a3
20007750:	03000613          	li	a2,48
20007754:	04c701a3          	sb	a2,67(a4)
20007758:	04544703          	lbu	a4,69(s0)
2000775c:	00168793          	addi	a5,a3,1
20007760:	00f407b3          	add	a5,s0,a5
20007764:	00268693          	addi	a3,a3,2
20007768:	04e781a3          	sb	a4,67(a5)
2000776c:	f21ff06f          	j	2000768c <_printf_common+0xb0>
20007770:	00100693          	li	a3,1
20007774:	00040613          	mv	a2,s0
20007778:	000b8593          	mv	a1,s7
2000777c:	000b0513          	mv	a0,s6
20007780:	000980e7          	jalr	s3
20007784:	f94508e3          	beq	a0,s4,20007714 <_printf_common+0x138>
20007788:	00190913          	addi	s2,s2,1
2000778c:	f65ff06f          	j	200076f0 <_printf_common+0x114>

20007790 <_printf_i>:
20007790:	fc010113          	addi	sp,sp,-64
20007794:	02812c23          	sw	s0,56(sp)
20007798:	02912a23          	sw	s1,52(sp)
2000779c:	03412423          	sw	s4,40(sp)
200077a0:	03512223          	sw	s5,36(sp)
200077a4:	02112e23          	sw	ra,60(sp)
200077a8:	03212823          	sw	s2,48(sp)
200077ac:	03312623          	sw	s3,44(sp)
200077b0:	0185c783          	lbu	a5,24(a1)
200077b4:	00068493          	mv	s1,a3
200077b8:	07800693          	li	a3,120
200077bc:	00050a13          	mv	s4,a0
200077c0:	00058413          	mv	s0,a1
200077c4:	00060a93          	mv	s5,a2
200077c8:	00f6ee63          	bltu	a3,a5,200077e4 <_printf_i+0x54>
200077cc:	06200693          	li	a3,98
200077d0:	04358613          	addi	a2,a1,67
200077d4:	00f6ec63          	bltu	a3,a5,200077ec <_printf_i+0x5c>
200077d8:	28078263          	beqz	a5,20007a5c <_printf_i+0x2cc>
200077dc:	05800693          	li	a3,88
200077e0:	20d78e63          	beq	a5,a3,200079fc <_printf_i+0x26c>
200077e4:	04240913          	addi	s2,s0,66
200077e8:	0400006f          	j	20007828 <_printf_i+0x98>
200077ec:	f9d78693          	addi	a3,a5,-99
200077f0:	0ff6f693          	zext.b	a3,a3
200077f4:	01500593          	li	a1,21
200077f8:	fed5e6e3          	bltu	a1,a3,200077e4 <_printf_i+0x54>
200077fc:	200095b7          	lui	a1,0x20009
20007800:	00269693          	slli	a3,a3,0x2
20007804:	0c458593          	addi	a1,a1,196 # 200090c4 <__clz_tab+0x13c>
20007808:	00b686b3          	add	a3,a3,a1
2000780c:	0006a683          	lw	a3,0(a3)
20007810:	00068067          	jr	a3
20007814:	00072783          	lw	a5,0(a4)
20007818:	04240913          	addi	s2,s0,66
2000781c:	00478693          	addi	a3,a5,4
20007820:	0007a783          	lw	a5,0(a5)
20007824:	00d72023          	sw	a3,0(a4)
20007828:	04f40123          	sb	a5,66(s0)
2000782c:	00100793          	li	a5,1
20007830:	2680006f          	j	20007a98 <_printf_i+0x308>
20007834:	00042783          	lw	a5,0(s0)
20007838:	00072503          	lw	a0,0(a4)
2000783c:	0807f693          	andi	a3,a5,128
20007840:	00450593          	addi	a1,a0,4
20007844:	02068663          	beqz	a3,20007870 <_printf_i+0xe0>
20007848:	00052783          	lw	a5,0(a0)
2000784c:	00b72023          	sw	a1,0(a4)
20007850:	200096b7          	lui	a3,0x20009
20007854:	0007d863          	bgez	a5,20007864 <_printf_i+0xd4>
20007858:	02d00713          	li	a4,45
2000785c:	40f007b3          	neg	a5,a5
20007860:	04e401a3          	sb	a4,67(s0)
20007864:	09c68693          	addi	a3,a3,156 # 2000909c <__clz_tab+0x114>
20007868:	00a00713          	li	a4,10
2000786c:	0680006f          	j	200078d4 <_printf_i+0x144>
20007870:	0407f693          	andi	a3,a5,64
20007874:	00052783          	lw	a5,0(a0)
20007878:	00b72023          	sw	a1,0(a4)
2000787c:	fc068ae3          	beqz	a3,20007850 <_printf_i+0xc0>
20007880:	01079793          	slli	a5,a5,0x10
20007884:	4107d793          	srai	a5,a5,0x10
20007888:	fc9ff06f          	j	20007850 <_printf_i+0xc0>
2000788c:	00042583          	lw	a1,0(s0)
20007890:	00072683          	lw	a3,0(a4)
20007894:	0805f513          	andi	a0,a1,128
20007898:	0006a783          	lw	a5,0(a3)
2000789c:	00468693          	addi	a3,a3,4
200078a0:	00051a63          	bnez	a0,200078b4 <_printf_i+0x124>
200078a4:	0405f593          	andi	a1,a1,64
200078a8:	00058663          	beqz	a1,200078b4 <_printf_i+0x124>
200078ac:	01079793          	slli	a5,a5,0x10
200078b0:	0107d793          	srli	a5,a5,0x10
200078b4:	00d72023          	sw	a3,0(a4)
200078b8:	01844583          	lbu	a1,24(s0)
200078bc:	200096b7          	lui	a3,0x20009
200078c0:	06f00713          	li	a4,111
200078c4:	09c68693          	addi	a3,a3,156 # 2000909c <__clz_tab+0x114>
200078c8:	14e59863          	bne	a1,a4,20007a18 <_printf_i+0x288>
200078cc:	00800713          	li	a4,8
200078d0:	040401a3          	sb	zero,67(s0)
200078d4:	00442583          	lw	a1,4(s0)
200078d8:	00b42423          	sw	a1,8(s0)
200078dc:	0005ce63          	bltz	a1,200078f8 <_printf_i+0x168>
200078e0:	00042503          	lw	a0,0(s0)
200078e4:	00b7e5b3          	or	a1,a5,a1
200078e8:	00060913          	mv	s2,a2
200078ec:	ffb57513          	andi	a0,a0,-5
200078f0:	00a42023          	sw	a0,0(s0)
200078f4:	02058463          	beqz	a1,2000791c <_printf_i+0x18c>
200078f8:	00060913          	mv	s2,a2
200078fc:	02e7f5b3          	remu	a1,a5,a4
20007900:	fff90913          	addi	s2,s2,-1
20007904:	00b685b3          	add	a1,a3,a1
20007908:	0005c583          	lbu	a1,0(a1)
2000790c:	00b90023          	sb	a1,0(s2)
20007910:	00078593          	mv	a1,a5
20007914:	02e7d7b3          	divu	a5,a5,a4
20007918:	fee5f2e3          	bgeu	a1,a4,200078fc <_printf_i+0x16c>
2000791c:	00800793          	li	a5,8
20007920:	02f71463          	bne	a4,a5,20007948 <_printf_i+0x1b8>
20007924:	00042783          	lw	a5,0(s0)
20007928:	0017f793          	andi	a5,a5,1
2000792c:	00078e63          	beqz	a5,20007948 <_printf_i+0x1b8>
20007930:	00442703          	lw	a4,4(s0)
20007934:	01042783          	lw	a5,16(s0)
20007938:	00e7c863          	blt	a5,a4,20007948 <_printf_i+0x1b8>
2000793c:	03000793          	li	a5,48
20007940:	fef90fa3          	sb	a5,-1(s2)
20007944:	fff90913          	addi	s2,s2,-1
20007948:	41260633          	sub	a2,a2,s2
2000794c:	00c42823          	sw	a2,16(s0)
20007950:	00048713          	mv	a4,s1
20007954:	000a8693          	mv	a3,s5
20007958:	01c10613          	addi	a2,sp,28
2000795c:	00040593          	mv	a1,s0
20007960:	000a0513          	mv	a0,s4
20007964:	c79ff0ef          	jal	200075dc <_printf_common>
20007968:	fff00993          	li	s3,-1
2000796c:	13351c63          	bne	a0,s3,20007aa4 <_printf_i+0x314>
20007970:	fff00513          	li	a0,-1
20007974:	03c12083          	lw	ra,60(sp)
20007978:	03812403          	lw	s0,56(sp)
2000797c:	03412483          	lw	s1,52(sp)
20007980:	03012903          	lw	s2,48(sp)
20007984:	02c12983          	lw	s3,44(sp)
20007988:	02812a03          	lw	s4,40(sp)
2000798c:	02412a83          	lw	s5,36(sp)
20007990:	04010113          	addi	sp,sp,64
20007994:	00008067          	ret
20007998:	00042783          	lw	a5,0(s0)
2000799c:	0207e793          	ori	a5,a5,32
200079a0:	00f42023          	sw	a5,0(s0)
200079a4:	200096b7          	lui	a3,0x20009
200079a8:	07800793          	li	a5,120
200079ac:	0b068693          	addi	a3,a3,176 # 200090b0 <__clz_tab+0x128>
200079b0:	04f402a3          	sb	a5,69(s0)
200079b4:	00042583          	lw	a1,0(s0)
200079b8:	00072503          	lw	a0,0(a4)
200079bc:	0805f813          	andi	a6,a1,128
200079c0:	00052783          	lw	a5,0(a0)
200079c4:	00450513          	addi	a0,a0,4
200079c8:	00081a63          	bnez	a6,200079dc <_printf_i+0x24c>
200079cc:	0405f813          	andi	a6,a1,64
200079d0:	00080663          	beqz	a6,200079dc <_printf_i+0x24c>
200079d4:	01079793          	slli	a5,a5,0x10
200079d8:	0107d793          	srli	a5,a5,0x10
200079dc:	00a72023          	sw	a0,0(a4)
200079e0:	0015f713          	andi	a4,a1,1
200079e4:	00070663          	beqz	a4,200079f0 <_printf_i+0x260>
200079e8:	0205e593          	ori	a1,a1,32
200079ec:	00b42023          	sw	a1,0(s0)
200079f0:	00078c63          	beqz	a5,20007a08 <_printf_i+0x278>
200079f4:	01000713          	li	a4,16
200079f8:	ed9ff06f          	j	200078d0 <_printf_i+0x140>
200079fc:	200096b7          	lui	a3,0x20009
20007a00:	09c68693          	addi	a3,a3,156 # 2000909c <__clz_tab+0x114>
20007a04:	fadff06f          	j	200079b0 <_printf_i+0x220>
20007a08:	00042703          	lw	a4,0(s0)
20007a0c:	fdf77713          	andi	a4,a4,-33
20007a10:	00e42023          	sw	a4,0(s0)
20007a14:	fe1ff06f          	j	200079f4 <_printf_i+0x264>
20007a18:	00a00713          	li	a4,10
20007a1c:	eb5ff06f          	j	200078d0 <_printf_i+0x140>
20007a20:	00042683          	lw	a3,0(s0)
20007a24:	00072783          	lw	a5,0(a4)
20007a28:	01442583          	lw	a1,20(s0)
20007a2c:	0806f813          	andi	a6,a3,128
20007a30:	00478513          	addi	a0,a5,4
20007a34:	00080a63          	beqz	a6,20007a48 <_printf_i+0x2b8>
20007a38:	00a72023          	sw	a0,0(a4)
20007a3c:	0007a783          	lw	a5,0(a5)
20007a40:	00b7a023          	sw	a1,0(a5)
20007a44:	0180006f          	j	20007a5c <_printf_i+0x2cc>
20007a48:	00a72023          	sw	a0,0(a4)
20007a4c:	0406f693          	andi	a3,a3,64
20007a50:	0007a783          	lw	a5,0(a5)
20007a54:	fe0686e3          	beqz	a3,20007a40 <_printf_i+0x2b0>
20007a58:	00b79023          	sh	a1,0(a5)
20007a5c:	00042823          	sw	zero,16(s0)
20007a60:	00060913          	mv	s2,a2
20007a64:	eedff06f          	j	20007950 <_printf_i+0x1c0>
20007a68:	00072783          	lw	a5,0(a4)
20007a6c:	00442603          	lw	a2,4(s0)
20007a70:	00000593          	li	a1,0
20007a74:	00478693          	addi	a3,a5,4
20007a78:	00d72023          	sw	a3,0(a4)
20007a7c:	0007a903          	lw	s2,0(a5)
20007a80:	00090513          	mv	a0,s2
20007a84:	7ad000ef          	jal	20008a30 <memchr>
20007a88:	00050663          	beqz	a0,20007a94 <_printf_i+0x304>
20007a8c:	41250533          	sub	a0,a0,s2
20007a90:	00a42223          	sw	a0,4(s0)
20007a94:	00442783          	lw	a5,4(s0)
20007a98:	00f42823          	sw	a5,16(s0)
20007a9c:	040401a3          	sb	zero,67(s0)
20007aa0:	eb1ff06f          	j	20007950 <_printf_i+0x1c0>
20007aa4:	01042683          	lw	a3,16(s0)
20007aa8:	00090613          	mv	a2,s2
20007aac:	000a8593          	mv	a1,s5
20007ab0:	000a0513          	mv	a0,s4
20007ab4:	000480e7          	jalr	s1
20007ab8:	eb350ce3          	beq	a0,s3,20007970 <_printf_i+0x1e0>
20007abc:	00042783          	lw	a5,0(s0)
20007ac0:	0027f793          	andi	a5,a5,2
20007ac4:	04079663          	bnez	a5,20007b10 <_printf_i+0x380>
20007ac8:	01c12783          	lw	a5,28(sp)
20007acc:	00c42503          	lw	a0,12(s0)
20007ad0:	eaf552e3          	bge	a0,a5,20007974 <_printf_i+0x1e4>
20007ad4:	00078513          	mv	a0,a5
20007ad8:	e9dff06f          	j	20007974 <_printf_i+0x1e4>
20007adc:	00100693          	li	a3,1
20007ae0:	000a8593          	mv	a1,s5
20007ae4:	000a0513          	mv	a0,s4
20007ae8:	00c12623          	sw	a2,12(sp)
20007aec:	000480e7          	jalr	s1
20007af0:	e93500e3          	beq	a0,s3,20007970 <_printf_i+0x1e0>
20007af4:	00c12603          	lw	a2,12(sp)
20007af8:	00190913          	addi	s2,s2,1
20007afc:	00c42783          	lw	a5,12(s0)
20007b00:	01c12703          	lw	a4,28(sp)
20007b04:	40e787b3          	sub	a5,a5,a4
20007b08:	fcf94ae3          	blt	s2,a5,20007adc <_printf_i+0x34c>
20007b0c:	fbdff06f          	j	20007ac8 <_printf_i+0x338>
20007b10:	00000913          	li	s2,0
20007b14:	01940613          	addi	a2,s0,25
20007b18:	fe5ff06f          	j	20007afc <_printf_i+0x36c>

20007b1c <__sflush_r>:
20007b1c:	00c59783          	lh	a5,12(a1)
20007b20:	fe010113          	addi	sp,sp,-32
20007b24:	00812c23          	sw	s0,24(sp)
20007b28:	00912a23          	sw	s1,20(sp)
20007b2c:	00112e23          	sw	ra,28(sp)
20007b30:	01212823          	sw	s2,16(sp)
20007b34:	0087f713          	andi	a4,a5,8
20007b38:	00050493          	mv	s1,a0
20007b3c:	00058413          	mv	s0,a1
20007b40:	12071263          	bnez	a4,20007c64 <__sflush_r+0x148>
20007b44:	0045a703          	lw	a4,4(a1)
20007b48:	00e04663          	bgtz	a4,20007b54 <__sflush_r+0x38>
20007b4c:	0405a703          	lw	a4,64(a1)
20007b50:	10e05663          	blez	a4,20007c5c <__sflush_r+0x140>
20007b54:	02c42703          	lw	a4,44(s0)
20007b58:	10070263          	beqz	a4,20007c5c <__sflush_r+0x140>
20007b5c:	0004a903          	lw	s2,0(s1)
20007b60:	01379693          	slli	a3,a5,0x13
20007b64:	0004a023          	sw	zero,0(s1)
20007b68:	0a06dc63          	bgez	a3,20007c20 <__sflush_r+0x104>
20007b6c:	05442603          	lw	a2,84(s0)
20007b70:	00c45783          	lhu	a5,12(s0)
20007b74:	0047f793          	andi	a5,a5,4
20007b78:	00078e63          	beqz	a5,20007b94 <__sflush_r+0x78>
20007b7c:	00442783          	lw	a5,4(s0)
20007b80:	40f60633          	sub	a2,a2,a5
20007b84:	03442783          	lw	a5,52(s0)
20007b88:	00078663          	beqz	a5,20007b94 <__sflush_r+0x78>
20007b8c:	04042783          	lw	a5,64(s0)
20007b90:	40f60633          	sub	a2,a2,a5
20007b94:	02c42783          	lw	a5,44(s0)
20007b98:	02042583          	lw	a1,32(s0)
20007b9c:	00000693          	li	a3,0
20007ba0:	00048513          	mv	a0,s1
20007ba4:	000780e7          	jalr	a5
20007ba8:	fff00713          	li	a4,-1
20007bac:	00c41783          	lh	a5,12(s0)
20007bb0:	02e51263          	bne	a0,a4,20007bd4 <__sflush_r+0xb8>
20007bb4:	0004a683          	lw	a3,0(s1)
20007bb8:	01d00713          	li	a4,29
20007bbc:	0ed76c63          	bltu	a4,a3,20007cb4 <__sflush_r+0x198>
20007bc0:	20400737          	lui	a4,0x20400
20007bc4:	00170713          	addi	a4,a4,1 # 20400001 <__stack_top+0x3f5e3d>
20007bc8:	00d75733          	srl	a4,a4,a3
20007bcc:	00177713          	andi	a4,a4,1
20007bd0:	0e070263          	beqz	a4,20007cb4 <__sflush_r+0x198>
20007bd4:	01042703          	lw	a4,16(s0)
20007bd8:	00042223          	sw	zero,4(s0)
20007bdc:	00e42023          	sw	a4,0(s0)
20007be0:	01379713          	slli	a4,a5,0x13
20007be4:	00075c63          	bgez	a4,20007bfc <__sflush_r+0xe0>
20007be8:	fff00793          	li	a5,-1
20007bec:	00f51663          	bne	a0,a5,20007bf8 <__sflush_r+0xdc>
20007bf0:	0004a783          	lw	a5,0(s1)
20007bf4:	00079463          	bnez	a5,20007bfc <__sflush_r+0xe0>
20007bf8:	04a42a23          	sw	a0,84(s0)
20007bfc:	03442583          	lw	a1,52(s0)
20007c00:	0124a023          	sw	s2,0(s1)
20007c04:	04058c63          	beqz	a1,20007c5c <__sflush_r+0x140>
20007c08:	04440793          	addi	a5,s0,68
20007c0c:	00f58663          	beq	a1,a5,20007c18 <__sflush_r+0xfc>
20007c10:	00048513          	mv	a0,s1
20007c14:	9dcff0ef          	jal	20006df0 <_free_r>
20007c18:	02042a23          	sw	zero,52(s0)
20007c1c:	0400006f          	j	20007c5c <__sflush_r+0x140>
20007c20:	02042583          	lw	a1,32(s0)
20007c24:	00000613          	li	a2,0
20007c28:	00100693          	li	a3,1
20007c2c:	00048513          	mv	a0,s1
20007c30:	000700e7          	jalr	a4
20007c34:	fff00793          	li	a5,-1
20007c38:	00050613          	mv	a2,a0
20007c3c:	f2f51ae3          	bne	a0,a5,20007b70 <__sflush_r+0x54>
20007c40:	0004a783          	lw	a5,0(s1)
20007c44:	f20786e3          	beqz	a5,20007b70 <__sflush_r+0x54>
20007c48:	fe378713          	addi	a4,a5,-29
20007c4c:	00070663          	beqz	a4,20007c58 <__sflush_r+0x13c>
20007c50:	fea78793          	addi	a5,a5,-22
20007c54:	04079e63          	bnez	a5,20007cb0 <__sflush_r+0x194>
20007c58:	0124a023          	sw	s2,0(s1)
20007c5c:	00000513          	li	a0,0
20007c60:	0600006f          	j	20007cc0 <__sflush_r+0x1a4>
20007c64:	0105a603          	lw	a2,16(a1)
20007c68:	fe060ae3          	beqz	a2,20007c5c <__sflush_r+0x140>
20007c6c:	0005a683          	lw	a3,0(a1)
20007c70:	0037f793          	andi	a5,a5,3
20007c74:	00c5a023          	sw	a2,0(a1)
20007c78:	40c68933          	sub	s2,a3,a2
20007c7c:	00000713          	li	a4,0
20007c80:	00079463          	bnez	a5,20007c88 <__sflush_r+0x16c>
20007c84:	0145a703          	lw	a4,20(a1)
20007c88:	00e42423          	sw	a4,8(s0)
20007c8c:	fd2058e3          	blez	s2,20007c5c <__sflush_r+0x140>
20007c90:	02842783          	lw	a5,40(s0)
20007c94:	02042583          	lw	a1,32(s0)
20007c98:	00090693          	mv	a3,s2
20007c9c:	00048513          	mv	a0,s1
20007ca0:	00c12623          	sw	a2,12(sp)
20007ca4:	000780e7          	jalr	a5
20007ca8:	00c12603          	lw	a2,12(sp)
20007cac:	02a04663          	bgtz	a0,20007cd8 <__sflush_r+0x1bc>
20007cb0:	00c45783          	lhu	a5,12(s0)
20007cb4:	0407e793          	ori	a5,a5,64
20007cb8:	00f41623          	sh	a5,12(s0)
20007cbc:	fff00513          	li	a0,-1
20007cc0:	01c12083          	lw	ra,28(sp)
20007cc4:	01812403          	lw	s0,24(sp)
20007cc8:	01412483          	lw	s1,20(sp)
20007ccc:	01012903          	lw	s2,16(sp)
20007cd0:	02010113          	addi	sp,sp,32
20007cd4:	00008067          	ret
20007cd8:	00a60633          	add	a2,a2,a0
20007cdc:	40a90933          	sub	s2,s2,a0
20007ce0:	fadff06f          	j	20007c8c <__sflush_r+0x170>

20007ce4 <_fflush_r>:
20007ce4:	0105a783          	lw	a5,16(a1)
20007ce8:	04078e63          	beqz	a5,20007d44 <_fflush_r+0x60>
20007cec:	fe010113          	addi	sp,sp,-32
20007cf0:	00812c23          	sw	s0,24(sp)
20007cf4:	00112e23          	sw	ra,28(sp)
20007cf8:	00050413          	mv	s0,a0
20007cfc:	00050c63          	beqz	a0,20007d14 <_fflush_r+0x30>
20007d00:	02052783          	lw	a5,32(a0)
20007d04:	00079863          	bnez	a5,20007d14 <_fflush_r+0x30>
20007d08:	00b12623          	sw	a1,12(sp)
20007d0c:	2fc000ef          	jal	20008008 <__sinit>
20007d10:	00c12583          	lw	a1,12(sp)
20007d14:	00c59783          	lh	a5,12(a1)
20007d18:	00078c63          	beqz	a5,20007d30 <_fflush_r+0x4c>
20007d1c:	00040513          	mv	a0,s0
20007d20:	01812403          	lw	s0,24(sp)
20007d24:	01c12083          	lw	ra,28(sp)
20007d28:	02010113          	addi	sp,sp,32
20007d2c:	df1ff06f          	j	20007b1c <__sflush_r>
20007d30:	01c12083          	lw	ra,28(sp)
20007d34:	01812403          	lw	s0,24(sp)
20007d38:	00000513          	li	a0,0
20007d3c:	02010113          	addi	sp,sp,32
20007d40:	00008067          	ret
20007d44:	00000513          	li	a0,0
20007d48:	00008067          	ret

20007d4c <fflush>:
20007d4c:	00050593          	mv	a1,a0
20007d50:	02051063          	bnez	a0,20007d70 <fflush+0x24>
20007d54:	20009637          	lui	a2,0x20009
20007d58:	200085b7          	lui	a1,0x20008
20007d5c:	20009537          	lui	a0,0x20009
20007d60:	42860613          	addi	a2,a2,1064 # 20009428 <__sglue>
20007d64:	ce458593          	addi	a1,a1,-796 # 20007ce4 <_fflush_r>
20007d68:	3dc50513          	addi	a0,a0,988 # 200093dc <_impure_data>
20007d6c:	75c0006f          	j	200084c8 <_fwalk_sglue>
20007d70:	200097b7          	lui	a5,0x20009
20007d74:	4347a503          	lw	a0,1076(a5) # 20009434 <_impure_ptr>
20007d78:	f6dff06f          	j	20007ce4 <_fflush_r>

20007d7c <__fp_lock>:
20007d7c:	00000513          	li	a0,0
20007d80:	00008067          	ret

20007d84 <std>:
20007d84:	ff010113          	addi	sp,sp,-16
20007d88:	00812423          	sw	s0,8(sp)
20007d8c:	00112623          	sw	ra,12(sp)
20007d90:	00050413          	mv	s0,a0
20007d94:	00b51623          	sh	a1,12(a0)
20007d98:	00c51723          	sh	a2,14(a0)
20007d9c:	00052023          	sw	zero,0(a0)
20007da0:	00052223          	sw	zero,4(a0)
20007da4:	00052423          	sw	zero,8(a0)
20007da8:	06052223          	sw	zero,100(a0)
20007dac:	00052823          	sw	zero,16(a0)
20007db0:	00052a23          	sw	zero,20(a0)
20007db4:	00052c23          	sw	zero,24(a0)
20007db8:	00800613          	li	a2,8
20007dbc:	00000593          	li	a1,0
20007dc0:	05c50513          	addi	a0,a0,92
20007dc4:	078010ef          	jal	20008e3c <memset>
20007dc8:	200087b7          	lui	a5,0x20008
20007dcc:	6c878793          	addi	a5,a5,1736 # 200086c8 <__sread>
20007dd0:	02f42223          	sw	a5,36(s0)
20007dd4:	200087b7          	lui	a5,0x20008
20007dd8:	72078793          	addi	a5,a5,1824 # 20008720 <__swrite>
20007ddc:	02f42423          	sw	a5,40(s0)
20007de0:	200087b7          	lui	a5,0x20008
20007de4:	7a478793          	addi	a5,a5,1956 # 200087a4 <__sseek>
20007de8:	02f42623          	sw	a5,44(s0)
20007dec:	200087b7          	lui	a5,0x20008
20007df0:	7fc78793          	addi	a5,a5,2044 # 200087fc <__sclose>
20007df4:	00c12083          	lw	ra,12(sp)
20007df8:	02842023          	sw	s0,32(s0)
20007dfc:	02f42823          	sw	a5,48(s0)
20007e00:	00812403          	lw	s0,8(sp)
20007e04:	01010113          	addi	sp,sp,16
20007e08:	00008067          	ret

20007e0c <stdio_exit_handler>:
20007e0c:	20009637          	lui	a2,0x20009
20007e10:	200085b7          	lui	a1,0x20008
20007e14:	20009537          	lui	a0,0x20009
20007e18:	42860613          	addi	a2,a2,1064 # 20009428 <__sglue>
20007e1c:	ce458593          	addi	a1,a1,-796 # 20007ce4 <_fflush_r>
20007e20:	3dc50513          	addi	a0,a0,988 # 200093dc <_impure_data>
20007e24:	6a40006f          	j	200084c8 <_fwalk_sglue>

20007e28 <cleanup_stdio>:
20007e28:	00452583          	lw	a1,4(a0)
20007e2c:	ff010113          	addi	sp,sp,-16
20007e30:	200097b7          	lui	a5,0x20009
20007e34:	00812423          	sw	s0,8(sp)
20007e38:	00112623          	sw	ra,12(sp)
20007e3c:	45c78793          	addi	a5,a5,1116 # 2000945c <__sf>
20007e40:	00050413          	mv	s0,a0
20007e44:	00f58463          	beq	a1,a5,20007e4c <cleanup_stdio+0x24>
20007e48:	e9dff0ef          	jal	20007ce4 <_fflush_r>
20007e4c:	00842583          	lw	a1,8(s0)
20007e50:	200097b7          	lui	a5,0x20009
20007e54:	4c478793          	addi	a5,a5,1220 # 200094c4 <__sf+0x68>
20007e58:	00f58663          	beq	a1,a5,20007e64 <cleanup_stdio+0x3c>
20007e5c:	00040513          	mv	a0,s0
20007e60:	e85ff0ef          	jal	20007ce4 <_fflush_r>
20007e64:	00c42583          	lw	a1,12(s0)
20007e68:	200097b7          	lui	a5,0x20009
20007e6c:	52c78793          	addi	a5,a5,1324 # 2000952c <__sf+0xd0>
20007e70:	00f58c63          	beq	a1,a5,20007e88 <cleanup_stdio+0x60>
20007e74:	00040513          	mv	a0,s0
20007e78:	00812403          	lw	s0,8(sp)
20007e7c:	00c12083          	lw	ra,12(sp)
20007e80:	01010113          	addi	sp,sp,16
20007e84:	e61ff06f          	j	20007ce4 <_fflush_r>
20007e88:	00c12083          	lw	ra,12(sp)
20007e8c:	00812403          	lw	s0,8(sp)
20007e90:	01010113          	addi	sp,sp,16
20007e94:	00008067          	ret

20007e98 <global_stdio_init.part.0>:
20007e98:	200087b7          	lui	a5,0x20008
20007e9c:	20009537          	lui	a0,0x20009
20007ea0:	ff010113          	addi	sp,sp,-16
20007ea4:	20009737          	lui	a4,0x20009
20007ea8:	e0c78793          	addi	a5,a5,-500 # 20007e0c <stdio_exit_handler>
20007eac:	00000613          	li	a2,0
20007eb0:	00400593          	li	a1,4
20007eb4:	45c50513          	addi	a0,a0,1116 # 2000945c <__sf>
20007eb8:	00112623          	sw	ra,12(sp)
20007ebc:	5af72e23          	sw	a5,1468(a4) # 200095bc <__stdio_exit_handler>
20007ec0:	ec5ff0ef          	jal	20007d84 <std>
20007ec4:	20009537          	lui	a0,0x20009
20007ec8:	00100613          	li	a2,1
20007ecc:	00900593          	li	a1,9
20007ed0:	4c450513          	addi	a0,a0,1220 # 200094c4 <__sf+0x68>
20007ed4:	eb1ff0ef          	jal	20007d84 <std>
20007ed8:	00c12083          	lw	ra,12(sp)
20007edc:	20009537          	lui	a0,0x20009
20007ee0:	00200613          	li	a2,2
20007ee4:	01200593          	li	a1,18
20007ee8:	52c50513          	addi	a0,a0,1324 # 2000952c <__sf+0xd0>
20007eec:	01010113          	addi	sp,sp,16
20007ef0:	e95ff06f          	j	20007d84 <std>

20007ef4 <__fp_unlock>:
20007ef4:	00000513          	li	a0,0
20007ef8:	00008067          	ret

20007efc <__sfp>:
20007efc:	200097b7          	lui	a5,0x20009
20007f00:	5bc7a783          	lw	a5,1468(a5) # 200095bc <__stdio_exit_handler>
20007f04:	ff010113          	addi	sp,sp,-16
20007f08:	01212023          	sw	s2,0(sp)
20007f0c:	00112623          	sw	ra,12(sp)
20007f10:	00812423          	sw	s0,8(sp)
20007f14:	00912223          	sw	s1,4(sp)
20007f18:	00050913          	mv	s2,a0
20007f1c:	00079463          	bnez	a5,20007f24 <__sfp+0x28>
20007f20:	f79ff0ef          	jal	20007e98 <global_stdio_init.part.0>
20007f24:	200094b7          	lui	s1,0x20009
20007f28:	42848493          	addi	s1,s1,1064 # 20009428 <__sglue>
20007f2c:	0084a403          	lw	s0,8(s1)
20007f30:	0044a783          	lw	a5,4(s1)
20007f34:	fff78793          	addi	a5,a5,-1
20007f38:	0207d863          	bgez	a5,20007f68 <__sfp+0x6c>
20007f3c:	0004a403          	lw	s0,0(s1)
20007f40:	0c041063          	bnez	s0,20008000 <__sfp+0x104>
20007f44:	1ac00593          	li	a1,428
20007f48:	00090513          	mv	a0,s2
20007f4c:	848ff0ef          	jal	20006f94 <_malloc_r>
20007f50:	00050413          	mv	s0,a0
20007f54:	08051463          	bnez	a0,20007fdc <__sfp+0xe0>
20007f58:	0004a023          	sw	zero,0(s1)
20007f5c:	00c00793          	li	a5,12
20007f60:	00f92023          	sw	a5,0(s2)
20007f64:	0540006f          	j	20007fb8 <__sfp+0xbc>
20007f68:	00c41703          	lh	a4,12(s0)
20007f6c:	06071463          	bnez	a4,20007fd4 <__sfp+0xd8>
20007f70:	ffff07b7          	lui	a5,0xffff0
20007f74:	00178793          	addi	a5,a5,1 # ffff0001 <__stack_top+0xdffe5e3d>
20007f78:	06042223          	sw	zero,100(s0)
20007f7c:	00042023          	sw	zero,0(s0)
20007f80:	00042223          	sw	zero,4(s0)
20007f84:	00042423          	sw	zero,8(s0)
20007f88:	00f42623          	sw	a5,12(s0)
20007f8c:	00042823          	sw	zero,16(s0)
20007f90:	00042a23          	sw	zero,20(s0)
20007f94:	00042c23          	sw	zero,24(s0)
20007f98:	00800613          	li	a2,8
20007f9c:	00000593          	li	a1,0
20007fa0:	05c40513          	addi	a0,s0,92
20007fa4:	699000ef          	jal	20008e3c <memset>
20007fa8:	02042a23          	sw	zero,52(s0)
20007fac:	02042c23          	sw	zero,56(s0)
20007fb0:	04042423          	sw	zero,72(s0)
20007fb4:	04042623          	sw	zero,76(s0)
20007fb8:	00c12083          	lw	ra,12(sp)
20007fbc:	00040513          	mv	a0,s0
20007fc0:	00812403          	lw	s0,8(sp)
20007fc4:	00412483          	lw	s1,4(sp)
20007fc8:	00012903          	lw	s2,0(sp)
20007fcc:	01010113          	addi	sp,sp,16
20007fd0:	00008067          	ret
20007fd4:	06840413          	addi	s0,s0,104
20007fd8:	f5dff06f          	j	20007f34 <__sfp+0x38>
20007fdc:	00400793          	li	a5,4
20007fe0:	00052023          	sw	zero,0(a0)
20007fe4:	00f52223          	sw	a5,4(a0)
20007fe8:	00c50513          	addi	a0,a0,12
20007fec:	00a42423          	sw	a0,8(s0)
20007ff0:	1a000613          	li	a2,416
20007ff4:	00000593          	li	a1,0
20007ff8:	645000ef          	jal	20008e3c <memset>
20007ffc:	0084a023          	sw	s0,0(s1)
20008000:	00040493          	mv	s1,s0
20008004:	f29ff06f          	j	20007f2c <__sfp+0x30>

20008008 <__sinit>:
20008008:	02052783          	lw	a5,32(a0)
2000800c:	02079063          	bnez	a5,2000802c <__sinit+0x24>
20008010:	200087b7          	lui	a5,0x20008
20008014:	e2878793          	addi	a5,a5,-472 # 20007e28 <cleanup_stdio>
20008018:	02f52023          	sw	a5,32(a0)
2000801c:	200097b7          	lui	a5,0x20009
20008020:	5bc7a783          	lw	a5,1468(a5) # 200095bc <__stdio_exit_handler>
20008024:	00079463          	bnez	a5,2000802c <__sinit+0x24>
20008028:	e71ff06f          	j	20007e98 <global_stdio_init.part.0>
2000802c:	00008067          	ret

20008030 <__sfp_lock_acquire>:
20008030:	00008067          	ret

20008034 <__sfp_lock_release>:
20008034:	00008067          	ret

20008038 <__fp_lock_all>:
20008038:	20009637          	lui	a2,0x20009
2000803c:	200085b7          	lui	a1,0x20008
20008040:	42860613          	addi	a2,a2,1064 # 20009428 <__sglue>
20008044:	d7c58593          	addi	a1,a1,-644 # 20007d7c <__fp_lock>
20008048:	00000513          	li	a0,0
2000804c:	47c0006f          	j	200084c8 <_fwalk_sglue>

20008050 <__fp_unlock_all>:
20008050:	20009637          	lui	a2,0x20009
20008054:	200085b7          	lui	a1,0x20008
20008058:	42860613          	addi	a2,a2,1064 # 20009428 <__sglue>
2000805c:	ef458593          	addi	a1,a1,-268 # 20007ef4 <__fp_unlock>
20008060:	00000513          	li	a0,0
20008064:	4640006f          	j	200084c8 <_fwalk_sglue>

20008068 <__sfvwrite_r>:
20008068:	00862783          	lw	a5,8(a2)
2000806c:	04079663          	bnez	a5,200080b8 <__sfvwrite_r+0x50>
20008070:	00000513          	li	a0,0
20008074:	00008067          	ret
20008078:	00000513          	li	a0,0
2000807c:	03c12083          	lw	ra,60(sp)
20008080:	03812403          	lw	s0,56(sp)
20008084:	03412483          	lw	s1,52(sp)
20008088:	03012903          	lw	s2,48(sp)
2000808c:	02c12983          	lw	s3,44(sp)
20008090:	02812a03          	lw	s4,40(sp)
20008094:	02412a83          	lw	s5,36(sp)
20008098:	02012b03          	lw	s6,32(sp)
2000809c:	01c12b83          	lw	s7,28(sp)
200080a0:	01812c03          	lw	s8,24(sp)
200080a4:	01412c83          	lw	s9,20(sp)
200080a8:	01012d03          	lw	s10,16(sp)
200080ac:	00c12d83          	lw	s11,12(sp)
200080b0:	04010113          	addi	sp,sp,64
200080b4:	00008067          	ret
200080b8:	00c5d783          	lhu	a5,12(a1)
200080bc:	fc010113          	addi	sp,sp,-64
200080c0:	02812c23          	sw	s0,56(sp)
200080c4:	03312623          	sw	s3,44(sp)
200080c8:	03512223          	sw	s5,36(sp)
200080cc:	02112e23          	sw	ra,60(sp)
200080d0:	02912a23          	sw	s1,52(sp)
200080d4:	03212823          	sw	s2,48(sp)
200080d8:	03412423          	sw	s4,40(sp)
200080dc:	03612023          	sw	s6,32(sp)
200080e0:	01712e23          	sw	s7,28(sp)
200080e4:	01812c23          	sw	s8,24(sp)
200080e8:	01912a23          	sw	s9,20(sp)
200080ec:	01a12823          	sw	s10,16(sp)
200080f0:	01b12623          	sw	s11,12(sp)
200080f4:	0087f793          	andi	a5,a5,8
200080f8:	00060a93          	mv	s5,a2
200080fc:	00058413          	mv	s0,a1
20008100:	00050993          	mv	s3,a0
20008104:	0e078263          	beqz	a5,200081e8 <__sfvwrite_r+0x180>
20008108:	0105a783          	lw	a5,16(a1)
2000810c:	0c078e63          	beqz	a5,200081e8 <__sfvwrite_r+0x180>
20008110:	00c41783          	lh	a5,12(s0)
20008114:	000aaa03          	lw	s4,0(s5)
20008118:	0027f713          	andi	a4,a5,2
2000811c:	12071c63          	bnez	a4,20008254 <__sfvwrite_r+0x1ec>
20008120:	0017f793          	andi	a5,a5,1
20008124:	1c078c63          	beqz	a5,200082fc <__sfvwrite_r+0x294>
20008128:	00000b93          	li	s7,0
2000812c:	00000513          	li	a0,0
20008130:	00000b13          	li	s6,0
20008134:	00000913          	li	s2,0
20008138:	32090663          	beqz	s2,20008464 <__sfvwrite_r+0x3fc>
2000813c:	02051263          	bnez	a0,20008160 <__sfvwrite_r+0xf8>
20008140:	00090613          	mv	a2,s2
20008144:	00a00593          	li	a1,10
20008148:	000b0513          	mv	a0,s6
2000814c:	0e5000ef          	jal	20008a30 <memchr>
20008150:	00190b93          	addi	s7,s2,1
20008154:	00050663          	beqz	a0,20008160 <__sfvwrite_r+0xf8>
20008158:	00150513          	addi	a0,a0,1
2000815c:	41650bb3          	sub	s7,a0,s6
20008160:	000b8c13          	mv	s8,s7
20008164:	01797463          	bgeu	s2,s7,2000816c <__sfvwrite_r+0x104>
20008168:	00090c13          	mv	s8,s2
2000816c:	01442683          	lw	a3,20(s0)
20008170:	00842483          	lw	s1,8(s0)
20008174:	00042503          	lw	a0,0(s0)
20008178:	01042783          	lw	a5,16(s0)
2000817c:	009684b3          	add	s1,a3,s1
20008180:	2ea7fc63          	bgeu	a5,a0,20008478 <__sfvwrite_r+0x410>
20008184:	2f84da63          	bge	s1,s8,20008478 <__sfvwrite_r+0x410>
20008188:	000b0593          	mv	a1,s6
2000818c:	00048613          	mv	a2,s1
20008190:	471000ef          	jal	20008e00 <memmove>
20008194:	00042783          	lw	a5,0(s0)
20008198:	00040593          	mv	a1,s0
2000819c:	00098513          	mv	a0,s3
200081a0:	009787b3          	add	a5,a5,s1
200081a4:	00f42023          	sw	a5,0(s0)
200081a8:	b3dff0ef          	jal	20007ce4 <_fflush_r>
200081ac:	14051063          	bnez	a0,200082ec <__sfvwrite_r+0x284>
200081b0:	409b8bb3          	sub	s7,s7,s1
200081b4:	00100513          	li	a0,1
200081b8:	000b9a63          	bnez	s7,200081cc <__sfvwrite_r+0x164>
200081bc:	00040593          	mv	a1,s0
200081c0:	00098513          	mv	a0,s3
200081c4:	b21ff0ef          	jal	20007ce4 <_fflush_r>
200081c8:	12051263          	bnez	a0,200082ec <__sfvwrite_r+0x284>
200081cc:	008aa783          	lw	a5,8(s5)
200081d0:	409787b3          	sub	a5,a5,s1
200081d4:	00faa423          	sw	a5,8(s5)
200081d8:	ea0780e3          	beqz	a5,20008078 <__sfvwrite_r+0x10>
200081dc:	009b0b33          	add	s6,s6,s1
200081e0:	40990933          	sub	s2,s2,s1
200081e4:	f55ff06f          	j	20008138 <__sfvwrite_r+0xd0>
200081e8:	00040593          	mv	a1,s0
200081ec:	00098513          	mv	a0,s3
200081f0:	724000ef          	jal	20008914 <__swsetup_r>
200081f4:	f0050ee3          	beqz	a0,20008110 <__sfvwrite_r+0xa8>
200081f8:	fff00513          	li	a0,-1
200081fc:	e81ff06f          	j	2000807c <__sfvwrite_r+0x14>
20008200:	000a2903          	lw	s2,0(s4)
20008204:	004a2483          	lw	s1,4(s4)
20008208:	008a0a13          	addi	s4,s4,8
2000820c:	fe048ae3          	beqz	s1,20008200 <__sfvwrite_r+0x198>
20008210:	00048693          	mv	a3,s1
20008214:	009b7663          	bgeu	s6,s1,20008220 <__sfvwrite_r+0x1b8>
20008218:	800006b7          	lui	a3,0x80000
2000821c:	c0068693          	addi	a3,a3,-1024 # 7ffffc00 <__stack_top+0x5fff5a3c>
20008220:	02842783          	lw	a5,40(s0)
20008224:	02042583          	lw	a1,32(s0)
20008228:	00090613          	mv	a2,s2
2000822c:	00098513          	mv	a0,s3
20008230:	000780e7          	jalr	a5
20008234:	0aa05c63          	blez	a0,200082ec <__sfvwrite_r+0x284>
20008238:	008aa783          	lw	a5,8(s5)
2000823c:	40a787b3          	sub	a5,a5,a0
20008240:	00faa423          	sw	a5,8(s5)
20008244:	e2078ae3          	beqz	a5,20008078 <__sfvwrite_r+0x10>
20008248:	00a90933          	add	s2,s2,a0
2000824c:	40a484b3          	sub	s1,s1,a0
20008250:	fbdff06f          	j	2000820c <__sfvwrite_r+0x1a4>
20008254:	80000b37          	lui	s6,0x80000
20008258:	00000913          	li	s2,0
2000825c:	00000493          	li	s1,0
20008260:	c00b0b13          	addi	s6,s6,-1024 # 7ffffc00 <__stack_top+0x5fff5a3c>
20008264:	fa9ff06f          	j	2000820c <__sfvwrite_r+0x1a4>
20008268:	000a2b03          	lw	s6,0(s4)
2000826c:	004a2483          	lw	s1,4(s4)
20008270:	008a0a13          	addi	s4,s4,8
20008274:	fe048ae3          	beqz	s1,20008268 <__sfvwrite_r+0x200>
20008278:	00c41783          	lh	a5,12(s0)
2000827c:	00842d03          	lw	s10,8(s0)
20008280:	00042503          	lw	a0,0(s0)
20008284:	2007f713          	andi	a4,a5,512
20008288:	14070863          	beqz	a4,200083d8 <__sfvwrite_r+0x370>
2000828c:	000d0d93          	mv	s11,s10
20008290:	13a4ec63          	bltu	s1,s10,200083c8 <__sfvwrite_r+0x360>
20008294:	4807f713          	andi	a4,a5,1152
20008298:	12070c63          	beqz	a4,200083d0 <__sfvwrite_r+0x368>
2000829c:	01442903          	lw	s2,20(s0)
200082a0:	01042583          	lw	a1,16(s0)
200082a4:	03890933          	mul	s2,s2,s8
200082a8:	40b50db3          	sub	s11,a0,a1
200082ac:	001d8713          	addi	a4,s11,1
200082b0:	00970733          	add	a4,a4,s1
200082b4:	03994933          	div	s2,s2,s9
200082b8:	00090613          	mv	a2,s2
200082bc:	00e97663          	bgeu	s2,a4,200082c8 <__sfvwrite_r+0x260>
200082c0:	00070913          	mv	s2,a4
200082c4:	00070613          	mv	a2,a4
200082c8:	4007f793          	andi	a5,a5,1024
200082cc:	0c078863          	beqz	a5,2000839c <__sfvwrite_r+0x334>
200082d0:	00060593          	mv	a1,a2
200082d4:	00098513          	mv	a0,s3
200082d8:	cbdfe0ef          	jal	20006f94 <_malloc_r>
200082dc:	00050d13          	mv	s10,a0
200082e0:	02051c63          	bnez	a0,20008318 <__sfvwrite_r+0x2b0>
200082e4:	00c00793          	li	a5,12
200082e8:	00f9a023          	sw	a5,0(s3)
200082ec:	00c45783          	lhu	a5,12(s0)
200082f0:	0407e793          	ori	a5,a5,64
200082f4:	00f41623          	sh	a5,12(s0)
200082f8:	f01ff06f          	j	200081f8 <__sfvwrite_r+0x190>
200082fc:	80000bb7          	lui	s7,0x80000
20008300:	00000b13          	li	s6,0
20008304:	00000493          	li	s1,0
20008308:	fffb8b93          	addi	s7,s7,-1 # 7fffffff <__stack_top+0x5fff5e3b>
2000830c:	00300c13          	li	s8,3
20008310:	00200c93          	li	s9,2
20008314:	f61ff06f          	j	20008274 <__sfvwrite_r+0x20c>
20008318:	01042583          	lw	a1,16(s0)
2000831c:	000d8613          	mv	a2,s11
20008320:	339000ef          	jal	20008e58 <memcpy>
20008324:	00c45783          	lhu	a5,12(s0)
20008328:	b7f7f793          	andi	a5,a5,-1153
2000832c:	0807e793          	ori	a5,a5,128
20008330:	00f41623          	sh	a5,12(s0)
20008334:	01a42823          	sw	s10,16(s0)
20008338:	01242a23          	sw	s2,20(s0)
2000833c:	01bd0d33          	add	s10,s10,s11
20008340:	41b90933          	sub	s2,s2,s11
20008344:	01a42023          	sw	s10,0(s0)
20008348:	01242423          	sw	s2,8(s0)
2000834c:	00048d13          	mv	s10,s1
20008350:	00048913          	mv	s2,s1
20008354:	00048d93          	mv	s11,s1
20008358:	00042503          	lw	a0,0(s0)
2000835c:	000d8613          	mv	a2,s11
20008360:	000b0593          	mv	a1,s6
20008364:	29d000ef          	jal	20008e00 <memmove>
20008368:	00842783          	lw	a5,8(s0)
2000836c:	41a787b3          	sub	a5,a5,s10
20008370:	00f42423          	sw	a5,8(s0)
20008374:	00042783          	lw	a5,0(s0)
20008378:	01b787b3          	add	a5,a5,s11
2000837c:	00f42023          	sw	a5,0(s0)
20008380:	008aa783          	lw	a5,8(s5)
20008384:	412787b3          	sub	a5,a5,s2
20008388:	00faa423          	sw	a5,8(s5)
2000838c:	ce0786e3          	beqz	a5,20008078 <__sfvwrite_r+0x10>
20008390:	012b0b33          	add	s6,s6,s2
20008394:	412484b3          	sub	s1,s1,s2
20008398:	eddff06f          	j	20008274 <__sfvwrite_r+0x20c>
2000839c:	00098513          	mv	a0,s3
200083a0:	2dd000ef          	jal	20008e7c <_realloc_r>
200083a4:	00050d13          	mv	s10,a0
200083a8:	f80516e3          	bnez	a0,20008334 <__sfvwrite_r+0x2cc>
200083ac:	01042583          	lw	a1,16(s0)
200083b0:	00098513          	mv	a0,s3
200083b4:	a3dfe0ef          	jal	20006df0 <_free_r>
200083b8:	00c45783          	lhu	a5,12(s0)
200083bc:	f7f7f793          	andi	a5,a5,-129
200083c0:	00f41623          	sh	a5,12(s0)
200083c4:	f21ff06f          	j	200082e4 <__sfvwrite_r+0x27c>
200083c8:	00048d13          	mv	s10,s1
200083cc:	f85ff06f          	j	20008350 <__sfvwrite_r+0x2e8>
200083d0:	00048913          	mv	s2,s1
200083d4:	f85ff06f          	j	20008358 <__sfvwrite_r+0x2f0>
200083d8:	01042783          	lw	a5,16(s0)
200083dc:	00a7e663          	bltu	a5,a0,200083e8 <__sfvwrite_r+0x380>
200083e0:	01442683          	lw	a3,20(s0)
200083e4:	04d4f663          	bgeu	s1,a3,20008430 <__sfvwrite_r+0x3c8>
200083e8:	000d0913          	mv	s2,s10
200083ec:	01a4f463          	bgeu	s1,s10,200083f4 <__sfvwrite_r+0x38c>
200083f0:	00048913          	mv	s2,s1
200083f4:	00090613          	mv	a2,s2
200083f8:	000b0593          	mv	a1,s6
200083fc:	205000ef          	jal	20008e00 <memmove>
20008400:	00842783          	lw	a5,8(s0)
20008404:	00042703          	lw	a4,0(s0)
20008408:	412787b3          	sub	a5,a5,s2
2000840c:	01270733          	add	a4,a4,s2
20008410:	00f42423          	sw	a5,8(s0)
20008414:	00e42023          	sw	a4,0(s0)
20008418:	f60794e3          	bnez	a5,20008380 <__sfvwrite_r+0x318>
2000841c:	00040593          	mv	a1,s0
20008420:	00098513          	mv	a0,s3
20008424:	8c1ff0ef          	jal	20007ce4 <_fflush_r>
20008428:	f4050ce3          	beqz	a0,20008380 <__sfvwrite_r+0x318>
2000842c:	ec1ff06f          	j	200082ec <__sfvwrite_r+0x284>
20008430:	00048793          	mv	a5,s1
20008434:	009bf463          	bgeu	s7,s1,2000843c <__sfvwrite_r+0x3d4>
20008438:	000b8793          	mv	a5,s7
2000843c:	02d7c7b3          	div	a5,a5,a3
20008440:	02842703          	lw	a4,40(s0)
20008444:	02042583          	lw	a1,32(s0)
20008448:	000b0613          	mv	a2,s6
2000844c:	00098513          	mv	a0,s3
20008450:	02d786b3          	mul	a3,a5,a3
20008454:	000700e7          	jalr	a4
20008458:	00050913          	mv	s2,a0
2000845c:	f2a042e3          	bgtz	a0,20008380 <__sfvwrite_r+0x318>
20008460:	e8dff06f          	j	200082ec <__sfvwrite_r+0x284>
20008464:	000a2b03          	lw	s6,0(s4)
20008468:	004a2903          	lw	s2,4(s4)
2000846c:	00000513          	li	a0,0
20008470:	008a0a13          	addi	s4,s4,8
20008474:	cc5ff06f          	j	20008138 <__sfvwrite_r+0xd0>
20008478:	02dc4263          	blt	s8,a3,2000849c <__sfvwrite_r+0x434>
2000847c:	02842783          	lw	a5,40(s0)
20008480:	02042583          	lw	a1,32(s0)
20008484:	000b0613          	mv	a2,s6
20008488:	00098513          	mv	a0,s3
2000848c:	000780e7          	jalr	a5
20008490:	00050493          	mv	s1,a0
20008494:	d0a04ee3          	bgtz	a0,200081b0 <__sfvwrite_r+0x148>
20008498:	e55ff06f          	j	200082ec <__sfvwrite_r+0x284>
2000849c:	000c0613          	mv	a2,s8
200084a0:	000b0593          	mv	a1,s6
200084a4:	15d000ef          	jal	20008e00 <memmove>
200084a8:	00842783          	lw	a5,8(s0)
200084ac:	000c0493          	mv	s1,s8
200084b0:	418787b3          	sub	a5,a5,s8
200084b4:	00f42423          	sw	a5,8(s0)
200084b8:	00042783          	lw	a5,0(s0)
200084bc:	018787b3          	add	a5,a5,s8
200084c0:	00f42023          	sw	a5,0(s0)
200084c4:	cedff06f          	j	200081b0 <__sfvwrite_r+0x148>

200084c8 <_fwalk_sglue>:
200084c8:	fd010113          	addi	sp,sp,-48
200084cc:	02812423          	sw	s0,40(sp)
200084d0:	03212023          	sw	s2,32(sp)
200084d4:	01312e23          	sw	s3,28(sp)
200084d8:	01412c23          	sw	s4,24(sp)
200084dc:	01512a23          	sw	s5,20(sp)
200084e0:	02112623          	sw	ra,44(sp)
200084e4:	02912223          	sw	s1,36(sp)
200084e8:	00050a13          	mv	s4,a0
200084ec:	00058a93          	mv	s5,a1
200084f0:	00000413          	li	s0,0
200084f4:	00100913          	li	s2,1
200084f8:	fff00993          	li	s3,-1
200084fc:	00862583          	lw	a1,8(a2)
20008500:	00462483          	lw	s1,4(a2)
20008504:	fff48493          	addi	s1,s1,-1
20008508:	0204da63          	bgez	s1,2000853c <_fwalk_sglue+0x74>
2000850c:	00062603          	lw	a2,0(a2)
20008510:	fe0616e3          	bnez	a2,200084fc <_fwalk_sglue+0x34>
20008514:	02c12083          	lw	ra,44(sp)
20008518:	00040513          	mv	a0,s0
2000851c:	02812403          	lw	s0,40(sp)
20008520:	02412483          	lw	s1,36(sp)
20008524:	02012903          	lw	s2,32(sp)
20008528:	01c12983          	lw	s3,28(sp)
2000852c:	01812a03          	lw	s4,24(sp)
20008530:	01412a83          	lw	s5,20(sp)
20008534:	03010113          	addi	sp,sp,48
20008538:	00008067          	ret
2000853c:	00c5d783          	lhu	a5,12(a1)
20008540:	02f97463          	bgeu	s2,a5,20008568 <_fwalk_sglue+0xa0>
20008544:	00e59783          	lh	a5,14(a1)
20008548:	03378063          	beq	a5,s3,20008568 <_fwalk_sglue+0xa0>
2000854c:	000a0513          	mv	a0,s4
20008550:	00c12623          	sw	a2,12(sp)
20008554:	00b12423          	sw	a1,8(sp)
20008558:	000a80e7          	jalr	s5
2000855c:	00c12603          	lw	a2,12(sp)
20008560:	00812583          	lw	a1,8(sp)
20008564:	00a46433          	or	s0,s0,a0
20008568:	06858593          	addi	a1,a1,104
2000856c:	f99ff06f          	j	20008504 <_fwalk_sglue+0x3c>

20008570 <__swhatbuf_r>:
20008570:	f8010113          	addi	sp,sp,-128
20008574:	06812c23          	sw	s0,120(sp)
20008578:	00058413          	mv	s0,a1
2000857c:	00e59583          	lh	a1,14(a1)
20008580:	06912a23          	sw	s1,116(sp)
20008584:	06112e23          	sw	ra,124(sp)
20008588:	00060493          	mv	s1,a2
2000858c:	0205da63          	bgez	a1,200085c0 <__swhatbuf_r+0x50>
20008590:	00c45783          	lhu	a5,12(s0)
20008594:	0807f793          	andi	a5,a5,128
20008598:	04079c63          	bnez	a5,200085f0 <__swhatbuf_r+0x80>
2000859c:	40000713          	li	a4,1024
200085a0:	07c12083          	lw	ra,124(sp)
200085a4:	07812403          	lw	s0,120(sp)
200085a8:	00f6a023          	sw	a5,0(a3)
200085ac:	00e4a023          	sw	a4,0(s1)
200085b0:	00000513          	li	a0,0
200085b4:	07412483          	lw	s1,116(sp)
200085b8:	08010113          	addi	sp,sp,128
200085bc:	00008067          	ret
200085c0:	01810613          	addi	a2,sp,24
200085c4:	00d12623          	sw	a3,12(sp)
200085c8:	654000ef          	jal	20008c1c <_fstat_r>
200085cc:	00c12683          	lw	a3,12(sp)
200085d0:	fc0540e3          	bltz	a0,20008590 <__swhatbuf_r+0x20>
200085d4:	01c12783          	lw	a5,28(sp)
200085d8:	0000f737          	lui	a4,0xf
200085dc:	00e7f7b3          	and	a5,a5,a4
200085e0:	ffffe737          	lui	a4,0xffffe
200085e4:	00e787b3          	add	a5,a5,a4
200085e8:	0017b793          	seqz	a5,a5
200085ec:	fb1ff06f          	j	2000859c <__swhatbuf_r+0x2c>
200085f0:	00000793          	li	a5,0
200085f4:	04000713          	li	a4,64
200085f8:	fa9ff06f          	j	200085a0 <__swhatbuf_r+0x30>

200085fc <__smakebuf_r>:
200085fc:	00c5d703          	lhu	a4,12(a1)
20008600:	fd010113          	addi	sp,sp,-48
20008604:	02812423          	sw	s0,40(sp)
20008608:	02112623          	sw	ra,44(sp)
2000860c:	02912223          	sw	s1,36(sp)
20008610:	00277713          	andi	a4,a4,2
20008614:	00058413          	mv	s0,a1
20008618:	02070663          	beqz	a4,20008644 <__smakebuf_r+0x48>
2000861c:	04740793          	addi	a5,s0,71
20008620:	00f42023          	sw	a5,0(s0)
20008624:	00f42823          	sw	a5,16(s0)
20008628:	00100793          	li	a5,1
2000862c:	00f42a23          	sw	a5,20(s0)
20008630:	02c12083          	lw	ra,44(sp)
20008634:	02812403          	lw	s0,40(sp)
20008638:	02412483          	lw	s1,36(sp)
2000863c:	03010113          	addi	sp,sp,48
20008640:	00008067          	ret
20008644:	01c10693          	addi	a3,sp,28
20008648:	01810613          	addi	a2,sp,24
2000864c:	00050493          	mv	s1,a0
20008650:	f21ff0ef          	jal	20008570 <__swhatbuf_r>
20008654:	01812583          	lw	a1,24(sp)
20008658:	00048513          	mv	a0,s1
2000865c:	00b12623          	sw	a1,12(sp)
20008660:	935fe0ef          	jal	20006f94 <_malloc_r>
20008664:	00c41783          	lh	a5,12(s0)
20008668:	00c12583          	lw	a1,12(sp)
2000866c:	00051e63          	bnez	a0,20008688 <__smakebuf_r+0x8c>
20008670:	2007f713          	andi	a4,a5,512
20008674:	fa071ee3          	bnez	a4,20008630 <__smakebuf_r+0x34>
20008678:	ffc7f793          	andi	a5,a5,-4
2000867c:	0027e793          	ori	a5,a5,2
20008680:	00f41623          	sh	a5,12(s0)
20008684:	f99ff06f          	j	2000861c <__smakebuf_r+0x20>
20008688:	0807e793          	ori	a5,a5,128
2000868c:	00f41623          	sh	a5,12(s0)
20008690:	01c12783          	lw	a5,28(sp)
20008694:	00a42023          	sw	a0,0(s0)
20008698:	00a42823          	sw	a0,16(s0)
2000869c:	00b42a23          	sw	a1,20(s0)
200086a0:	f80788e3          	beqz	a5,20008630 <__smakebuf_r+0x34>
200086a4:	00e41583          	lh	a1,14(s0)
200086a8:	00048513          	mv	a0,s1
200086ac:	5c0000ef          	jal	20008c6c <_isatty_r>
200086b0:	f80500e3          	beqz	a0,20008630 <__smakebuf_r+0x34>
200086b4:	00c45783          	lhu	a5,12(s0)
200086b8:	ffc7f793          	andi	a5,a5,-4
200086bc:	0017e793          	ori	a5,a5,1
200086c0:	00f41623          	sh	a5,12(s0)
200086c4:	f6dff06f          	j	20008630 <__smakebuf_r+0x34>

200086c8 <__sread>:
200086c8:	ff010113          	addi	sp,sp,-16
200086cc:	00812423          	sw	s0,8(sp)
200086d0:	00058413          	mv	s0,a1
200086d4:	00e59583          	lh	a1,14(a1)
200086d8:	00112623          	sw	ra,12(sp)
200086dc:	630000ef          	jal	20008d0c <_read_r>
200086e0:	02054063          	bltz	a0,20008700 <__sread+0x38>
200086e4:	05442783          	lw	a5,84(s0)
200086e8:	00a787b3          	add	a5,a5,a0
200086ec:	04f42a23          	sw	a5,84(s0)
200086f0:	00c12083          	lw	ra,12(sp)
200086f4:	00812403          	lw	s0,8(sp)
200086f8:	01010113          	addi	sp,sp,16
200086fc:	00008067          	ret
20008700:	00c45783          	lhu	a5,12(s0)
20008704:	fffff737          	lui	a4,0xfffff
20008708:	fff70713          	addi	a4,a4,-1 # ffffefff <__stack_top+0xdfff4e3b>
2000870c:	00e7f7b3          	and	a5,a5,a4
20008710:	00f41623          	sh	a5,12(s0)
20008714:	fddff06f          	j	200086f0 <__sread+0x28>

20008718 <__seofread>:
20008718:	00000513          	li	a0,0
2000871c:	00008067          	ret

20008720 <__swrite>:
20008720:	00c5d783          	lhu	a5,12(a1)
20008724:	fe010113          	addi	sp,sp,-32
20008728:	00812c23          	sw	s0,24(sp)
2000872c:	00912a23          	sw	s1,20(sp)
20008730:	01212823          	sw	s2,16(sp)
20008734:	01312623          	sw	s3,12(sp)
20008738:	00112e23          	sw	ra,28(sp)
2000873c:	1007f793          	andi	a5,a5,256
20008740:	00050493          	mv	s1,a0
20008744:	00058413          	mv	s0,a1
20008748:	00060913          	mv	s2,a2
2000874c:	00068993          	mv	s3,a3
20008750:	00078a63          	beqz	a5,20008764 <__swrite+0x44>
20008754:	00e59583          	lh	a1,14(a1)
20008758:	00200693          	li	a3,2
2000875c:	00000613          	li	a2,0
20008760:	558000ef          	jal	20008cb8 <_lseek_r>
20008764:	00c45783          	lhu	a5,12(s0)
20008768:	fffff737          	lui	a4,0xfffff
2000876c:	fff70713          	addi	a4,a4,-1 # ffffefff <__stack_top+0xdfff4e3b>
20008770:	00e7f7b3          	and	a5,a5,a4
20008774:	00e41583          	lh	a1,14(s0)
20008778:	00f41623          	sh	a5,12(s0)
2000877c:	01812403          	lw	s0,24(sp)
20008780:	01c12083          	lw	ra,28(sp)
20008784:	00098693          	mv	a3,s3
20008788:	00090613          	mv	a2,s2
2000878c:	00c12983          	lw	s3,12(sp)
20008790:	01012903          	lw	s2,16(sp)
20008794:	00048513          	mv	a0,s1
20008798:	01412483          	lw	s1,20(sp)
2000879c:	02010113          	addi	sp,sp,32
200087a0:	60c0006f          	j	20008dac <_write_r>

200087a4 <__sseek>:
200087a4:	ff010113          	addi	sp,sp,-16
200087a8:	00812423          	sw	s0,8(sp)
200087ac:	00058413          	mv	s0,a1
200087b0:	00e59583          	lh	a1,14(a1)
200087b4:	00112623          	sw	ra,12(sp)
200087b8:	500000ef          	jal	20008cb8 <_lseek_r>
200087bc:	fff00713          	li	a4,-1
200087c0:	00c41783          	lh	a5,12(s0)
200087c4:	02e51263          	bne	a0,a4,200087e8 <__sseek+0x44>
200087c8:	80050713          	addi	a4,a0,-2048
200087cc:	80070713          	addi	a4,a4,-2048
200087d0:	00e7f7b3          	and	a5,a5,a4
200087d4:	00f41623          	sh	a5,12(s0)
200087d8:	00c12083          	lw	ra,12(sp)
200087dc:	00812403          	lw	s0,8(sp)
200087e0:	01010113          	addi	sp,sp,16
200087e4:	00008067          	ret
200087e8:	00001737          	lui	a4,0x1
200087ec:	00e7e7b3          	or	a5,a5,a4
200087f0:	00f41623          	sh	a5,12(s0)
200087f4:	04a42a23          	sw	a0,84(s0)
200087f8:	fe1ff06f          	j	200087d8 <__sseek+0x34>

200087fc <__sclose>:
200087fc:	00e59583          	lh	a1,14(a1)
20008800:	2540006f          	j	20008a54 <_close_r>

20008804 <__swbuf_r>:
20008804:	fe010113          	addi	sp,sp,-32
20008808:	00812c23          	sw	s0,24(sp)
2000880c:	00912a23          	sw	s1,20(sp)
20008810:	01312623          	sw	s3,12(sp)
20008814:	00112e23          	sw	ra,28(sp)
20008818:	01212823          	sw	s2,16(sp)
2000881c:	00050493          	mv	s1,a0
20008820:	00058993          	mv	s3,a1
20008824:	00060413          	mv	s0,a2
20008828:	00050863          	beqz	a0,20008838 <__swbuf_r+0x34>
2000882c:	02052783          	lw	a5,32(a0)
20008830:	00079463          	bnez	a5,20008838 <__swbuf_r+0x34>
20008834:	fd4ff0ef          	jal	20008008 <__sinit>
20008838:	01842783          	lw	a5,24(s0)
2000883c:	00f42423          	sw	a5,8(s0)
20008840:	00c45783          	lhu	a5,12(s0)
20008844:	0087f793          	andi	a5,a5,8
20008848:	00078663          	beqz	a5,20008854 <__swbuf_r+0x50>
2000884c:	01042783          	lw	a5,16(s0)
20008850:	02079c63          	bnez	a5,20008888 <__swbuf_r+0x84>
20008854:	00040593          	mv	a1,s0
20008858:	00048513          	mv	a0,s1
2000885c:	0b8000ef          	jal	20008914 <__swsetup_r>
20008860:	02050463          	beqz	a0,20008888 <__swbuf_r+0x84>
20008864:	fff00913          	li	s2,-1
20008868:	01c12083          	lw	ra,28(sp)
2000886c:	01812403          	lw	s0,24(sp)
20008870:	01412483          	lw	s1,20(sp)
20008874:	00c12983          	lw	s3,12(sp)
20008878:	00090513          	mv	a0,s2
2000887c:	01012903          	lw	s2,16(sp)
20008880:	02010113          	addi	sp,sp,32
20008884:	00008067          	ret
20008888:	01042783          	lw	a5,16(s0)
2000888c:	00042503          	lw	a0,0(s0)
20008890:	40f50533          	sub	a0,a0,a5
20008894:	01442783          	lw	a5,20(s0)
20008898:	00f54a63          	blt	a0,a5,200088ac <__swbuf_r+0xa8>
2000889c:	00040593          	mv	a1,s0
200088a0:	00048513          	mv	a0,s1
200088a4:	c40ff0ef          	jal	20007ce4 <_fflush_r>
200088a8:	fa051ee3          	bnez	a0,20008864 <__swbuf_r+0x60>
200088ac:	00842783          	lw	a5,8(s0)
200088b0:	00150513          	addi	a0,a0,1
200088b4:	0ff9f913          	zext.b	s2,s3
200088b8:	fff78793          	addi	a5,a5,-1
200088bc:	00f42423          	sw	a5,8(s0)
200088c0:	00042783          	lw	a5,0(s0)
200088c4:	00178713          	addi	a4,a5,1
200088c8:	00e42023          	sw	a4,0(s0)
200088cc:	01378023          	sb	s3,0(a5)
200088d0:	01442783          	lw	a5,20(s0)
200088d4:	00a78c63          	beq	a5,a0,200088ec <__swbuf_r+0xe8>
200088d8:	00c45783          	lhu	a5,12(s0)
200088dc:	0017f793          	andi	a5,a5,1
200088e0:	f80784e3          	beqz	a5,20008868 <__swbuf_r+0x64>
200088e4:	ff690793          	addi	a5,s2,-10
200088e8:	f80790e3          	bnez	a5,20008868 <__swbuf_r+0x64>
200088ec:	00040593          	mv	a1,s0
200088f0:	00048513          	mv	a0,s1
200088f4:	bf0ff0ef          	jal	20007ce4 <_fflush_r>
200088f8:	f60508e3          	beqz	a0,20008868 <__swbuf_r+0x64>
200088fc:	f69ff06f          	j	20008864 <__swbuf_r+0x60>

20008900 <__swbuf>:
20008900:	200097b7          	lui	a5,0x20009
20008904:	00058613          	mv	a2,a1
20008908:	00050593          	mv	a1,a0
2000890c:	4347a503          	lw	a0,1076(a5) # 20009434 <_impure_ptr>
20008910:	ef5ff06f          	j	20008804 <__swbuf_r>

20008914 <__swsetup_r>:
20008914:	ff010113          	addi	sp,sp,-16
20008918:	200097b7          	lui	a5,0x20009
2000891c:	00912223          	sw	s1,4(sp)
20008920:	00050493          	mv	s1,a0
20008924:	4347a503          	lw	a0,1076(a5) # 20009434 <_impure_ptr>
20008928:	00812423          	sw	s0,8(sp)
2000892c:	00112623          	sw	ra,12(sp)
20008930:	00058413          	mv	s0,a1
20008934:	00050863          	beqz	a0,20008944 <__swsetup_r+0x30>
20008938:	02052783          	lw	a5,32(a0)
2000893c:	00079463          	bnez	a5,20008944 <__swsetup_r+0x30>
20008940:	ec8ff0ef          	jal	20008008 <__sinit>
20008944:	00c41783          	lh	a5,12(s0)
20008948:	0087f713          	andi	a4,a5,8
2000894c:	06071263          	bnez	a4,200089b0 <__swsetup_r+0x9c>
20008950:	0107f713          	andi	a4,a5,16
20008954:	00071e63          	bnez	a4,20008970 <__swsetup_r+0x5c>
20008958:	00900713          	li	a4,9
2000895c:	00e4a023          	sw	a4,0(s1)
20008960:	0407e793          	ori	a5,a5,64
20008964:	00f41623          	sh	a5,12(s0)
20008968:	fff00513          	li	a0,-1
2000896c:	0980006f          	j	20008a04 <__swsetup_r+0xf0>
20008970:	0047f713          	andi	a4,a5,4
20008974:	02070a63          	beqz	a4,200089a8 <__swsetup_r+0x94>
20008978:	03442583          	lw	a1,52(s0)
2000897c:	00058c63          	beqz	a1,20008994 <__swsetup_r+0x80>
20008980:	04440793          	addi	a5,s0,68
20008984:	00f58663          	beq	a1,a5,20008990 <__swsetup_r+0x7c>
20008988:	00048513          	mv	a0,s1
2000898c:	c64fe0ef          	jal	20006df0 <_free_r>
20008990:	02042a23          	sw	zero,52(s0)
20008994:	00c45783          	lhu	a5,12(s0)
20008998:	01042703          	lw	a4,16(s0)
2000899c:	00042223          	sw	zero,4(s0)
200089a0:	fdb7f793          	andi	a5,a5,-37
200089a4:	00e42023          	sw	a4,0(s0)
200089a8:	0087e793          	ori	a5,a5,8
200089ac:	00f41623          	sh	a5,12(s0)
200089b0:	01042783          	lw	a5,16(s0)
200089b4:	02079063          	bnez	a5,200089d4 <__swsetup_r+0xc0>
200089b8:	00c42783          	lw	a5,12(s0)
200089bc:	20000713          	li	a4,512
200089c0:	2807f793          	andi	a5,a5,640
200089c4:	00e78863          	beq	a5,a4,200089d4 <__swsetup_r+0xc0>
200089c8:	00040593          	mv	a1,s0
200089cc:	00048513          	mv	a0,s1
200089d0:	c2dff0ef          	jal	200085fc <__smakebuf_r>
200089d4:	00c41783          	lh	a5,12(s0)
200089d8:	0017f713          	andi	a4,a5,1
200089dc:	02070e63          	beqz	a4,20008a18 <__swsetup_r+0x104>
200089e0:	01442703          	lw	a4,20(s0)
200089e4:	00042423          	sw	zero,8(s0)
200089e8:	40e00733          	neg	a4,a4
200089ec:	00e42c23          	sw	a4,24(s0)
200089f0:	01042703          	lw	a4,16(s0)
200089f4:	00000513          	li	a0,0
200089f8:	00071663          	bnez	a4,20008a04 <__swsetup_r+0xf0>
200089fc:	0807f713          	andi	a4,a5,128
20008a00:	f60710e3          	bnez	a4,20008960 <__swsetup_r+0x4c>
20008a04:	00c12083          	lw	ra,12(sp)
20008a08:	00812403          	lw	s0,8(sp)
20008a0c:	00412483          	lw	s1,4(sp)
20008a10:	01010113          	addi	sp,sp,16
20008a14:	00008067          	ret
20008a18:	0027f713          	andi	a4,a5,2
20008a1c:	00000693          	li	a3,0
20008a20:	00071463          	bnez	a4,20008a28 <__swsetup_r+0x114>
20008a24:	01442683          	lw	a3,20(s0)
20008a28:	00d42423          	sw	a3,8(s0)
20008a2c:	fc5ff06f          	j	200089f0 <__swsetup_r+0xdc>

20008a30 <memchr>:
20008a30:	0ff5f593          	zext.b	a1,a1
20008a34:	00c50633          	add	a2,a0,a2
20008a38:	00c51663          	bne	a0,a2,20008a44 <memchr+0x14>
20008a3c:	00000513          	li	a0,0
20008a40:	00008067          	ret
20008a44:	00054783          	lbu	a5,0(a0)
20008a48:	feb78ce3          	beq	a5,a1,20008a40 <memchr+0x10>
20008a4c:	00150513          	addi	a0,a0,1
20008a50:	fe9ff06f          	j	20008a38 <memchr+0x8>

20008a54 <_close_r>:
20008a54:	ff010113          	addi	sp,sp,-16
20008a58:	00812423          	sw	s0,8(sp)
20008a5c:	00912223          	sw	s1,4(sp)
20008a60:	20009437          	lui	s0,0x20009
20008a64:	00050493          	mv	s1,a0
20008a68:	00058513          	mv	a0,a1
20008a6c:	00112623          	sw	ra,12(sp)
20008a70:	5c042023          	sw	zero,1472(s0) # 200095c0 <errno>
20008a74:	decfb0ef          	jal	20004060 <_close>
20008a78:	fff00793          	li	a5,-1
20008a7c:	00f51863          	bne	a0,a5,20008a8c <_close_r+0x38>
20008a80:	5c042783          	lw	a5,1472(s0)
20008a84:	00078463          	beqz	a5,20008a8c <_close_r+0x38>
20008a88:	00f4a023          	sw	a5,0(s1)
20008a8c:	00c12083          	lw	ra,12(sp)
20008a90:	00812403          	lw	s0,8(sp)
20008a94:	00412483          	lw	s1,4(sp)
20008a98:	01010113          	addi	sp,sp,16
20008a9c:	00008067          	ret

20008aa0 <_reclaim_reent>:
20008aa0:	200097b7          	lui	a5,0x20009
20008aa4:	4347a783          	lw	a5,1076(a5) # 20009434 <_impure_ptr>
20008aa8:	16a78863          	beq	a5,a0,20008c18 <_reclaim_reent+0x178>
20008aac:	01c52783          	lw	a5,28(a0)
20008ab0:	fe010113          	addi	sp,sp,-32
20008ab4:	00812c23          	sw	s0,24(sp)
20008ab8:	00112e23          	sw	ra,28(sp)
20008abc:	00912a23          	sw	s1,20(sp)
20008ac0:	01212823          	sw	s2,16(sp)
20008ac4:	01312623          	sw	s3,12(sp)
20008ac8:	00050413          	mv	s0,a0
20008acc:	08078463          	beqz	a5,20008b54 <_reclaim_reent+0xb4>
20008ad0:	00c7a783          	lw	a5,12(a5)
20008ad4:	02078c63          	beqz	a5,20008b0c <_reclaim_reent+0x6c>
20008ad8:	00000493          	li	s1,0
20008adc:	08000913          	li	s2,128
20008ae0:	01c42783          	lw	a5,28(s0)
20008ae4:	00c7a783          	lw	a5,12(a5)
20008ae8:	009787b3          	add	a5,a5,s1
20008aec:	0007a583          	lw	a1,0(a5)
20008af0:	04059863          	bnez	a1,20008b40 <_reclaim_reent+0xa0>
20008af4:	00448493          	addi	s1,s1,4
20008af8:	ff2494e3          	bne	s1,s2,20008ae0 <_reclaim_reent+0x40>
20008afc:	01c42783          	lw	a5,28(s0)
20008b00:	00040513          	mv	a0,s0
20008b04:	00c7a583          	lw	a1,12(a5)
20008b08:	ae8fe0ef          	jal	20006df0 <_free_r>
20008b0c:	01c42783          	lw	a5,28(s0)
20008b10:	0007a583          	lw	a1,0(a5)
20008b14:	00058663          	beqz	a1,20008b20 <_reclaim_reent+0x80>
20008b18:	00040513          	mv	a0,s0
20008b1c:	ad4fe0ef          	jal	20006df0 <_free_r>
20008b20:	01c42783          	lw	a5,28(s0)
20008b24:	0087a483          	lw	s1,8(a5)
20008b28:	02048663          	beqz	s1,20008b54 <_reclaim_reent+0xb4>
20008b2c:	00048593          	mv	a1,s1
20008b30:	00040513          	mv	a0,s0
20008b34:	0004a483          	lw	s1,0(s1)
20008b38:	ab8fe0ef          	jal	20006df0 <_free_r>
20008b3c:	fedff06f          	j	20008b28 <_reclaim_reent+0x88>
20008b40:	0005a983          	lw	s3,0(a1)
20008b44:	00040513          	mv	a0,s0
20008b48:	aa8fe0ef          	jal	20006df0 <_free_r>
20008b4c:	00098593          	mv	a1,s3
20008b50:	fa1ff06f          	j	20008af0 <_reclaim_reent+0x50>
20008b54:	01442583          	lw	a1,20(s0)
20008b58:	00058663          	beqz	a1,20008b64 <_reclaim_reent+0xc4>
20008b5c:	00040513          	mv	a0,s0
20008b60:	a90fe0ef          	jal	20006df0 <_free_r>
20008b64:	01c42583          	lw	a1,28(s0)
20008b68:	00058663          	beqz	a1,20008b74 <_reclaim_reent+0xd4>
20008b6c:	00040513          	mv	a0,s0
20008b70:	a80fe0ef          	jal	20006df0 <_free_r>
20008b74:	03042583          	lw	a1,48(s0)
20008b78:	00058663          	beqz	a1,20008b84 <_reclaim_reent+0xe4>
20008b7c:	00040513          	mv	a0,s0
20008b80:	a70fe0ef          	jal	20006df0 <_free_r>
20008b84:	03442583          	lw	a1,52(s0)
20008b88:	00058663          	beqz	a1,20008b94 <_reclaim_reent+0xf4>
20008b8c:	00040513          	mv	a0,s0
20008b90:	a60fe0ef          	jal	20006df0 <_free_r>
20008b94:	03842583          	lw	a1,56(s0)
20008b98:	00058663          	beqz	a1,20008ba4 <_reclaim_reent+0x104>
20008b9c:	00040513          	mv	a0,s0
20008ba0:	a50fe0ef          	jal	20006df0 <_free_r>
20008ba4:	04842583          	lw	a1,72(s0)
20008ba8:	00058663          	beqz	a1,20008bb4 <_reclaim_reent+0x114>
20008bac:	00040513          	mv	a0,s0
20008bb0:	a40fe0ef          	jal	20006df0 <_free_r>
20008bb4:	04442583          	lw	a1,68(s0)
20008bb8:	00058663          	beqz	a1,20008bc4 <_reclaim_reent+0x124>
20008bbc:	00040513          	mv	a0,s0
20008bc0:	a30fe0ef          	jal	20006df0 <_free_r>
20008bc4:	02c42583          	lw	a1,44(s0)
20008bc8:	00058663          	beqz	a1,20008bd4 <_reclaim_reent+0x134>
20008bcc:	00040513          	mv	a0,s0
20008bd0:	a20fe0ef          	jal	20006df0 <_free_r>
20008bd4:	02042783          	lw	a5,32(s0)
20008bd8:	02078263          	beqz	a5,20008bfc <_reclaim_reent+0x15c>
20008bdc:	00040513          	mv	a0,s0
20008be0:	01812403          	lw	s0,24(sp)
20008be4:	01c12083          	lw	ra,28(sp)
20008be8:	01412483          	lw	s1,20(sp)
20008bec:	01012903          	lw	s2,16(sp)
20008bf0:	00c12983          	lw	s3,12(sp)
20008bf4:	02010113          	addi	sp,sp,32
20008bf8:	00078067          	jr	a5
20008bfc:	01c12083          	lw	ra,28(sp)
20008c00:	01812403          	lw	s0,24(sp)
20008c04:	01412483          	lw	s1,20(sp)
20008c08:	01012903          	lw	s2,16(sp)
20008c0c:	00c12983          	lw	s3,12(sp)
20008c10:	02010113          	addi	sp,sp,32
20008c14:	00008067          	ret
20008c18:	00008067          	ret

20008c1c <_fstat_r>:
20008c1c:	ff010113          	addi	sp,sp,-16
20008c20:	00812423          	sw	s0,8(sp)
20008c24:	00912223          	sw	s1,4(sp)
20008c28:	20009437          	lui	s0,0x20009
20008c2c:	00050493          	mv	s1,a0
20008c30:	00058513          	mv	a0,a1
20008c34:	00060593          	mv	a1,a2
20008c38:	00112623          	sw	ra,12(sp)
20008c3c:	5c042023          	sw	zero,1472(s0) # 200095c0 <errno>
20008c40:	c80fb0ef          	jal	200040c0 <_fstat>
20008c44:	fff00793          	li	a5,-1
20008c48:	00f51863          	bne	a0,a5,20008c58 <_fstat_r+0x3c>
20008c4c:	5c042783          	lw	a5,1472(s0)
20008c50:	00078463          	beqz	a5,20008c58 <_fstat_r+0x3c>
20008c54:	00f4a023          	sw	a5,0(s1)
20008c58:	00c12083          	lw	ra,12(sp)
20008c5c:	00812403          	lw	s0,8(sp)
20008c60:	00412483          	lw	s1,4(sp)
20008c64:	01010113          	addi	sp,sp,16
20008c68:	00008067          	ret

20008c6c <_isatty_r>:
20008c6c:	ff010113          	addi	sp,sp,-16
20008c70:	00812423          	sw	s0,8(sp)
20008c74:	00912223          	sw	s1,4(sp)
20008c78:	20009437          	lui	s0,0x20009
20008c7c:	00050493          	mv	s1,a0
20008c80:	00058513          	mv	a0,a1
20008c84:	00112623          	sw	ra,12(sp)
20008c88:	5c042023          	sw	zero,1472(s0) # 200095c0 <errno>
20008c8c:	ca4fb0ef          	jal	20004130 <_isatty>
20008c90:	fff00793          	li	a5,-1
20008c94:	00f51863          	bne	a0,a5,20008ca4 <_isatty_r+0x38>
20008c98:	5c042783          	lw	a5,1472(s0)
20008c9c:	00078463          	beqz	a5,20008ca4 <_isatty_r+0x38>
20008ca0:	00f4a023          	sw	a5,0(s1)
20008ca4:	00c12083          	lw	ra,12(sp)
20008ca8:	00812403          	lw	s0,8(sp)
20008cac:	00412483          	lw	s1,4(sp)
20008cb0:	01010113          	addi	sp,sp,16
20008cb4:	00008067          	ret

20008cb8 <_lseek_r>:
20008cb8:	ff010113          	addi	sp,sp,-16
20008cbc:	00812423          	sw	s0,8(sp)
20008cc0:	00912223          	sw	s1,4(sp)
20008cc4:	20009437          	lui	s0,0x20009
20008cc8:	00050493          	mv	s1,a0
20008ccc:	00058513          	mv	a0,a1
20008cd0:	00060593          	mv	a1,a2
20008cd4:	00068613          	mv	a2,a3
20008cd8:	00112623          	sw	ra,12(sp)
20008cdc:	5c042023          	sw	zero,1472(s0) # 200095c0 <errno>
20008ce0:	c1cfb0ef          	jal	200040fc <_lseek>
20008ce4:	fff00793          	li	a5,-1
20008ce8:	00f51863          	bne	a0,a5,20008cf8 <_lseek_r+0x40>
20008cec:	5c042783          	lw	a5,1472(s0)
20008cf0:	00078463          	beqz	a5,20008cf8 <_lseek_r+0x40>
20008cf4:	00f4a023          	sw	a5,0(s1)
20008cf8:	00c12083          	lw	ra,12(sp)
20008cfc:	00812403          	lw	s0,8(sp)
20008d00:	00412483          	lw	s1,4(sp)
20008d04:	01010113          	addi	sp,sp,16
20008d08:	00008067          	ret

20008d0c <_read_r>:
20008d0c:	ff010113          	addi	sp,sp,-16
20008d10:	00812423          	sw	s0,8(sp)
20008d14:	00912223          	sw	s1,4(sp)
20008d18:	20009437          	lui	s0,0x20009
20008d1c:	00050493          	mv	s1,a0
20008d20:	00058513          	mv	a0,a1
20008d24:	00060593          	mv	a1,a2
20008d28:	00068613          	mv	a2,a3
20008d2c:	00112623          	sw	ra,12(sp)
20008d30:	5c042023          	sw	zero,1472(s0) # 200095c0 <errno>
20008d34:	c90fb0ef          	jal	200041c4 <_read>
20008d38:	fff00793          	li	a5,-1
20008d3c:	00f51863          	bne	a0,a5,20008d4c <_read_r+0x40>
20008d40:	5c042783          	lw	a5,1472(s0)
20008d44:	00078463          	beqz	a5,20008d4c <_read_r+0x40>
20008d48:	00f4a023          	sw	a5,0(s1)
20008d4c:	00c12083          	lw	ra,12(sp)
20008d50:	00812403          	lw	s0,8(sp)
20008d54:	00412483          	lw	s1,4(sp)
20008d58:	01010113          	addi	sp,sp,16
20008d5c:	00008067          	ret

20008d60 <_sbrk_r>:
20008d60:	ff010113          	addi	sp,sp,-16
20008d64:	00812423          	sw	s0,8(sp)
20008d68:	00912223          	sw	s1,4(sp)
20008d6c:	20009437          	lui	s0,0x20009
20008d70:	00050493          	mv	s1,a0
20008d74:	00058513          	mv	a0,a1
20008d78:	00112623          	sw	ra,12(sp)
20008d7c:	5c042023          	sw	zero,1472(s0) # 200095c0 <errno>
20008d80:	f91fa0ef          	jal	20003d10 <_sbrk>
20008d84:	fff00793          	li	a5,-1
20008d88:	00f51863          	bne	a0,a5,20008d98 <_sbrk_r+0x38>
20008d8c:	5c042783          	lw	a5,1472(s0)
20008d90:	00078463          	beqz	a5,20008d98 <_sbrk_r+0x38>
20008d94:	00f4a023          	sw	a5,0(s1)
20008d98:	00c12083          	lw	ra,12(sp)
20008d9c:	00812403          	lw	s0,8(sp)
20008da0:	00412483          	lw	s1,4(sp)
20008da4:	01010113          	addi	sp,sp,16
20008da8:	00008067          	ret

20008dac <_write_r>:
20008dac:	ff010113          	addi	sp,sp,-16
20008db0:	00812423          	sw	s0,8(sp)
20008db4:	00912223          	sw	s1,4(sp)
20008db8:	20009437          	lui	s0,0x20009
20008dbc:	00050493          	mv	s1,a0
20008dc0:	00058513          	mv	a0,a1
20008dc4:	00060593          	mv	a1,a2
20008dc8:	00068613          	mv	a2,a3
20008dcc:	00112623          	sw	ra,12(sp)
20008dd0:	5c042023          	sw	zero,1472(s0) # 200095c0 <errno>
20008dd4:	b88fb0ef          	jal	2000415c <_write>
20008dd8:	fff00793          	li	a5,-1
20008ddc:	00f51863          	bne	a0,a5,20008dec <_write_r+0x40>
20008de0:	5c042783          	lw	a5,1472(s0)
20008de4:	00078463          	beqz	a5,20008dec <_write_r+0x40>
20008de8:	00f4a023          	sw	a5,0(s1)
20008dec:	00c12083          	lw	ra,12(sp)
20008df0:	00812403          	lw	s0,8(sp)
20008df4:	00412483          	lw	s1,4(sp)
20008df8:	01010113          	addi	sp,sp,16
20008dfc:	00008067          	ret

20008e00 <memmove>:
20008e00:	02060c63          	beqz	a2,20008e38 <memmove+0x38>
20008e04:	00050313          	mv	t1,a0
20008e08:	00100693          	li	a3,1
20008e0c:	00b56a63          	bltu	a0,a1,20008e20 <memmove+0x20>
20008e10:	fff00693          	li	a3,-1
20008e14:	fff60713          	addi	a4,a2,-1
20008e18:	00e30333          	add	t1,t1,a4
20008e1c:	00e585b3          	add	a1,a1,a4
20008e20:	00058383          	lb	t2,0(a1)
20008e24:	00730023          	sb	t2,0(t1)
20008e28:	fff60613          	addi	a2,a2,-1
20008e2c:	00d30333          	add	t1,t1,a3
20008e30:	00d585b3          	add	a1,a1,a3
20008e34:	fe0616e3          	bnez	a2,20008e20 <memmove+0x20>
20008e38:	00008067          	ret

20008e3c <memset>:
20008e3c:	00050313          	mv	t1,a0
20008e40:	00060a63          	beqz	a2,20008e54 <memset+0x18>
20008e44:	00b30023          	sb	a1,0(t1)
20008e48:	fff60613          	addi	a2,a2,-1
20008e4c:	00130313          	addi	t1,t1,1
20008e50:	fe061ae3          	bnez	a2,20008e44 <memset+0x8>
20008e54:	00008067          	ret

20008e58 <memcpy>:
20008e58:	00050313          	mv	t1,a0
20008e5c:	00060e63          	beqz	a2,20008e78 <memcpy+0x20>
20008e60:	00058383          	lb	t2,0(a1)
20008e64:	00730023          	sb	t2,0(t1)
20008e68:	fff60613          	addi	a2,a2,-1
20008e6c:	00130313          	addi	t1,t1,1
20008e70:	00158593          	addi	a1,a1,1
20008e74:	fe0616e3          	bnez	a2,20008e60 <memcpy+0x8>
20008e78:	00008067          	ret

20008e7c <_realloc_r>:
20008e7c:	00059663          	bnez	a1,20008e88 <_realloc_r+0xc>
20008e80:	00060593          	mv	a1,a2
20008e84:	910fe06f          	j	20006f94 <_malloc_r>
20008e88:	fe010113          	addi	sp,sp,-32
20008e8c:	00812c23          	sw	s0,24(sp)
20008e90:	01412423          	sw	s4,8(sp)
20008e94:	00112e23          	sw	ra,28(sp)
20008e98:	00912a23          	sw	s1,20(sp)
20008e9c:	01212823          	sw	s2,16(sp)
20008ea0:	01312623          	sw	s3,12(sp)
20008ea4:	00060413          	mv	s0,a2
20008ea8:	00050a13          	mv	s4,a0
20008eac:	02061863          	bnez	a2,20008edc <_realloc_r+0x60>
20008eb0:	f41fd0ef          	jal	20006df0 <_free_r>
20008eb4:	00000493          	li	s1,0
20008eb8:	01c12083          	lw	ra,28(sp)
20008ebc:	01812403          	lw	s0,24(sp)
20008ec0:	01012903          	lw	s2,16(sp)
20008ec4:	00c12983          	lw	s3,12(sp)
20008ec8:	00812a03          	lw	s4,8(sp)
20008ecc:	00048513          	mv	a0,s1
20008ed0:	01412483          	lw	s1,20(sp)
20008ed4:	02010113          	addi	sp,sp,32
20008ed8:	00008067          	ret
20008edc:	00058493          	mv	s1,a1
20008ee0:	058000ef          	jal	20008f38 <_malloc_usable_size_r>
20008ee4:	00050913          	mv	s2,a0
20008ee8:	00856663          	bltu	a0,s0,20008ef4 <_realloc_r+0x78>
20008eec:	00155793          	srli	a5,a0,0x1
20008ef0:	fc87e4e3          	bltu	a5,s0,20008eb8 <_realloc_r+0x3c>
20008ef4:	00040593          	mv	a1,s0
20008ef8:	000a0513          	mv	a0,s4
20008efc:	898fe0ef          	jal	20006f94 <_malloc_r>
20008f00:	00050993          	mv	s3,a0
20008f04:	00051663          	bnez	a0,20008f10 <_realloc_r+0x94>
20008f08:	00098493          	mv	s1,s3
20008f0c:	fadff06f          	j	20008eb8 <_realloc_r+0x3c>
20008f10:	00040613          	mv	a2,s0
20008f14:	00897463          	bgeu	s2,s0,20008f1c <_realloc_r+0xa0>
20008f18:	00090613          	mv	a2,s2
20008f1c:	00048593          	mv	a1,s1
20008f20:	00098513          	mv	a0,s3
20008f24:	f35ff0ef          	jal	20008e58 <memcpy>
20008f28:	00048593          	mv	a1,s1
20008f2c:	000a0513          	mv	a0,s4
20008f30:	ec1fd0ef          	jal	20006df0 <_free_r>
20008f34:	fd5ff06f          	j	20008f08 <_realloc_r+0x8c>

20008f38 <_malloc_usable_size_r>:
20008f38:	ffc5a783          	lw	a5,-4(a1)
20008f3c:	ffc78513          	addi	a0,a5,-4
20008f40:	0007d863          	bgez	a5,20008f50 <_malloc_usable_size_r+0x18>
20008f44:	00a585b3          	add	a1,a1,a0
20008f48:	0005a783          	lw	a5,0(a1)
20008f4c:	00f50533          	add	a0,a0,a5
20008f50:	00008067          	ret
	...
20008f5c:	0000                	.insn	2, 0x0000
20008f5e:	3fd0                	.insn	2, 0x3fd0
20008f60:	0000                	.insn	2, 0x0000
20008f62:	0000                	.insn	2, 0x0000
20008f64:	0000                	.insn	2, 0x0000
20008f66:	3fe0                	.insn	2, 0x3fe0
20008f68:	500a                	.insn	2, 0x500a
20008f6a:	6f72                	.insn	2, 0x6f72
20008f6c:	6d617267          	.insn	4, 0x6d617267
20008f70:	6520                	.insn	2, 0x6520
20008f72:	6978                	.insn	2, 0x6978
20008f74:	6574                	.insn	2, 0x6574
20008f76:	2064                	.insn	2, 0x2064
20008f78:	68746977          	.insn	4, 0x68746977
20008f7c:	6320                	.insn	2, 0x6320
20008f7e:	2065646f          	jal	s0,2005f184 <__stack_top+0x54fc0>
20008f82:	6425                	.insn	2, 0x6425
20008f84:	000a                	.insn	2, 0x000a
	...

20008f88 <__clz_tab>:
20008f88:	0100 0202 0303 0303 0404 0404 0404 0404     ................
20008f98:	0505 0505 0505 0505 0505 0505 0505 0505     ................
20008fa8:	0606 0606 0606 0606 0606 0606 0606 0606     ................
20008fb8:	0606 0606 0606 0606 0606 0606 0606 0606     ................
20008fc8:	0707 0707 0707 0707 0707 0707 0707 0707     ................
20008fd8:	0707 0707 0707 0707 0707 0707 0707 0707     ................
20008fe8:	0707 0707 0707 0707 0707 0707 0707 0707     ................
20008ff8:	0707 0707 0707 0707 0707 0707 0707 0707     ................
20009008:	0808 0808 0808 0808 0808 0808 0808 0808     ................
20009018:	0808 0808 0808 0808 0808 0808 0808 0808     ................
20009028:	0808 0808 0808 0808 0808 0808 0808 0808     ................
20009038:	0808 0808 0808 0808 0808 0808 0808 0808     ................
20009048:	0808 0808 0808 0808 0808 0808 0808 0808     ................
20009058:	0808 0808 0808 0808 0808 0808 0808 0808     ................
20009068:	0808 0808 0808 0808 0808 0808 0808 0808     ................
20009078:	0808 0808 0808 0808 0808 0808 0808 0808     ................
20009088:	2d23 2b30 0020 0000 6c68 004c 6665 4567     #-0+ ...hlL.efgE
20009098:	4746 0000 3130 3332 3534 3736 3938 4241     FG..0123456789AB
200090a8:	4443 4645 0000 0000 3130 3332 3534 3736     CDEF....01234567
200090b8:	3938 6261 6463 6665 0000 0000 7814 2000     89abcdef.....x. 
200090c8:	7834 2000 77e4 2000 77e4 2000 77e4 2000     4x. .w. .w. .w. 
200090d8:	77e4 2000 7834 2000 77e4 2000 77e4 2000     .w. 4x. .w. .w. 
200090e8:	77e4 2000 77e4 2000 7a20 2000 788c 2000     .w. .w.  z. .x. 
200090f8:	7998 2000 77e4 2000 77e4 2000 7a68 2000     .y. .w. .w. hz. 
20009108:	77e4 2000 788c 2000 77e4 2000 77e4 2000     .w. .x. .w. .w. 
20009118:	79a4 2000                                   .y. 
